	.section	__TEXT,__text,regular,pure_instructions
	.macosx_version_min 10, 11
	.file	1 "/Users/dylan/github/ravi/src" "lvm.c"
	.file	2 "/Users/dylan/github/ravi/include" "ltm.h"
	.file	3 "/Users/dylan/github/ravi/include" "lopcodes.h"
	.file	4 "/Users/dylan/github/ravi/include" "lobject.h"
	.file	5 "/Users/dylan/github/ravi/include" "lua.h"
	.file	6 "/Users/dylan/github/ravi/include" "llimits.h"
	.file	7 "/Users/dylan/github/ravi/include" "lstate.h"
	.file	8 "/Applications/Xcode.app/Contents/Developer/Platforms/MacOSX.platform/Developer/SDKs/MacOSX10.11.sdk/usr/include/i386" "_types.h"
	.file	9 "/Applications/Xcode.app/Contents/Developer/Platforms/MacOSX.platform/Developer/SDKs/MacOSX10.11.sdk/usr/include/sys/_types" "_size_t.h"
	.file	10 "/Applications/Xcode.app/Contents/Developer/Toolchains/XcodeDefault.xctoolchain/usr/bin/../lib/clang/7.3.0/include" "stddef.h"
	.file	11 "/Applications/Xcode.app/Contents/Developer/Platforms/MacOSX.platform/Developer/SDKs/MacOSX10.11.sdk/usr/include/sys/_types" "_intptr_t.h"
	.file	12 "/Users/dylan/github/ravi/include" "lfunc.h"
	.globl	_luaV_tonumber_
	.align	4, 0x90
_luaV_tonumber_:                        ## @luaV_tonumber_
Lfunc_begin0:
	.loc	1 77 0                  ## /Users/dylan/github/ravi/src/lvm.c:77:0
	.cfi_startproc
## BB#0:
	pushq	%rbp
Ltmp0:
	.cfi_def_cfa_offset 16
Ltmp1:
	.cfi_offset %rbp, -16
	movq	%rsp, %rbp
Ltmp2:
	.cfi_def_cfa_register %rbp
	pushq	%r15
	pushq	%r14
	pushq	%rbx
	subq	$24, %rsp
Ltmp3:
	.cfi_offset %rbx, -40
Ltmp4:
	.cfi_offset %r14, -32
Ltmp5:
	.cfi_offset %r15, -24
	##DEBUG_VALUE: luaV_tonumber_:obj <- %RDI
	##DEBUG_VALUE: luaV_tonumber_:n <- %RSI
	movq	%rsi, %r14
Ltmp6:
	##DEBUG_VALUE: luaV_tonumber_:n <- %R14
	movq	%rdi, %rbx
Ltmp7:
	##DEBUG_VALUE: luaV_tonumber_:obj <- %RBX
	.loc	1 79 7 prologue_end     ## /Users/dylan/github/ravi/src/lvm.c:79:7
	movl	8(%rbx), %eax
Ltmp8:
	.loc	1 79 7 is_stmt 0        ## /Users/dylan/github/ravi/src/lvm.c:79:7
	cmpl	$19, %eax
	jne	LBB0_2
Ltmp9:
## BB#1:
	##DEBUG_VALUE: luaV_tonumber_:obj <- %RBX
	##DEBUG_VALUE: luaV_tonumber_:n <- %R14
	.loc	1 80 10 is_stmt 1       ## /Users/dylan/github/ravi/src/lvm.c:80:10
	cvtsi2sdq	(%rbx), %xmm0
Ltmp10:
LBB0_10:                                ## %select.end
	##DEBUG_VALUE: luaV_tonumber_:n <- %R14
	.loc	1 85 8                  ## /Users/dylan/github/ravi/src/lvm.c:85:8
	movsd	%xmm0, (%r14)
	movl	$1, %r15d
	jmp	LBB0_11
Ltmp11:
LBB0_2:
	##DEBUG_VALUE: luaV_tonumber_:obj <- %RBX
	##DEBUG_VALUE: luaV_tonumber_:n <- %R14
	.loc	1 83 12                 ## /Users/dylan/github/ravi/src/lvm.c:83:12
	andl	$15, %eax
	xorl	%r15d, %r15d
	.loc	1 83 25 is_stmt 0       ## /Users/dylan/github/ravi/src/lvm.c:83:25
	cmpl	$4, %eax
	jne	LBB0_11
Ltmp12:
## BB#3:
	##DEBUG_VALUE: luaV_tonumber_:obj <- %RBX
	##DEBUG_VALUE: luaV_tonumber_:n <- %R14
	.loc	1 84 26 is_stmt 1       ## /Users/dylan/github/ravi/src/lvm.c:84:26
	movq	(%rbx), %rdi
	addq	$24, %rdi
	leaq	-40(%rbp), %rsi
Ltmp13:
	##DEBUG_VALUE: luaV_tonumber_:v <- [%RSI+0]
	.loc	1 84 13 is_stmt 0       ## /Users/dylan/github/ravi/src/lvm.c:84:13
	callq	_luaO_str2num
	.loc	1 84 46                 ## /Users/dylan/github/ravi/src/lvm.c:84:46
	movq	(%rbx), %rdx
	movl	8(%rdx), %ecx
	movzbl	%cl, %esi
Ltmp14:
	cmpl	$4, %esi
	jne	LBB0_5
Ltmp15:
## BB#4:
	##DEBUG_VALUE: luaV_tonumber_:n <- %R14
	shrl	$24, %ecx
	jmp	LBB0_6
Ltmp16:
LBB0_5:
	##DEBUG_VALUE: luaV_tonumber_:n <- %R14
	movq	16(%rdx), %rcx
Ltmp17:
LBB0_6:
	##DEBUG_VALUE: luaV_tonumber_:n <- %R14
	.loc	1 84 57                 ## /Users/dylan/github/ravi/src/lvm.c:84:57
	incq	%rcx
Ltmp18:
	.loc	1 83 12 is_stmt 1       ## /Users/dylan/github/ravi/src/lvm.c:83:12
	cmpq	%rcx, %rax
	jne	LBB0_11
Ltmp19:
## BB#7:
	##DEBUG_VALUE: luaV_tonumber_:n <- %R14
	.loc	1 85 10                 ## /Users/dylan/github/ravi/src/lvm.c:85:10
	cmpl	$19, -32(%rbp)
	movq	-40(%rbp), %rax
	jne	LBB0_9
Ltmp20:
## BB#8:
	##DEBUG_VALUE: luaV_tonumber_:n <- %R14
	cvtsi2sdq	%rax, %xmm0
	jmp	LBB0_10
Ltmp21:
LBB0_11:
	.loc	1 90 1                  ## /Users/dylan/github/ravi/src/lvm.c:90:1
	movl	%r15d, %eax
	addq	$24, %rsp
	popq	%rbx
	popq	%r14
	popq	%r15
	popq	%rbp
	retq
LBB0_9:                                 ## %select.false
Ltmp22:
	##DEBUG_VALUE: luaV_tonumber_:n <- %R14
	.loc	1 85 10                 ## /Users/dylan/github/ravi/src/lvm.c:85:10
	movd	%rax, %xmm0
	jmp	LBB0_10
Ltmp23:
Lfunc_end0:
	.cfi_endproc

	.section	__TEXT,__literal8,8byte_literals
	.align	3
LCPI1_0:
	.quad	4607182418800017408     ## double 1
LCPI1_1:
	.quad	-4332462841530417152    ## double -9.2233720368547758E+18
LCPI1_2:
	.quad	4890909195324358656     ## double 9.2233720368547758E+18
	.section	__TEXT,__text,regular,pure_instructions
	.globl	_luaV_tointeger
	.align	4, 0x90
_luaV_tointeger:                        ## @luaV_tointeger
Lfunc_begin1:
	.loc	1 99 0                  ## /Users/dylan/github/ravi/src/lvm.c:99:0
	.cfi_startproc
## BB#0:
	pushq	%rbp
Ltmp24:
	.cfi_def_cfa_offset 16
Ltmp25:
	.cfi_offset %rbp, -16
	movq	%rsp, %rbp
Ltmp26:
	.cfi_def_cfa_register %rbp
	pushq	%r15
	pushq	%r14
	pushq	%r13
	pushq	%r12
	pushq	%rbx
	subq	$24, %rsp
Ltmp27:
	.cfi_offset %rbx, -56
Ltmp28:
	.cfi_offset %r12, -48
Ltmp29:
	.cfi_offset %r13, -40
Ltmp30:
	.cfi_offset %r14, -32
Ltmp31:
	.cfi_offset %r15, -24
	##DEBUG_VALUE: luaV_tointeger:obj <- %RDI
	##DEBUG_VALUE: luaV_tointeger:p <- %RSI
	##DEBUG_VALUE: luaV_tointeger:mode <- %EDX
	movl	%edx, %r15d
Ltmp32:
	##DEBUG_VALUE: luaV_tointeger:mode <- %R15D
	movq	%rsi, %r14
Ltmp33:
	##DEBUG_VALUE: luaV_tointeger:p <- %R14
	movq	%rdi, %rbx
Ltmp34:
	##DEBUG_VALUE: luaV_tointeger:obj <- %RBX
	leaq	-56(%rbp), %r12
	xorl	%r13d, %r13d
Ltmp35:
	.align	4, 0x90
LBB1_1:                                 ## =>This Inner Loop Header: Depth=1
	##DEBUG_VALUE: luaV_tointeger:p <- %R14
	##DEBUG_VALUE: luaV_tointeger:mode <- %R15D
	.loc	1 102 7 prologue_end    ## /Users/dylan/github/ravi/src/lvm.c:102:7
	movl	8(%rbx), %eax
Ltmp36:
	.loc	1 102 7 is_stmt 0       ## /Users/dylan/github/ravi/src/lvm.c:102:7
	cmpl	$19, %eax
	je	LBB1_11
Ltmp37:
## BB#2:                                ##   in Loop: Header=BB1_1 Depth=1
	##DEBUG_VALUE: luaV_tointeger:p <- %R14
	##DEBUG_VALUE: luaV_tointeger:mode <- %R15D
	cmpl	$3, %eax
	je	LBB1_3
Ltmp38:
## BB#12:                               ##   in Loop: Header=BB1_1 Depth=1
	##DEBUG_VALUE: luaV_tointeger:p <- %R14
	##DEBUG_VALUE: luaV_tointeger:mode <- %R15D
	.loc	1 116 12 is_stmt 1      ## /Users/dylan/github/ravi/src/lvm.c:116:12
	andl	$15, %eax
	.loc	1 116 25 is_stmt 0      ## /Users/dylan/github/ravi/src/lvm.c:116:25
	cmpl	$4, %eax
	jne	LBB1_17
Ltmp39:
## BB#13:                               ##   in Loop: Header=BB1_1 Depth=1
	##DEBUG_VALUE: luaV_tointeger:p <- %R14
	##DEBUG_VALUE: luaV_tointeger:mode <- %R15D
	.loc	1 117 26 is_stmt 1      ## /Users/dylan/github/ravi/src/lvm.c:117:26
	movq	(%rbx), %rdi
	addq	$24, %rdi
Ltmp40:
	##DEBUG_VALUE: luaV_tointeger:v <- [%R12+0]
	.loc	1 117 13 is_stmt 0      ## /Users/dylan/github/ravi/src/lvm.c:117:13
	movq	%r12, %rsi
	callq	_luaO_str2num
	.loc	1 117 46                ## /Users/dylan/github/ravi/src/lvm.c:117:46
	movq	(%rbx), %rdx
	movl	8(%rdx), %ecx
	movzbl	%cl, %esi
	cmpl	$4, %esi
	jne	LBB1_15
Ltmp41:
## BB#14:                               ##   in Loop: Header=BB1_1 Depth=1
	##DEBUG_VALUE: luaV_tointeger:p <- %R14
	##DEBUG_VALUE: luaV_tointeger:mode <- %R15D
	##DEBUG_VALUE: luaV_tointeger:v <- [%R12+0]
	shrl	$24, %ecx
	jmp	LBB1_16
Ltmp42:
	.align	4, 0x90
LBB1_15:                                ##   in Loop: Header=BB1_1 Depth=1
	##DEBUG_VALUE: luaV_tointeger:p <- %R14
	##DEBUG_VALUE: luaV_tointeger:mode <- %R15D
	##DEBUG_VALUE: luaV_tointeger:v <- [%R12+0]
	movq	16(%rdx), %rcx
Ltmp43:
LBB1_16:                                ##   in Loop: Header=BB1_1 Depth=1
	##DEBUG_VALUE: luaV_tointeger:p <- %R14
	##DEBUG_VALUE: luaV_tointeger:mode <- %R15D
	##DEBUG_VALUE: luaV_tointeger:v <- [%R12+0]
	.loc	1 117 57                ## /Users/dylan/github/ravi/src/lvm.c:117:57
	incq	%rcx
	.loc	1 117 43                ## /Users/dylan/github/ravi/src/lvm.c:117:43
	cmpq	%rcx, %rax
	movq	%r12, %rbx
	je	LBB1_1
	jmp	LBB1_17
Ltmp44:
LBB1_11:
	##DEBUG_VALUE: luaV_tointeger:p <- %R14
	.loc	1 113 10 is_stmt 1      ## /Users/dylan/github/ravi/src/lvm.c:113:10
	movq	(%rbx), %rax
	jmp	LBB1_10
Ltmp45:
LBB1_3:
	##DEBUG_VALUE: luaV_tointeger:p <- %R14
	##DEBUG_VALUE: luaV_tointeger:mode <- %R15D
	.loc	1 103 20                ## /Users/dylan/github/ravi/src/lvm.c:103:20
	movsd	(%rbx), %xmm0           ## xmm0 = mem[0],zero
Ltmp46:
	##DEBUG_VALUE: n <- %XMM0
	.loc	1 104 20                ## /Users/dylan/github/ravi/src/lvm.c:104:20
	movsd	%xmm0, -64(%rbp)        ## 8-byte Spill
Ltmp47:
	##DEBUG_VALUE: n <- [%RBP+-64]
	callq	_floor
Ltmp48:
	##DEBUG_VALUE: f <- %XMM0
	.loc	1 105 9                 ## /Users/dylan/github/ravi/src/lvm.c:105:9
	movsd	-64(%rbp), %xmm1        ## 8-byte Reload
                                        ## xmm1 = mem[0],zero
	ucomisd	%xmm0, %xmm1
	jne	LBB1_4
	jnp	LBB1_7
Ltmp49:
LBB1_4:
	##DEBUG_VALUE: luaV_tointeger:p <- %R14
	##DEBUG_VALUE: luaV_tointeger:mode <- %R15D
	##DEBUG_VALUE: f <- %XMM0
	xorl	%r13d, %r13d
	.loc	1 106 16                ## /Users/dylan/github/ravi/src/lvm.c:106:16
Ltmp50:
	testl	%r15d, %r15d
	je	LBB1_17
Ltmp51:
## BB#5:
	##DEBUG_VALUE: luaV_tointeger:p <- %R14
	##DEBUG_VALUE: luaV_tointeger:mode <- %R15D
	##DEBUG_VALUE: f <- %XMM0
	.loc	1 107 21                ## /Users/dylan/github/ravi/src/lvm.c:107:21
	cmpl	$1, %r15d
	jle	LBB1_7
Ltmp52:
## BB#6:
	##DEBUG_VALUE: luaV_tointeger:p <- %R14
	##DEBUG_VALUE: f <- %XMM0
	.loc	1 108 11                ## /Users/dylan/github/ravi/src/lvm.c:108:11
	addsd	LCPI1_0(%rip), %xmm0
Ltmp53:
LBB1_7:
	##DEBUG_VALUE: luaV_tointeger:p <- %R14
	xorl	%r13d, %r13d
	.loc	1 110 12                ## /Users/dylan/github/ravi/src/lvm.c:110:12
	ucomisd	LCPI1_1(%rip), %xmm0
	jb	LBB1_17
Ltmp54:
## BB#8:
	##DEBUG_VALUE: luaV_tointeger:p <- %R14
	movsd	LCPI1_2(%rip), %xmm1    ## xmm1 = mem[0],zero
	ucomisd	%xmm0, %xmm1
	jbe	LBB1_17
Ltmp55:
## BB#9:
	##DEBUG_VALUE: luaV_tointeger:p <- %R14
	cvttsd2si	%xmm0, %rax
Ltmp56:
LBB1_10:                                ## %.loopexit
	movq	%rax, (%r14)
	movl	$1, %r13d
Ltmp57:
LBB1_17:                                ## %.loopexit
	.loc	1 122 1                 ## /Users/dylan/github/ravi/src/lvm.c:122:1
	movl	%r13d, %eax
	addq	$24, %rsp
	popq	%rbx
	popq	%r12
	popq	%r13
	popq	%r14
	popq	%r15
	popq	%rbp
	retq
Ltmp58:
Lfunc_end1:
	.cfi_endproc

	.section	__TEXT,__literal8,8byte_literals
	.align	3
LCPI2_0:
	.quad	-4332462841530417152    ## double -9.2233720368547758E+18
LCPI2_1:
	.quad	4890909195324358656     ## double 9.2233720368547758E+18
	.section	__TEXT,__text,regular,pure_instructions
	.globl	_luaV_tointeger_
	.align	4, 0x90
_luaV_tointeger_:                       ## @luaV_tointeger_
Lfunc_begin2:
	.loc	1 128 0                 ## /Users/dylan/github/ravi/src/lvm.c:128:0
	.cfi_startproc
## BB#0:
	pushq	%rbp
Ltmp59:
	.cfi_def_cfa_offset 16
Ltmp60:
	.cfi_offset %rbp, -16
	movq	%rsp, %rbp
Ltmp61:
	.cfi_def_cfa_register %rbp
	pushq	%r15
	pushq	%r14
	pushq	%r12
	pushq	%rbx
	subq	$32, %rsp
Ltmp62:
	.cfi_offset %rbx, -48
Ltmp63:
	.cfi_offset %r12, -40
Ltmp64:
	.cfi_offset %r14, -32
Ltmp65:
	.cfi_offset %r15, -24
	##DEBUG_VALUE: luaV_tointeger_:obj <- %RDI
	##DEBUG_VALUE: luaV_tointeger_:p <- %RSI
	movq	%rsi, %r14
Ltmp66:
	##DEBUG_VALUE: luaV_tointeger_:p <- %R14
	movq	%rdi, %rbx
Ltmp67:
	##DEBUG_VALUE: luaV_tointeger:mode <- 0
	##DEBUG_VALUE: luaV_tointeger_:obj <- %RBX
	leaq	-48(%rbp), %r15
	xorl	%r12d, %r12d
Ltmp68:
	.align	4, 0x90
LBB2_1:                                 ## =>This Inner Loop Header: Depth=1
	##DEBUG_VALUE: luaV_tointeger_:p <- %R14
	##DEBUG_VALUE: luaV_tointeger:mode <- 0
	.loc	1 102 7 prologue_end    ## /Users/dylan/github/ravi/src/lvm.c:102:7
	movl	8(%rbx), %eax
Ltmp69:
	.loc	1 102 7 is_stmt 0       ## /Users/dylan/github/ravi/src/lvm.c:102:7
	cmpl	$19, %eax
	je	LBB2_8
Ltmp70:
## BB#2:                                ##   in Loop: Header=BB2_1 Depth=1
	##DEBUG_VALUE: luaV_tointeger_:p <- %R14
	cmpl	$3, %eax
	je	LBB2_3
Ltmp71:
## BB#9:                                ##   in Loop: Header=BB2_1 Depth=1
	##DEBUG_VALUE: luaV_tointeger_:p <- %R14
	.loc	1 116 12 is_stmt 1      ## /Users/dylan/github/ravi/src/lvm.c:116:12
	andl	$15, %eax
	.loc	1 116 25 is_stmt 0      ## /Users/dylan/github/ravi/src/lvm.c:116:25
	cmpl	$4, %eax
	jne	LBB2_14
Ltmp72:
## BB#10:                               ##   in Loop: Header=BB2_1 Depth=1
	##DEBUG_VALUE: luaV_tointeger_:p <- %R14
	.loc	1 117 26 is_stmt 1      ## /Users/dylan/github/ravi/src/lvm.c:117:26
	movq	(%rbx), %rdi
	addq	$24, %rdi
Ltmp73:
	##DEBUG_VALUE: luaV_tointeger:v <- [%R15+0]
	.loc	1 117 13 is_stmt 0      ## /Users/dylan/github/ravi/src/lvm.c:117:13
	movq	%r15, %rsi
	callq	_luaO_str2num
	.loc	1 117 46                ## /Users/dylan/github/ravi/src/lvm.c:117:46
	movq	(%rbx), %rdx
	movl	8(%rdx), %ecx
	movzbl	%cl, %esi
	cmpl	$4, %esi
	jne	LBB2_12
Ltmp74:
## BB#11:                               ##   in Loop: Header=BB2_1 Depth=1
	##DEBUG_VALUE: luaV_tointeger_:p <- %R14
	##DEBUG_VALUE: luaV_tointeger:v <- [%R15+0]
	shrl	$24, %ecx
	jmp	LBB2_13
Ltmp75:
	.align	4, 0x90
LBB2_12:                                ##   in Loop: Header=BB2_1 Depth=1
	##DEBUG_VALUE: luaV_tointeger_:p <- %R14
	##DEBUG_VALUE: luaV_tointeger:v <- [%R15+0]
	movq	16(%rdx), %rcx
Ltmp76:
LBB2_13:                                ##   in Loop: Header=BB2_1 Depth=1
	##DEBUG_VALUE: luaV_tointeger_:p <- %R14
	##DEBUG_VALUE: luaV_tointeger:v <- [%R15+0]
	.loc	1 117 57                ## /Users/dylan/github/ravi/src/lvm.c:117:57
	incq	%rcx
	.loc	1 117 43                ## /Users/dylan/github/ravi/src/lvm.c:117:43
	cmpq	%rcx, %rax
Ltmp77:
	.loc	1 129 10 is_stmt 1      ## /Users/dylan/github/ravi/src/lvm.c:129:10
	movq	%r15, %rbx
	je	LBB2_1
	jmp	LBB2_14
Ltmp78:
LBB2_8:
	##DEBUG_VALUE: luaV_tointeger_:p <- %R14
	##DEBUG_VALUE: luaV_tointeger:mode <- 0
	.loc	1 113 10                ## /Users/dylan/github/ravi/src/lvm.c:113:10
	movq	(%rbx), %rax
	jmp	LBB2_7
Ltmp79:
LBB2_3:
	##DEBUG_VALUE: luaV_tointeger_:p <- %R14
	.loc	1 103 20                ## /Users/dylan/github/ravi/src/lvm.c:103:20
	movsd	(%rbx), %xmm0           ## xmm0 = mem[0],zero
Ltmp80:
	##DEBUG_VALUE: n <- %XMM0
	.loc	1 104 20                ## /Users/dylan/github/ravi/src/lvm.c:104:20
	movsd	%xmm0, -56(%rbp)        ## 8-byte Spill
Ltmp81:
	##DEBUG_VALUE: n <- [%RBP+-56]
	callq	_floor
Ltmp82:
	##DEBUG_VALUE: f <- %XMM0
	xorl	%r12d, %r12d
	.loc	1 105 9                 ## /Users/dylan/github/ravi/src/lvm.c:105:9
	movsd	-56(%rbp), %xmm1        ## 8-byte Reload
                                        ## xmm1 = mem[0],zero
	ucomisd	%xmm0, %xmm1
	jne	LBB2_14
	jp	LBB2_14
Ltmp83:
## BB#4:
	##DEBUG_VALUE: luaV_tointeger_:p <- %R14
	##DEBUG_VALUE: f <- %XMM0
	.loc	1 110 12                ## /Users/dylan/github/ravi/src/lvm.c:110:12
	ucomisd	LCPI2_0(%rip), %xmm0
	jb	LBB2_14
Ltmp84:
## BB#5:
	##DEBUG_VALUE: luaV_tointeger_:p <- %R14
	movsd	LCPI2_1(%rip), %xmm1    ## xmm1 = mem[0],zero
	ucomisd	%xmm0, %xmm1
	jbe	LBB2_14
Ltmp85:
## BB#6:
	##DEBUG_VALUE: luaV_tointeger_:p <- %R14
	cvttsd2si	%xmm0, %rax
Ltmp86:
LBB2_7:                                 ## %luaV_tointeger.exit
	movq	%rax, (%r14)
	movl	$1, %r12d
Ltmp87:
LBB2_14:                                ## %luaV_tointeger.exit
	.loc	1 129 3                 ## /Users/dylan/github/ravi/src/lvm.c:129:3
	movl	%r12d, %eax
	addq	$32, %rsp
	popq	%rbx
	popq	%r12
	popq	%r14
	popq	%r15
	popq	%rbp
	retq
Ltmp88:
Lfunc_end2:
	.cfi_endproc

	.section	__TEXT,__literal8,8byte_literals
	.align	3
LCPI3_0:
	.quad	4607182418800017408     ## double 1
LCPI3_1:
	.quad	-4332462841530417152    ## double -9.2233720368547758E+18
LCPI3_2:
	.quad	4890909195324358656     ## double 9.2233720368547758E+18
	.section	__TEXT,__text,regular,pure_instructions
	.globl	_luaV_forlimit
	.align	4, 0x90
_luaV_forlimit:                         ## @luaV_forlimit
Lfunc_begin3:
	.loc	1 149 0                 ## /Users/dylan/github/ravi/src/lvm.c:149:0
	.cfi_startproc
## BB#0:
	pushq	%rbp
Ltmp89:
	.cfi_def_cfa_offset 16
Ltmp90:
	.cfi_offset %rbp, -16
	movq	%rsp, %rbp
Ltmp91:
	.cfi_def_cfa_register %rbp
	pushq	%r15
	pushq	%r14
	pushq	%r13
	pushq	%r12
	pushq	%rbx
	subq	$40, %rsp
Ltmp92:
	.cfi_offset %rbx, -56
Ltmp93:
	.cfi_offset %r12, -48
Ltmp94:
	.cfi_offset %r13, -40
Ltmp95:
	.cfi_offset %r14, -32
Ltmp96:
	.cfi_offset %r15, -24
	##DEBUG_VALUE: luaV_forlimit:obj <- %RDI
	##DEBUG_VALUE: luaV_forlimit:p <- %RSI
	##DEBUG_VALUE: luaV_forlimit:step <- %RDX
	##DEBUG_VALUE: luaV_forlimit:stopnow <- %RCX
	movq	%rcx, %r12
Ltmp97:
	##DEBUG_VALUE: luaV_forlimit:stopnow <- %R12
	movq	%rdx, -64(%rbp)         ## 8-byte Spill
Ltmp98:
	##DEBUG_VALUE: luaV_forlimit:step <- [%RBP+-64]
	movq	%rsi, %r14
Ltmp99:
	##DEBUG_VALUE: luaV_forlimit:p <- %R14
	movq	%rdi, %r13
Ltmp100:
	##DEBUG_VALUE: luaV_forlimit:obj <- %R13
	.loc	1 150 12 prologue_end   ## /Users/dylan/github/ravi/src/lvm.c:150:12
	movl	$0, (%r12)
	leaq	-56(%rbp), %r15
	.loc	1 151 8                 ## /Users/dylan/github/ravi/src/lvm.c:151:8
Ltmp101:
	movq	%r13, %rbx
Ltmp102:
	.align	4, 0x90
LBB3_1:                                 ## =>This Inner Loop Header: Depth=1
	##DEBUG_VALUE: luaV_forlimit:obj <- %R13
	##DEBUG_VALUE: luaV_forlimit:p <- %R14
	##DEBUG_VALUE: luaV_forlimit:step <- [%RBP+-64]
	##DEBUG_VALUE: luaV_forlimit:stopnow <- %R12
	.loc	1 102 7                 ## /Users/dylan/github/ravi/src/lvm.c:102:7
	movl	8(%rbx), %eax
Ltmp103:
	.loc	1 102 7 is_stmt 0       ## /Users/dylan/github/ravi/src/lvm.c:102:7
	cmpl	$19, %eax
	je	LBB3_15
Ltmp104:
## BB#2:                                ##   in Loop: Header=BB3_1 Depth=1
	##DEBUG_VALUE: luaV_forlimit:obj <- %R13
	##DEBUG_VALUE: luaV_forlimit:p <- %R14
	##DEBUG_VALUE: luaV_forlimit:step <- [%RBP+-64]
	##DEBUG_VALUE: luaV_forlimit:stopnow <- %R12
	cmpl	$3, %eax
	je	LBB3_3
Ltmp105:
## BB#8:                                ##   in Loop: Header=BB3_1 Depth=1
	##DEBUG_VALUE: luaV_forlimit:obj <- %R13
	##DEBUG_VALUE: luaV_forlimit:p <- %R14
	##DEBUG_VALUE: luaV_forlimit:step <- [%RBP+-64]
	##DEBUG_VALUE: luaV_forlimit:stopnow <- %R12
	.loc	1 116 12 is_stmt 1      ## /Users/dylan/github/ravi/src/lvm.c:116:12
	andl	$15, %eax
	.loc	1 116 25 is_stmt 0      ## /Users/dylan/github/ravi/src/lvm.c:116:25
	cmpl	$4, %eax
	jne	LBB3_13
Ltmp106:
## BB#9:                                ##   in Loop: Header=BB3_1 Depth=1
	##DEBUG_VALUE: luaV_forlimit:obj <- %R13
	##DEBUG_VALUE: luaV_forlimit:p <- %R14
	##DEBUG_VALUE: luaV_forlimit:step <- [%RBP+-64]
	##DEBUG_VALUE: luaV_forlimit:stopnow <- %R12
	.loc	1 117 26 is_stmt 1      ## /Users/dylan/github/ravi/src/lvm.c:117:26
	movq	(%rbx), %rdi
	addq	$24, %rdi
Ltmp107:
	##DEBUG_VALUE: luaV_tointeger:v <- [%R15+0]
	.loc	1 117 13 is_stmt 0      ## /Users/dylan/github/ravi/src/lvm.c:117:13
	movq	%r15, %rsi
	callq	_luaO_str2num
	.loc	1 117 46                ## /Users/dylan/github/ravi/src/lvm.c:117:46
	movq	(%rbx), %rdx
	movl	8(%rdx), %ecx
	movzbl	%cl, %esi
	cmpl	$4, %esi
	jne	LBB3_11
Ltmp108:
## BB#10:                               ##   in Loop: Header=BB3_1 Depth=1
	##DEBUG_VALUE: luaV_forlimit:obj <- %R13
	##DEBUG_VALUE: luaV_forlimit:p <- %R14
	##DEBUG_VALUE: luaV_forlimit:step <- [%RBP+-64]
	##DEBUG_VALUE: luaV_forlimit:stopnow <- %R12
	##DEBUG_VALUE: luaV_tointeger:v <- [%R15+0]
	shrl	$24, %ecx
	jmp	LBB3_12
Ltmp109:
	.align	4, 0x90
LBB3_11:                                ##   in Loop: Header=BB3_1 Depth=1
	##DEBUG_VALUE: luaV_forlimit:obj <- %R13
	##DEBUG_VALUE: luaV_forlimit:p <- %R14
	##DEBUG_VALUE: luaV_forlimit:step <- [%RBP+-64]
	##DEBUG_VALUE: luaV_forlimit:stopnow <- %R12
	##DEBUG_VALUE: luaV_tointeger:v <- [%R15+0]
	movq	16(%rdx), %rcx
Ltmp110:
LBB3_12:                                ##   in Loop: Header=BB3_1 Depth=1
	##DEBUG_VALUE: luaV_forlimit:obj <- %R13
	##DEBUG_VALUE: luaV_forlimit:p <- %R14
	##DEBUG_VALUE: luaV_forlimit:step <- [%RBP+-64]
	##DEBUG_VALUE: luaV_forlimit:stopnow <- %R12
	##DEBUG_VALUE: luaV_tointeger:v <- [%R15+0]
	.loc	1 117 57                ## /Users/dylan/github/ravi/src/lvm.c:117:57
	incq	%rcx
	.loc	1 117 43                ## /Users/dylan/github/ravi/src/lvm.c:117:43
	cmpq	%rcx, %rax
Ltmp111:
	.loc	1 151 8 is_stmt 1       ## /Users/dylan/github/ravi/src/lvm.c:151:8
	movq	%r15, %rbx
	je	LBB3_1
	jmp	LBB3_13
Ltmp112:
LBB3_15:
	##DEBUG_VALUE: luaV_forlimit:p <- %R14
	.loc	1 113 10                ## /Users/dylan/github/ravi/src/lvm.c:113:10
	movq	(%rbx), %rax
	jmp	LBB3_16
Ltmp113:
LBB3_3:
	##DEBUG_VALUE: luaV_forlimit:obj <- %R13
	##DEBUG_VALUE: luaV_forlimit:p <- %R14
	##DEBUG_VALUE: luaV_forlimit:step <- [%RBP+-64]
	##DEBUG_VALUE: luaV_forlimit:stopnow <- %R12
	.loc	1 103 20                ## /Users/dylan/github/ravi/src/lvm.c:103:20
	movsd	(%rbx), %xmm0           ## xmm0 = mem[0],zero
Ltmp114:
	##DEBUG_VALUE: n <- %XMM0
	.loc	1 104 20                ## /Users/dylan/github/ravi/src/lvm.c:104:20
	movsd	%xmm0, -72(%rbp)        ## 8-byte Spill
Ltmp115:
	##DEBUG_VALUE: n <- [%RBP+-72]
	callq	_floor
Ltmp116:
	##DEBUG_VALUE: f <- %XMM0
	cmpq	$0, -64(%rbp)           ## 8-byte Folded Reload
	jns	LBB3_5
Ltmp117:
## BB#4:
	##DEBUG_VALUE: luaV_forlimit:obj <- %R13
	##DEBUG_VALUE: luaV_forlimit:p <- %R14
	##DEBUG_VALUE: luaV_forlimit:step <- [%RBP+-64]
	##DEBUG_VALUE: luaV_forlimit:stopnow <- %R12
	##DEBUG_VALUE: n <- [%RBP+-72]
	##DEBUG_VALUE: f <- %XMM0
	movsd	LCPI3_0(%rip), %xmm1    ## xmm1 = mem[0],zero
	.loc	1 108 11                ## /Users/dylan/github/ravi/src/lvm.c:108:11
Ltmp118:
	addsd	%xmm0, %xmm1
Ltmp119:
	##DEBUG_VALUE: f <- %XMM1
	movsd	-72(%rbp), %xmm2        ## 8-byte Reload
                                        ## xmm2 = mem[0],zero
Ltmp120:
	##DEBUG_VALUE: n <- %XMM2
	.loc	1 105 9                 ## /Users/dylan/github/ravi/src/lvm.c:105:9
	cmpneqsd	%xmm0, %xmm2
Ltmp121:
	andpd	%xmm2, %xmm1
Ltmp122:
	andnpd	%xmm0, %xmm2
	orpd	%xmm1, %xmm2
	movapd	%xmm2, %xmm0
Ltmp123:
LBB3_5:
	##DEBUG_VALUE: luaV_forlimit:obj <- %R13
	##DEBUG_VALUE: luaV_forlimit:p <- %R14
	##DEBUG_VALUE: luaV_forlimit:step <- [%RBP+-64]
	##DEBUG_VALUE: luaV_forlimit:stopnow <- %R12
	.loc	1 110 12                ## /Users/dylan/github/ravi/src/lvm.c:110:12
	ucomisd	LCPI3_1(%rip), %xmm0
	jb	LBB3_13
Ltmp124:
## BB#6:
	##DEBUG_VALUE: luaV_forlimit:obj <- %R13
	##DEBUG_VALUE: luaV_forlimit:p <- %R14
	##DEBUG_VALUE: luaV_forlimit:step <- [%RBP+-64]
	##DEBUG_VALUE: luaV_forlimit:stopnow <- %R12
	movsd	LCPI3_2(%rip), %xmm1    ## xmm1 = mem[0],zero
	ucomisd	%xmm0, %xmm1
	jbe	LBB3_13
Ltmp125:
## BB#7:
	##DEBUG_VALUE: luaV_forlimit:p <- %R14
	cvttsd2si	%xmm0, %rax
Ltmp126:
LBB3_16:                                ## %luaV_tointeger.exit
	##DEBUG_VALUE: luaV_forlimit:p <- %R14
	movq	%rax, (%r14)
	movl	$1, %eax
	jmp	LBB3_34
Ltmp127:
LBB3_13:                                ## %.loopexit
	##DEBUG_VALUE: luaV_forlimit:obj <- %R13
	##DEBUG_VALUE: luaV_forlimit:p <- %R14
	##DEBUG_VALUE: luaV_forlimit:step <- [%RBP+-64]
	##DEBUG_VALUE: luaV_forlimit:stopnow <- %R12
	.loc	1 79 7                  ## /Users/dylan/github/ravi/src/lvm.c:79:7
	movl	8(%r13), %eax
Ltmp128:
	.loc	1 153 9                 ## /Users/dylan/github/ravi/src/lvm.c:153:9
	cmpl	$3, %eax
	jne	LBB3_17
Ltmp129:
## BB#14:
	##DEBUG_VALUE: luaV_forlimit:obj <- %R13
	##DEBUG_VALUE: luaV_forlimit:p <- %R14
	##DEBUG_VALUE: luaV_forlimit:step <- [%RBP+-64]
	##DEBUG_VALUE: luaV_forlimit:stopnow <- %R12
	.loc	1 153 10 is_stmt 0      ## /Users/dylan/github/ravi/src/lvm.c:153:10
	movq	(%r13), %rcx
Ltmp130:
LBB3_28:
	##DEBUG_VALUE: luaV_forlimit:p <- %R14
	##DEBUG_VALUE: luaV_forlimit:step <- [%RBP+-64]
	##DEBUG_VALUE: luaV_forlimit:stopnow <- %R12
	movabsq	$9223372036854775807, %rax ## imm = 0x7FFFFFFFFFFFFFFF
	.loc	1 155 9 is_stmt 1       ## /Users/dylan/github/ravi/src/lvm.c:155:9
Ltmp131:
	movd	%rcx, %xmm0
	xorpd	%xmm1, %xmm1
Ltmp132:
	.loc	1 155 9 is_stmt 0       ## /Users/dylan/github/ravi/src/lvm.c:155:9
	ucomisd	%xmm1, %xmm0
	jbe	LBB3_31
Ltmp133:
## BB#29:
	##DEBUG_VALUE: luaV_forlimit:p <- %R14
	##DEBUG_VALUE: luaV_forlimit:step <- [%RBP+-64]
	##DEBUG_VALUE: luaV_forlimit:stopnow <- %R12
	.loc	1 156 10 is_stmt 1      ## /Users/dylan/github/ravi/src/lvm.c:156:10
	movq	%rax, (%r14)
	movl	$1, %eax
	.loc	1 157 11                ## /Users/dylan/github/ravi/src/lvm.c:157:11
	cmpq	$0, -64(%rbp)           ## 8-byte Folded Reload
	jns	LBB3_34
Ltmp134:
## BB#30:
	##DEBUG_VALUE: luaV_forlimit:stopnow <- %R12
	.loc	1 157 30 is_stmt 0      ## /Users/dylan/github/ravi/src/lvm.c:157:30
	movl	$1, (%r12)
	jmp	LBB3_34
Ltmp135:
LBB3_31:
	##DEBUG_VALUE: luaV_forlimit:p <- %R14
	##DEBUG_VALUE: luaV_forlimit:step <- [%RBP+-64]
	##DEBUG_VALUE: luaV_forlimit:stopnow <- %R12
	.loc	1 160 10 is_stmt 1      ## /Users/dylan/github/ravi/src/lvm.c:160:10
	incq	%rax
	movq	%rax, (%r14)
	movl	$1, %eax
	.loc	1 161 11                ## /Users/dylan/github/ravi/src/lvm.c:161:11
	cmpq	$0, -64(%rbp)           ## 8-byte Folded Reload
	js	LBB3_34
Ltmp136:
## BB#32:
	##DEBUG_VALUE: luaV_forlimit:stopnow <- %R12
	.loc	1 161 31 is_stmt 0      ## /Users/dylan/github/ravi/src/lvm.c:161:31
	movl	$1, (%r12)
Ltmp137:
LBB3_34:
	.loc	1 165 1 is_stmt 1       ## /Users/dylan/github/ravi/src/lvm.c:165:1
	addq	$40, %rsp
	popq	%rbx
	popq	%r12
	popq	%r13
	popq	%r14
	popq	%r15
	popq	%rbp
	retq
LBB3_17:
Ltmp138:
	##DEBUG_VALUE: luaV_forlimit:obj <- %R13
	##DEBUG_VALUE: luaV_forlimit:p <- %R14
	##DEBUG_VALUE: luaV_forlimit:step <- [%RBP+-64]
	##DEBUG_VALUE: luaV_forlimit:stopnow <- %R12
	.loc	1 79 7                  ## /Users/dylan/github/ravi/src/lvm.c:79:7
	cmpl	$19, %eax
	jne	LBB3_19
Ltmp139:
## BB#18:
	##DEBUG_VALUE: luaV_forlimit:obj <- %R13
	##DEBUG_VALUE: luaV_forlimit:p <- %R14
	##DEBUG_VALUE: luaV_forlimit:step <- [%RBP+-64]
	##DEBUG_VALUE: luaV_forlimit:stopnow <- %R12
	.loc	1 80 10                 ## /Users/dylan/github/ravi/src/lvm.c:80:10
	xorps	%xmm0, %xmm0
	cvtsi2sdq	(%r13), %xmm0
Ltmp140:
LBB3_27:                                ## %luaV_tonumber_.exit
	##DEBUG_VALUE: luaV_forlimit:p <- %R14
	##DEBUG_VALUE: luaV_forlimit:step <- [%RBP+-64]
	##DEBUG_VALUE: luaV_forlimit:stopnow <- %R12
	.loc	1 80 8 is_stmt 0        ## /Users/dylan/github/ravi/src/lvm.c:80:8
	movd	%xmm0, %rcx
	jmp	LBB3_28
Ltmp141:
LBB3_19:
	##DEBUG_VALUE: luaV_forlimit:obj <- %R13
	##DEBUG_VALUE: luaV_forlimit:p <- %R14
	##DEBUG_VALUE: luaV_forlimit:step <- [%RBP+-64]
	##DEBUG_VALUE: luaV_forlimit:stopnow <- %R12
	.loc	1 83 12 is_stmt 1       ## /Users/dylan/github/ravi/src/lvm.c:83:12
	andl	$15, %eax
	.loc	1 83 25 is_stmt 0       ## /Users/dylan/github/ravi/src/lvm.c:83:25
	cmpl	$4, %eax
	jne	LBB3_33
Ltmp142:
## BB#20:
	##DEBUG_VALUE: luaV_forlimit:obj <- %R13
	##DEBUG_VALUE: luaV_forlimit:p <- %R14
	##DEBUG_VALUE: luaV_forlimit:step <- [%RBP+-64]
	##DEBUG_VALUE: luaV_forlimit:stopnow <- %R12
	.loc	1 84 26 is_stmt 1       ## /Users/dylan/github/ravi/src/lvm.c:84:26
	movq	(%r13), %rdi
Ltmp143:
	##DEBUG_VALUE: luaV_tonumber_:obj <- %R13
	addq	$24, %rdi
	leaq	-56(%rbp), %rsi
Ltmp144:
	##DEBUG_VALUE: luaV_tonumber_:v <- [%RSI+0]
	.loc	1 84 13 is_stmt 0       ## /Users/dylan/github/ravi/src/lvm.c:84:13
	callq	_luaO_str2num
	.loc	1 84 46                 ## /Users/dylan/github/ravi/src/lvm.c:84:46
	movq	(%r13), %rdx
	movl	8(%rdx), %ecx
	movzbl	%cl, %esi
Ltmp145:
	cmpl	$4, %esi
	jne	LBB3_22
Ltmp146:
## BB#21:
	##DEBUG_VALUE: luaV_forlimit:p <- %R14
	##DEBUG_VALUE: luaV_forlimit:step <- [%RBP+-64]
	##DEBUG_VALUE: luaV_forlimit:stopnow <- %R12
	shrl	$24, %ecx
	jmp	LBB3_23
Ltmp147:
LBB3_22:
	##DEBUG_VALUE: luaV_forlimit:p <- %R14
	##DEBUG_VALUE: luaV_forlimit:step <- [%RBP+-64]
	##DEBUG_VALUE: luaV_forlimit:stopnow <- %R12
	movq	16(%rdx), %rcx
Ltmp148:
LBB3_23:
	##DEBUG_VALUE: luaV_forlimit:p <- %R14
	##DEBUG_VALUE: luaV_forlimit:step <- [%RBP+-64]
	##DEBUG_VALUE: luaV_forlimit:stopnow <- %R12
	.loc	1 84 57                 ## /Users/dylan/github/ravi/src/lvm.c:84:57
	incq	%rcx
Ltmp149:
	.loc	1 83 12 is_stmt 1       ## /Users/dylan/github/ravi/src/lvm.c:83:12
	cmpq	%rcx, %rax
	jne	LBB3_33
Ltmp150:
## BB#24:
	##DEBUG_VALUE: luaV_forlimit:p <- %R14
	##DEBUG_VALUE: luaV_forlimit:step <- [%RBP+-64]
	##DEBUG_VALUE: luaV_forlimit:stopnow <- %R12
	.loc	1 85 10                 ## /Users/dylan/github/ravi/src/lvm.c:85:10
	cmpl	$19, -48(%rbp)
	movq	-56(%rbp), %rax
	jne	LBB3_26
Ltmp151:
## BB#25:
	##DEBUG_VALUE: luaV_forlimit:p <- %R14
	##DEBUG_VALUE: luaV_forlimit:step <- [%RBP+-64]
	##DEBUG_VALUE: luaV_forlimit:stopnow <- %R12
	cvtsi2sdq	%rax, %xmm0
	jmp	LBB3_27
Ltmp152:
LBB3_33:                                ## %.critedge
	xorl	%eax, %eax
	jmp	LBB3_34
LBB3_26:                                ## %select.false
Ltmp153:
	##DEBUG_VALUE: luaV_forlimit:p <- %R14
	##DEBUG_VALUE: luaV_forlimit:step <- [%RBP+-64]
	##DEBUG_VALUE: luaV_forlimit:stopnow <- %R12
	movd	%rax, %xmm0
	jmp	LBB3_27
Ltmp154:
Lfunc_end3:
	.cfi_endproc

	.globl	_luaV_finishget
	.align	4, 0x90
_luaV_finishget:                        ## @luaV_finishget
Lfunc_begin4:
	.loc	1 174 0                 ## /Users/dylan/github/ravi/src/lvm.c:174:0
	.cfi_startproc
## BB#0:
	pushq	%rbp
Ltmp155:
	.cfi_def_cfa_offset 16
Ltmp156:
	.cfi_offset %rbp, -16
	movq	%rsp, %rbp
Ltmp157:
	.cfi_def_cfa_register %rbp
	pushq	%r15
	pushq	%r14
	pushq	%r13
	pushq	%r12
	pushq	%rbx
	pushq	%rax
Ltmp158:
	.cfi_offset %rbx, -56
Ltmp159:
	.cfi_offset %r12, -48
Ltmp160:
	.cfi_offset %r13, -40
Ltmp161:
	.cfi_offset %r14, -32
Ltmp162:
	.cfi_offset %r15, -24
	##DEBUG_VALUE: luaV_finishget:L <- %RDI
	##DEBUG_VALUE: luaV_finishget:t <- %RSI
	##DEBUG_VALUE: luaV_finishget:key <- %RDX
	##DEBUG_VALUE: luaV_finishget:val <- %RCX
	##DEBUG_VALUE: luaV_finishget:slot <- %R8
Ltmp163:
	##DEBUG_VALUE: io1 <- %RCX
	movq	%r8, %rax
Ltmp164:
	##DEBUG_VALUE: luaV_finishget:slot <- %RAX
	movq	%rcx, -48(%rbp)         ## 8-byte Spill
Ltmp165:
	##DEBUG_VALUE: io1 <- [%RBP+-48]
	##DEBUG_VALUE: luaV_finishget:val <- [%RBP+-48]
	movq	%rdx, %r15
Ltmp166:
	##DEBUG_VALUE: luaV_finishget:key <- %R15
	movq	%rsi, %r13
Ltmp167:
	##DEBUG_VALUE: luaV_finishget:t <- %R13
	movq	%rdi, %r12
Ltmp168:
	##DEBUG_VALUE: luaV_finishget:L <- %R12
	xorl	%r14d, %r14d
Ltmp169:
	##DEBUG_VALUE: luaV_finishget:loop <- 0
	.align	4, 0x90
LBB4_1:                                 ## =>This Inner Loop Header: Depth=1
	##DEBUG_VALUE: luaV_finishget:L <- %R12
	##DEBUG_VALUE: luaV_finishget:key <- %R15
	##DEBUG_VALUE: luaV_finishget:val <- [%RBP+-48]
	##DEBUG_VALUE: luaV_finishget:loop <- 0
	.loc	1 178 9 prologue_end    ## /Users/dylan/github/ravi/src/lvm.c:178:9
	testq	%rax, %rax
	je	LBB4_2
Ltmp170:
## BB#4:                                ##   in Loop: Header=BB4_1 Depth=1
	##DEBUG_VALUE: luaV_finishget:L <- %R12
	##DEBUG_VALUE: luaV_finishget:key <- %R15
	##DEBUG_VALUE: luaV_finishget:val <- [%RBP+-48]
	##DEBUG_VALUE: luaV_finishget:loop <- 0
	.loc	1 187 12                ## /Users/dylan/github/ravi/src/lvm.c:187:12
	movq	(%r13), %rax
	movq	40(%rax), %rdi
	testq	%rdi, %rdi
	je	LBB4_15
Ltmp171:
## BB#5:                                ##   in Loop: Header=BB4_1 Depth=1
	##DEBUG_VALUE: luaV_finishget:L <- %R12
	##DEBUG_VALUE: luaV_finishget:key <- %R15
	##DEBUG_VALUE: luaV_finishget:val <- [%RBP+-48]
	##DEBUG_VALUE: luaV_finishget:loop <- 0
	testb	$1, 10(%rdi)
	jne	LBB4_15
Ltmp172:
## BB#6:                                ##   in Loop: Header=BB4_1 Depth=1
	##DEBUG_VALUE: luaV_finishget:L <- %R12
	##DEBUG_VALUE: luaV_finishget:key <- %R15
	##DEBUG_VALUE: luaV_finishget:val <- [%RBP+-48]
	##DEBUG_VALUE: luaV_finishget:loop <- 0
	movq	24(%r12), %rax
	movq	224(%rax), %rdx
	xorl	%esi, %esi
	callq	_luaT_gettm
	movq	%rax, %rbx
Ltmp173:
	##DEBUG_VALUE: luaV_finishget:tm <- %RBX
	.loc	1 188 14                ## /Users/dylan/github/ravi/src/lvm.c:188:14
	testq	%rbx, %rbx
	je	LBB4_15
Ltmp174:
## BB#7:                                ## %._crit_edge
                                        ##   in Loop: Header=BB4_1 Depth=1
	##DEBUG_VALUE: luaV_finishget:L <- %R12
	##DEBUG_VALUE: luaV_finishget:key <- %R15
	##DEBUG_VALUE: luaV_finishget:val <- [%RBP+-48]
	##DEBUG_VALUE: luaV_finishget:loop <- 0
	##DEBUG_VALUE: luaV_finishget:tm <- %RBX
	.loc	1 194 9                 ## /Users/dylan/github/ravi/src/lvm.c:194:9
	movl	8(%rbx), %eax
	jmp	LBB4_8
Ltmp175:
	.align	4, 0x90
LBB4_2:                                 ##   in Loop: Header=BB4_1 Depth=1
	##DEBUG_VALUE: luaV_finishget:L <- %R12
	##DEBUG_VALUE: luaV_finishget:key <- %R15
	##DEBUG_VALUE: luaV_finishget:val <- [%RBP+-48]
	##DEBUG_VALUE: luaV_finishget:loop <- 0
	xorl	%edx, %edx
	.loc	1 180 12                ## /Users/dylan/github/ravi/src/lvm.c:180:12
Ltmp176:
	movq	%r12, %rdi
	movq	%r13, %rsi
	callq	_luaT_gettmbyobj
	movq	%rax, %rbx
Ltmp177:
	##DEBUG_VALUE: luaV_finishget:tm <- %RBX
	.loc	1 181 11                ## /Users/dylan/github/ravi/src/lvm.c:181:11
	movl	8(%rbx), %eax
Ltmp178:
	.loc	1 181 11 is_stmt 0      ## /Users/dylan/github/ravi/src/lvm.c:181:11
	testl	%eax, %eax
	je	LBB4_3
Ltmp179:
LBB4_8:                                 ##   in Loop: Header=BB4_1 Depth=1
	##DEBUG_VALUE: luaV_finishget:L <- %R12
	##DEBUG_VALUE: luaV_finishget:key <- %R15
	##DEBUG_VALUE: luaV_finishget:val <- [%RBP+-48]
	##DEBUG_VALUE: luaV_finishget:loop <- 0
	.loc	1 194 9 is_stmt 1       ## /Users/dylan/github/ravi/src/lvm.c:194:9
	andl	$15, %eax
Ltmp180:
	.loc	1 194 9 is_stmt 0       ## /Users/dylan/github/ravi/src/lvm.c:194:9
	cmpl	$5, %eax
	je	LBB4_11
Ltmp181:
## BB#9:                                ##   in Loop: Header=BB4_1 Depth=1
	##DEBUG_VALUE: luaV_finishget:L <- %R12
	##DEBUG_VALUE: luaV_finishget:key <- %R15
	##DEBUG_VALUE: luaV_finishget:val <- [%RBP+-48]
	##DEBUG_VALUE: luaV_finishget:loop <- 0
	cmpl	$6, %eax
	movl	$0, %eax
	jne	LBB4_13
	jmp	LBB4_10
Ltmp182:
	.align	4, 0x90
LBB4_11:                                ##   in Loop: Header=BB4_1 Depth=1
	##DEBUG_VALUE: luaV_finishget:L <- %R12
	##DEBUG_VALUE: luaV_finishget:key <- %R15
	##DEBUG_VALUE: luaV_finishget:val <- [%RBP+-48]
	##DEBUG_VALUE: luaV_finishget:loop <- 0
	.loc	1 199 9 is_stmt 1       ## /Users/dylan/github/ravi/src/lvm.c:199:9
	movq	(%rbx), %rdi
	movq	%r15, %rsi
	callq	_luaH_get
Ltmp183:
	##DEBUG_VALUE: luaV_finishget:slot <- %RAX
	cmpl	$0, 8(%rax)
	jne	LBB4_12
Ltmp184:
LBB4_13:                                ##   in Loop: Header=BB4_1 Depth=1
	##DEBUG_VALUE: luaV_finishget:L <- %R12
	##DEBUG_VALUE: luaV_finishget:key <- %R15
	##DEBUG_VALUE: luaV_finishget:val <- [%RBP+-48]
	##DEBUG_VALUE: luaV_finishget:loop <- 0
	.loc	1 177 41                ## /Users/dylan/github/ravi/src/lvm.c:177:41
	incl	%r14d
Ltmp185:
	##DEBUG_VALUE: luaV_finishget:loop <- %R14D
	.loc	1 177 23 is_stmt 0      ## /Users/dylan/github/ravi/src/lvm.c:177:23
	cmpl	$2000, %r14d            ## imm = 0x7D0
	movq	%rbx, %r13
	jl	LBB4_1
Ltmp186:
## BB#14:
	##DEBUG_VALUE: luaV_finishget:L <- %R12
	.loc	1 205 3 is_stmt 1       ## /Users/dylan/github/ravi/src/lvm.c:205:3
	leaq	L_.str.1(%rip), %rsi
	xorl	%eax, %eax
	movq	%r12, %rdi
	callq	_luaG_runerror
Ltmp187:
LBB4_15:
	##DEBUG_VALUE: luaV_finishget:val <- [%RBP+-48]
	##DEBUG_VALUE: luaV_finishget:loop <- 0
	.loc	1 189 9                 ## /Users/dylan/github/ravi/src/lvm.c:189:9
	movq	-48(%rbp), %rax         ## 8-byte Reload
	movl	$0, 8(%rax)
	jmp	LBB4_16
Ltmp188:
LBB4_10:
	##DEBUG_VALUE: luaV_finishget:L <- %R12
	##DEBUG_VALUE: luaV_finishget:key <- %R15
	##DEBUG_VALUE: luaV_finishget:val <- [%RBP+-48]
	##DEBUG_VALUE: luaV_finishget:loop <- 0
	.loc	1 195 7                 ## /Users/dylan/github/ravi/src/lvm.c:195:7
	movl	$1, %r9d
	movq	%r12, %rdi
	movq	%rbx, %rsi
	movq	%r13, %rdx
	movq	%r15, %rcx
	movq	-48(%rbp), %r8          ## 8-byte Reload
	addq	$8, %rsp
	popq	%rbx
	popq	%r12
Ltmp189:
	popq	%r13
	popq	%r14
	popq	%r15
Ltmp190:
	popq	%rbp
	jmp	_luaT_callTM            ## TAILCALL
Ltmp191:
LBB4_12:
	##DEBUG_VALUE: luaV_finishget:val <- [%RBP+-48]
	##DEBUG_VALUE: luaV_finishget:slot <- %RAX
	##DEBUG_VALUE: luaV_finishget:loop <- 0
	.loc	1 200 7                 ## /Users/dylan/github/ravi/src/lvm.c:200:7
	movq	(%rax), %rcx
	movq	8(%rax), %rax
Ltmp192:
	movq	-48(%rbp), %rdx         ## 8-byte Reload
Ltmp193:
	##DEBUG_VALUE: luaV_finishget:val <- %RDX
	movq	%rax, 8(%rdx)
	movq	%rcx, (%rdx)
Ltmp194:
LBB4_16:
	.loc	1 206 1                 ## /Users/dylan/github/ravi/src/lvm.c:206:1
	addq	$8, %rsp
	popq	%rbx
	popq	%r12
	popq	%r13
	popq	%r14
	popq	%r15
	popq	%rbp
	retq
LBB4_3:
Ltmp195:
	##DEBUG_VALUE: luaV_finishget:L <- %R12
	##DEBUG_VALUE: luaV_finishget:loop <- 0
	.loc	1 182 9                 ## /Users/dylan/github/ravi/src/lvm.c:182:9
	leaq	L_.str(%rip), %rdx
	movq	%r12, %rdi
	movq	%r13, %rsi
	callq	_luaG_typeerror
Ltmp196:
Lfunc_end4:
	.cfi_endproc

	.globl	_luaV_finishset
	.align	4, 0x90
_luaV_finishset:                        ## @luaV_finishset
Lfunc_begin5:
	.loc	1 217 0                 ## /Users/dylan/github/ravi/src/lvm.c:217:0
	.cfi_startproc
## BB#0:
	pushq	%rbp
Ltmp197:
	.cfi_def_cfa_offset 16
Ltmp198:
	.cfi_offset %rbp, -16
	movq	%rsp, %rbp
Ltmp199:
	.cfi_def_cfa_register %rbp
	pushq	%r15
	pushq	%r14
	pushq	%r13
	pushq	%r12
	pushq	%rbx
	subq	$24, %rsp
Ltmp200:
	.cfi_offset %rbx, -56
Ltmp201:
	.cfi_offset %r12, -48
Ltmp202:
	.cfi_offset %r13, -40
Ltmp203:
	.cfi_offset %r14, -32
Ltmp204:
	.cfi_offset %r15, -24
	##DEBUG_VALUE: luaV_finishset:L <- %RDI
	##DEBUG_VALUE: luaV_finishset:t <- %RSI
	##DEBUG_VALUE: luaV_finishset:key <- %RDX
	##DEBUG_VALUE: luaV_finishset:val <- %RCX
	##DEBUG_VALUE: luaV_finishset:slot <- %R8
	movq	%r8, %rbx
Ltmp205:
	##DEBUG_VALUE: luaV_finishset:slot <- %RBX
	movq	%rcx, -64(%rbp)         ## 8-byte Spill
Ltmp206:
	##DEBUG_VALUE: luaV_finishset:val <- [%RBP+-64]
	movq	%rdx, -56(%rbp)         ## 8-byte Spill
Ltmp207:
	##DEBUG_VALUE: luaV_finishset:key <- [%RBP+-56]
	movq	%rsi, %r13
Ltmp208:
	##DEBUG_VALUE: luaV_finishset:t <- %R13
	movq	%rdi, -48(%rbp)         ## 8-byte Spill
Ltmp209:
	##DEBUG_VALUE: luaV_finishset:L <- [%RBP+-48]
	xorl	%r12d, %r12d
Ltmp210:
	##DEBUG_VALUE: luaV_finishset:loop <- 0
	.align	4, 0x90
LBB5_1:                                 ## =>This Inner Loop Header: Depth=1
	##DEBUG_VALUE: luaV_finishset:L <- [%RBP+-48]
	##DEBUG_VALUE: luaV_finishset:key <- [%RBP+-56]
	##DEBUG_VALUE: luaV_finishset:val <- [%RBP+-64]
	##DEBUG_VALUE: luaV_finishset:loop <- 0
	.loc	1 221 14 prologue_end   ## /Users/dylan/github/ravi/src/lvm.c:221:14
	testq	%rbx, %rbx
Ltmp211:
	.loc	1 221 9 is_stmt 0       ## /Users/dylan/github/ravi/src/lvm.c:221:9
	je	LBB5_12
## BB#2:                                ##   in Loop: Header=BB5_1 Depth=1
	##DEBUG_VALUE: luaV_finishset:L <- [%RBP+-48]
	##DEBUG_VALUE: luaV_finishset:key <- [%RBP+-56]
	##DEBUG_VALUE: luaV_finishset:val <- [%RBP+-64]
	##DEBUG_VALUE: luaV_finishset:loop <- 0
	.loc	1 222 18 is_stmt 1      ## /Users/dylan/github/ravi/src/lvm.c:222:18
Ltmp212:
	movq	(%r13), %r15
Ltmp213:
	##DEBUG_VALUE: h <- %R15
	.loc	1 224 12                ## /Users/dylan/github/ravi/src/lvm.c:224:12
	movq	40(%r15), %rdi
	testq	%rdi, %rdi
	je	LBB5_6
Ltmp214:
## BB#3:                                ##   in Loop: Header=BB5_1 Depth=1
	##DEBUG_VALUE: luaV_finishset:L <- [%RBP+-48]
	##DEBUG_VALUE: luaV_finishset:key <- [%RBP+-56]
	##DEBUG_VALUE: luaV_finishset:val <- [%RBP+-64]
	##DEBUG_VALUE: luaV_finishset:loop <- 0
	##DEBUG_VALUE: h <- %R15
	testb	$2, 10(%rdi)
	jne	LBB5_6
Ltmp215:
## BB#4:                                ##   in Loop: Header=BB5_1 Depth=1
	##DEBUG_VALUE: luaV_finishset:L <- [%RBP+-48]
	##DEBUG_VALUE: luaV_finishset:key <- [%RBP+-56]
	##DEBUG_VALUE: luaV_finishset:val <- [%RBP+-64]
	##DEBUG_VALUE: luaV_finishset:loop <- 0
	##DEBUG_VALUE: h <- %R15
	movq	-48(%rbp), %rax         ## 8-byte Reload
	movq	24(%rax), %rax
	movq	232(%rax), %rdx
Ltmp216:
	.loc	1 237 11                ## /Users/dylan/github/ravi/src/lvm.c:237:11
	movl	$1, %esi
Ltmp217:
	.loc	1 224 12                ## /Users/dylan/github/ravi/src/lvm.c:224:12
	callq	_luaT_gettm
	movq	%rax, %r14
Ltmp218:
	##DEBUG_VALUE: tm <- %R14
	.loc	1 225 14                ## /Users/dylan/github/ravi/src/lvm.c:225:14
	testq	%r14, %r14
	je	LBB5_6
Ltmp219:
## BB#5:                                ## %._crit_edge
                                        ##   in Loop: Header=BB5_1 Depth=1
	##DEBUG_VALUE: luaV_finishset:L <- [%RBP+-48]
	##DEBUG_VALUE: luaV_finishset:key <- [%RBP+-56]
	##DEBUG_VALUE: luaV_finishset:val <- [%RBP+-64]
	##DEBUG_VALUE: luaV_finishset:loop <- 0
	##DEBUG_VALUE: tm <- %R14
	.loc	1 241 9                 ## /Users/dylan/github/ravi/src/lvm.c:241:9
	movl	8(%r14), %eax
	jmp	LBB5_13
Ltmp220:
	.align	4, 0x90
LBB5_12:                                ##   in Loop: Header=BB5_1 Depth=1
	##DEBUG_VALUE: luaV_finishset:L <- [%RBP+-48]
	##DEBUG_VALUE: luaV_finishset:key <- [%RBP+-56]
	##DEBUG_VALUE: luaV_finishset:val <- [%RBP+-64]
	##DEBUG_VALUE: luaV_finishset:loop <- 0
	.loc	1 237 11                ## /Users/dylan/github/ravi/src/lvm.c:237:11
	movl	$1, %edx
	movq	-48(%rbp), %rdi         ## 8-byte Reload
	movq	%r13, %rsi
	callq	_luaT_gettmbyobj
	movq	%rax, %r14
Ltmp221:
	##DEBUG_VALUE: tm <- %R14
	movl	8(%r14), %eax
Ltmp222:
	.loc	1 237 11 is_stmt 0      ## /Users/dylan/github/ravi/src/lvm.c:237:11
	testl	%eax, %eax
	je	LBB5_25
Ltmp223:
LBB5_13:                                ##   in Loop: Header=BB5_1 Depth=1
	##DEBUG_VALUE: luaV_finishset:L <- [%RBP+-48]
	##DEBUG_VALUE: luaV_finishset:key <- [%RBP+-56]
	##DEBUG_VALUE: luaV_finishset:val <- [%RBP+-64]
	##DEBUG_VALUE: luaV_finishset:loop <- 0
	.loc	1 241 9 is_stmt 1       ## /Users/dylan/github/ravi/src/lvm.c:241:9
	andl	$15, %eax
Ltmp224:
	.loc	1 241 9 is_stmt 0       ## /Users/dylan/github/ravi/src/lvm.c:241:9
	cmpl	$5, %eax
	je	LBB5_16
## BB#14:                               ##   in Loop: Header=BB5_1 Depth=1
	##DEBUG_VALUE: luaV_finishset:L <- [%RBP+-48]
	##DEBUG_VALUE: luaV_finishset:key <- [%RBP+-56]
	##DEBUG_VALUE: luaV_finishset:val <- [%RBP+-64]
	##DEBUG_VALUE: luaV_finishset:loop <- 0
	cmpl	$6, %eax
	movl	$0, %ebx
	jne	LBB5_23
	jmp	LBB5_15
	.align	4, 0x90
LBB5_16:                                ##   in Loop: Header=BB5_1 Depth=1
	##DEBUG_VALUE: luaV_finishset:L <- [%RBP+-48]
	##DEBUG_VALUE: luaV_finishset:key <- [%RBP+-56]
	##DEBUG_VALUE: luaV_finishset:val <- [%RBP+-64]
	##DEBUG_VALUE: luaV_finishset:loop <- 0
	.loc	1 246 9 is_stmt 1       ## /Users/dylan/github/ravi/src/lvm.c:246:9
Ltmp225:
	movq	(%r14), %rdi
	movq	-56(%rbp), %rsi         ## 8-byte Reload
	callq	_luaH_get
	movq	%rax, %rbx
Ltmp226:
	##DEBUG_VALUE: luaV_finishset:slot <- %RBX
	cmpl	$0, 8(%rbx)
	jne	LBB5_17
Ltmp227:
LBB5_23:                                ##   in Loop: Header=BB5_1 Depth=1
	##DEBUG_VALUE: luaV_finishset:L <- [%RBP+-48]
	##DEBUG_VALUE: luaV_finishset:key <- [%RBP+-56]
	##DEBUG_VALUE: luaV_finishset:val <- [%RBP+-64]
	##DEBUG_VALUE: luaV_finishset:loop <- 0
	.loc	1 219 41                ## /Users/dylan/github/ravi/src/lvm.c:219:41
	incl	%r12d
Ltmp228:
	##DEBUG_VALUE: luaV_finishset:loop <- %R12D
	.loc	1 219 23 is_stmt 0      ## /Users/dylan/github/ravi/src/lvm.c:219:23
	cmpl	$2000, %r12d            ## imm = 0x7D0
	movq	%r14, %r13
	jl	LBB5_1
Ltmp229:
## BB#24:
	##DEBUG_VALUE: luaV_finishset:L <- [%RBP+-48]
	.loc	1 250 3 is_stmt 1       ## /Users/dylan/github/ravi/src/lvm.c:250:3
	leaq	L_.str.2(%rip), %rsi
	xorl	%eax, %eax
	movq	-48(%rbp), %rdi         ## 8-byte Reload
	callq	_luaG_runerror
LBB5_6:                                 ## %.thread
	##DEBUG_VALUE: luaV_finishset:L <- [%RBP+-48]
	##DEBUG_VALUE: luaV_finishset:key <- [%RBP+-56]
	##DEBUG_VALUE: luaV_finishset:val <- [%RBP+-64]
Ltmp230:
	##DEBUG_VALUE: luaV_finishset:loop <- 0
	##DEBUG_VALUE: h <- %R15
	.loc	1 226 13                ## /Users/dylan/github/ravi/src/lvm.c:226:13
	cmpq	_luaO_nilobject_@GOTPCREL(%rip), %rbx
	jne	LBB5_8
Ltmp231:
## BB#7:
	##DEBUG_VALUE: luaV_finishset:L <- [%RBP+-48]
	##DEBUG_VALUE: luaV_finishset:key <- [%RBP+-56]
	##DEBUG_VALUE: luaV_finishset:val <- [%RBP+-64]
	##DEBUG_VALUE: luaV_finishset:loop <- 0
	##DEBUG_VALUE: h <- %R15
	.loc	1 227 18                ## /Users/dylan/github/ravi/src/lvm.c:227:18
	movq	-48(%rbp), %rdi         ## 8-byte Reload
	movq	%r15, %rsi
	movq	-56(%rbp), %rdx         ## 8-byte Reload
	callq	_luaH_newkey
	movq	%rax, %rbx
Ltmp232:
	##DEBUG_VALUE: luaV_finishset:slot <- %RBX
LBB5_8:
	##DEBUG_VALUE: luaV_finishset:L <- [%RBP+-48]
	##DEBUG_VALUE: luaV_finishset:val <- [%RBP+-64]
	##DEBUG_VALUE: luaV_finishset:loop <- 0
	##DEBUG_VALUE: h <- %R15
	movq	-64(%rbp), %rdx         ## 8-byte Reload
Ltmp233:
	##DEBUG_VALUE: luaV_finishset:val <- %RDX
	.loc	1 229 9                 ## /Users/dylan/github/ravi/src/lvm.c:229:9
	movq	(%rdx), %rax
	movq	8(%rdx), %rcx
	movq	%rcx, 8(%rbx)
	movq	%rax, (%rbx)
	.loc	1 230 9                 ## /Users/dylan/github/ravi/src/lvm.c:230:9
	movb	$0, 10(%r15)
	.loc	1 231 9                 ## /Users/dylan/github/ravi/src/lvm.c:231:9
	testb	$64, 8(%rdx)
	je	LBB5_22
Ltmp234:
## BB#9:
	##DEBUG_VALUE: luaV_finishset:L <- [%RBP+-48]
	##DEBUG_VALUE: luaV_finishset:val <- %RDX
	##DEBUG_VALUE: luaV_finishset:loop <- 0
	##DEBUG_VALUE: h <- %R15
	testb	$4, 9(%r15)
	je	LBB5_22
Ltmp235:
## BB#10:
	##DEBUG_VALUE: luaV_finishset:L <- [%RBP+-48]
	##DEBUG_VALUE: luaV_finishset:val <- %RDX
	##DEBUG_VALUE: luaV_finishset:loop <- 0
	##DEBUG_VALUE: h <- %R15
	movq	(%rdx), %rax
	testb	$3, 9(%rax)
	je	LBB5_22
Ltmp236:
## BB#11:
	##DEBUG_VALUE: luaV_finishset:L <- [%RBP+-48]
	##DEBUG_VALUE: luaV_finishset:loop <- 0
	##DEBUG_VALUE: h <- %R15
	movq	-48(%rbp), %rdi         ## 8-byte Reload
	movq	%r15, %rsi
	addq	$24, %rsp
	popq	%rbx
	popq	%r12
	popq	%r13
	popq	%r14
	popq	%r15
Ltmp237:
	popq	%rbp
	jmp	_luaC_barrierback_      ## TAILCALL
Ltmp238:
LBB5_15:
	##DEBUG_VALUE: luaV_finishset:L <- [%RBP+-48]
	##DEBUG_VALUE: luaV_finishset:key <- [%RBP+-56]
	##DEBUG_VALUE: luaV_finishset:val <- [%RBP+-64]
	##DEBUG_VALUE: luaV_finishset:loop <- 0
	.loc	1 242 7                 ## /Users/dylan/github/ravi/src/lvm.c:242:7
	xorl	%r9d, %r9d
	movq	-48(%rbp), %rdi         ## 8-byte Reload
	movq	%r14, %rsi
	movq	%r13, %rdx
	movq	-56(%rbp), %rcx         ## 8-byte Reload
	movq	-64(%rbp), %r8          ## 8-byte Reload
	addq	$24, %rsp
	popq	%rbx
	popq	%r12
	popq	%r13
	popq	%r14
	popq	%r15
	popq	%rbp
	jmp	_luaT_callTM            ## TAILCALL
Ltmp239:
LBB5_17:
	##DEBUG_VALUE: luaV_finishset:L <- [%RBP+-48]
	##DEBUG_VALUE: luaV_finishset:val <- [%RBP+-64]
	##DEBUG_VALUE: luaV_finishset:slot <- %RBX
	##DEBUG_VALUE: luaV_finishset:loop <- 0
	movq	-64(%rbp), %r15         ## 8-byte Reload
Ltmp240:
	##DEBUG_VALUE: luaV_finishset:val <- %R15
	.loc	1 246 9                 ## /Users/dylan/github/ravi/src/lvm.c:246:9
	testb	$64, 8(%r15)
	je	LBB5_21
Ltmp241:
## BB#18:
	##DEBUG_VALUE: luaV_finishset:L <- [%RBP+-48]
	##DEBUG_VALUE: luaV_finishset:val <- %R15
	##DEBUG_VALUE: luaV_finishset:slot <- %RBX
	##DEBUG_VALUE: luaV_finishset:loop <- 0
	movq	(%r14), %rsi
	testb	$4, 9(%rsi)
	je	LBB5_21
Ltmp242:
## BB#19:
	##DEBUG_VALUE: luaV_finishset:L <- [%RBP+-48]
	##DEBUG_VALUE: luaV_finishset:val <- %R15
	##DEBUG_VALUE: luaV_finishset:slot <- %RBX
	##DEBUG_VALUE: luaV_finishset:loop <- 0
	movq	(%r15), %rax
	testb	$3, 9(%rax)
	je	LBB5_21
Ltmp243:
## BB#20:
	##DEBUG_VALUE: luaV_finishset:L <- [%RBP+-48]
	##DEBUG_VALUE: luaV_finishset:val <- %R15
	##DEBUG_VALUE: luaV_finishset:slot <- %RBX
	##DEBUG_VALUE: luaV_finishset:loop <- 0
	movq	-48(%rbp), %rdi         ## 8-byte Reload
	callq	_luaC_barrierback_
Ltmp244:
LBB5_21:                                ## %.critedge
	##DEBUG_VALUE: luaV_finishset:val <- %R15
	##DEBUG_VALUE: luaV_finishset:slot <- %RBX
	##DEBUG_VALUE: luaV_finishset:loop <- 0
	movq	(%r15), %rax
	movq	8(%r15), %rcx
	movq	%rcx, 8(%rbx)
	movq	%rax, (%rbx)
Ltmp245:
LBB5_22:                                ## %.thread8
	.loc	1 251 1                 ## /Users/dylan/github/ravi/src/lvm.c:251:1
	addq	$24, %rsp
	##DEBUG_VALUE: luaV_finishset:loop <- 0
	popq	%rbx
	popq	%r12
	popq	%r13
	popq	%r14
	popq	%r15
	popq	%rbp
	retq
LBB5_25:
	##DEBUG_VALUE: luaV_finishset:L <- [%RBP+-48]
	##DEBUG_VALUE: luaV_finishset:loop <- 0
	.loc	1 238 9                 ## /Users/dylan/github/ravi/src/lvm.c:238:9
Ltmp246:
	leaq	L_.str(%rip), %rdx
	movq	-48(%rbp), %rdi         ## 8-byte Reload
	movq	%r13, %rsi
	callq	_luaG_typeerror
Ltmp247:
Lfunc_end5:
	.cfi_endproc

	.globl	_luaV_gettable
	.align	4, 0x90
_luaV_gettable:                         ## @luaV_gettable
Lfunc_begin6:
	.loc	1 481 0                 ## /Users/dylan/github/ravi/src/lvm.c:481:0
	.cfi_startproc
## BB#0:
	pushq	%rbp
Ltmp248:
	.cfi_def_cfa_offset 16
Ltmp249:
	.cfi_offset %rbp, -16
	movq	%rsp, %rbp
Ltmp250:
	.cfi_def_cfa_register %rbp
	pushq	%r15
	pushq	%r14
	pushq	%r12
	pushq	%rbx
Ltmp251:
	.cfi_offset %rbx, -48
Ltmp252:
	.cfi_offset %r12, -40
Ltmp253:
	.cfi_offset %r14, -32
Ltmp254:
	.cfi_offset %r15, -24
	##DEBUG_VALUE: luaV_gettable:L <- %RDI
	##DEBUG_VALUE: luaV_gettable:t <- %RSI
	##DEBUG_VALUE: luaV_gettable:key <- %RDX
	##DEBUG_VALUE: luaV_gettable:val <- %RCX
Ltmp255:
	##DEBUG_VALUE: io <- %RCX
	##DEBUG_VALUE: io <- %RCX
	##DEBUG_VALUE: io1 <- %RCX
	movq	%rcx, %r15
Ltmp256:
	##DEBUG_VALUE: io1 <- %R15
	##DEBUG_VALUE: io <- %R15
	##DEBUG_VALUE: io <- %R15
	##DEBUG_VALUE: luaV_gettable:val <- %R15
	movq	%rdx, %r12
Ltmp257:
	##DEBUG_VALUE: luaV_gettable:key <- %R12
	movq	%rsi, %rbx
Ltmp258:
	##DEBUG_VALUE: luaV_gettable:t <- %RBX
	movq	%rdi, %r14
Ltmp259:
	##DEBUG_VALUE: luaV_gettable:L <- %R14
	.loc	1 482 3 prologue_end    ## /Users/dylan/github/ravi/src/lvm.c:482:3
	movl	8(%rbx), %eax
Ltmp260:
	.loc	1 482 3 is_stmt 0       ## /Users/dylan/github/ravi/src/lvm.c:482:3
	cmpl	$69, %eax
	jne	LBB6_1
Ltmp261:
## BB#7:
	##DEBUG_VALUE: luaV_gettable:L <- %R14
	##DEBUG_VALUE: luaV_gettable:t <- %RBX
	##DEBUG_VALUE: luaV_gettable:key <- %R12
	##DEBUG_VALUE: luaV_gettable:val <- %R15
	.loc	1 482 3                 ## /Users/dylan/github/ravi/src/lvm.c:482:3
	cmpl	$19, 8(%r12)
	jne	LBB6_11
Ltmp262:
## BB#8:
	##DEBUG_VALUE: luaV_gettable:L <- %R14
	##DEBUG_VALUE: luaV_gettable:t <- %RBX
	##DEBUG_VALUE: luaV_gettable:key <- %R12
	##DEBUG_VALUE: luaV_gettable:val <- %R15
	.loc	1 482 3                 ## /Users/dylan/github/ravi/src/lvm.c:482:3
	movq	(%r12), %rsi
Ltmp263:
	##DEBUG_VALUE: idx <- %RSI
	movq	(%rbx), %rdi
Ltmp264:
	##DEBUG_VALUE: h <- %RDI
	.loc	1 482 3                 ## /Users/dylan/github/ravi/src/lvm.c:482:3
	leaq	-1(%rsi), %rax
	movl	12(%rdi), %ecx
Ltmp265:
	.loc	1 482 3                 ## /Users/dylan/github/ravi/src/lvm.c:482:3
	cmpq	%rcx, %rax
	jae	LBB6_10
Ltmp266:
## BB#9:
	##DEBUG_VALUE: luaV_gettable:L <- %R14
	##DEBUG_VALUE: luaV_gettable:t <- %RBX
	##DEBUG_VALUE: luaV_gettable:key <- %R12
	##DEBUG_VALUE: luaV_gettable:val <- %R15
	##DEBUG_VALUE: h <- %RDI
	.loc	1 482 3                 ## /Users/dylan/github/ravi/src/lvm.c:482:3
	shlq	$4, %rax
	addq	16(%rdi), %rax
Ltmp267:
	##DEBUG_VALUE: aux <- %RAX
	jmp	LBB6_12
Ltmp268:
LBB6_11:
	##DEBUG_VALUE: luaV_gettable:L <- %R14
	##DEBUG_VALUE: luaV_gettable:t <- %RBX
	##DEBUG_VALUE: luaV_gettable:key <- %R12
	##DEBUG_VALUE: luaV_gettable:val <- %R15
	.loc	1 482 3                 ## /Users/dylan/github/ravi/src/lvm.c:482:3
	movq	(%rbx), %rdi
	movq	%r12, %rsi
	callq	_luaH_get
Ltmp269:
	##DEBUG_VALUE: aux <- %RAX
LBB6_12:
	##DEBUG_VALUE: luaV_gettable:L <- %R14
	##DEBUG_VALUE: luaV_gettable:t <- %RBX
	##DEBUG_VALUE: luaV_gettable:key <- %R12
	##DEBUG_VALUE: luaV_gettable:val <- %R15
	.loc	1 482 3                 ## /Users/dylan/github/ravi/src/lvm.c:482:3
	cmpl	$0, 8(%rax)
Ltmp270:
	.loc	1 482 3                 ## /Users/dylan/github/ravi/src/lvm.c:482:3
	je	LBB6_14
Ltmp271:
## BB#13:
	##DEBUG_VALUE: luaV_gettable:val <- %R15
	.loc	1 482 3                 ## /Users/dylan/github/ravi/src/lvm.c:482:3
	movq	(%rax), %rcx
	movq	8(%rax), %rax
	movq	%rax, 8(%r15)
	movq	%rcx, (%r15)
Ltmp272:
LBB6_6:
	.loc	1 483 1 is_stmt 1       ## /Users/dylan/github/ravi/src/lvm.c:483:1
	popq	%rbx
	popq	%r12
	popq	%r14
	popq	%r15
	popq	%rbp
	retq
LBB6_1:
Ltmp273:
	##DEBUG_VALUE: luaV_gettable:L <- %R14
	##DEBUG_VALUE: luaV_gettable:t <- %RBX
	##DEBUG_VALUE: luaV_gettable:key <- %R12
	##DEBUG_VALUE: luaV_gettable:val <- %R15
	cmpl	$101, %eax
	jne	LBB6_2
Ltmp274:
## BB#16:
	##DEBUG_VALUE: luaV_gettable:L <- %R14
	##DEBUG_VALUE: luaV_gettable:t <- %RBX
	##DEBUG_VALUE: luaV_gettable:key <- %R12
	##DEBUG_VALUE: luaV_gettable:val <- %R15
	.loc	1 482 3                 ## /Users/dylan/github/ravi/src/lvm.c:482:3
	cmpl	$19, 8(%r12)
	jne	LBB6_21
Ltmp275:
## BB#17:
	##DEBUG_VALUE: luaV_gettable:L <- %R14
	##DEBUG_VALUE: luaV_gettable:t <- %RBX
	##DEBUG_VALUE: luaV_gettable:key <- %R12
	##DEBUG_VALUE: luaV_gettable:val <- %R15
	.loc	1 482 3 is_stmt 0       ## /Users/dylan/github/ravi/src/lvm.c:482:3
	movq	(%rbx), %rcx
Ltmp276:
	##DEBUG_VALUE: h <- %RCX
	.loc	1 482 3                 ## /Users/dylan/github/ravi/src/lvm.c:482:3
	movq	(%r12), %rax
Ltmp277:
	##DEBUG_VALUE: ukey <- %EAX
	cmpl	64(%rcx), %eax
	jae	LBB6_19
Ltmp278:
## BB#18:
	##DEBUG_VALUE: luaV_gettable:val <- %R15
	##DEBUG_VALUE: h <- %RCX
	##DEBUG_VALUE: ukey <- %EAX
	movq	56(%rcx), %rcx
Ltmp279:
	##DEBUG_VALUE: data <- %RCX
	.loc	1 482 3                 ## /Users/dylan/github/ravi/src/lvm.c:482:3
	movl	%eax, %eax
Ltmp280:
	movq	(%rcx,%rax,8), %rax
	movq	%rax, (%r15)
	movl	$3, 8(%r15)
	jmp	LBB6_6
Ltmp281:
LBB6_14:
	##DEBUG_VALUE: luaV_gettable:L <- %R14
	##DEBUG_VALUE: luaV_gettable:t <- %RBX
	##DEBUG_VALUE: luaV_gettable:key <- %R12
	##DEBUG_VALUE: luaV_gettable:val <- %R15
	.loc	1 482 3                 ## /Users/dylan/github/ravi/src/lvm.c:482:3
	movq	%r14, %rdi
	movq	%rbx, %rsi
	movq	%r12, %rdx
	movq	%r15, %rcx
	movq	%rax, %r8
	jmp	LBB6_15
Ltmp282:
LBB6_2:
	##DEBUG_VALUE: luaV_gettable:L <- %R14
	##DEBUG_VALUE: luaV_gettable:t <- %RBX
	##DEBUG_VALUE: luaV_gettable:key <- %R12
	##DEBUG_VALUE: luaV_gettable:val <- %R15
	cmpl	$85, %eax
	jne	LBB6_20
Ltmp283:
## BB#3:
	##DEBUG_VALUE: luaV_gettable:L <- %R14
	##DEBUG_VALUE: luaV_gettable:t <- %RBX
	##DEBUG_VALUE: luaV_gettable:key <- %R12
	##DEBUG_VALUE: luaV_gettable:val <- %R15
	.loc	1 482 3                 ## /Users/dylan/github/ravi/src/lvm.c:482:3
	cmpl	$19, 8(%r12)
	jne	LBB6_21
Ltmp284:
## BB#4:
	##DEBUG_VALUE: luaV_gettable:L <- %R14
	##DEBUG_VALUE: luaV_gettable:t <- %RBX
	##DEBUG_VALUE: luaV_gettable:key <- %R12
	##DEBUG_VALUE: luaV_gettable:val <- %R15
	.loc	1 482 3                 ## /Users/dylan/github/ravi/src/lvm.c:482:3
	movq	(%rbx), %rcx
Ltmp285:
	##DEBUG_VALUE: h <- %RCX
	.loc	1 482 3                 ## /Users/dylan/github/ravi/src/lvm.c:482:3
	movq	(%r12), %rax
Ltmp286:
	##DEBUG_VALUE: ukey <- %EAX
	cmpl	64(%rcx), %eax
	jae	LBB6_19
Ltmp287:
## BB#5:
	##DEBUG_VALUE: luaV_gettable:val <- %R15
	##DEBUG_VALUE: h <- %RCX
	##DEBUG_VALUE: ukey <- %EAX
	movq	56(%rcx), %rcx
Ltmp288:
	##DEBUG_VALUE: data <- %RCX
	.loc	1 482 3                 ## /Users/dylan/github/ravi/src/lvm.c:482:3
	movl	%eax, %eax
Ltmp289:
	movq	(%rcx,%rax,8), %rax
	movq	%rax, (%r15)
	movl	$19, 8(%r15)
	jmp	LBB6_6
Ltmp290:
LBB6_10:
	##DEBUG_VALUE: luaV_gettable:L <- %R14
	##DEBUG_VALUE: luaV_gettable:t <- %RBX
	##DEBUG_VALUE: luaV_gettable:key <- %R12
	##DEBUG_VALUE: luaV_gettable:val <- %R15
	##DEBUG_VALUE: idx <- %RSI
	##DEBUG_VALUE: h <- %RDI
	.loc	1 482 3                 ## /Users/dylan/github/ravi/src/lvm.c:482:3
	callq	_luaH_getint
Ltmp291:
	##DEBUG_VALUE: aux <- %RAX
	jmp	LBB6_12
Ltmp292:
LBB6_20:
	##DEBUG_VALUE: luaV_gettable:L <- %R14
	##DEBUG_VALUE: luaV_gettable:t <- %RBX
	##DEBUG_VALUE: luaV_gettable:key <- %R12
	##DEBUG_VALUE: luaV_gettable:val <- %R15
	.loc	1 482 3                 ## /Users/dylan/github/ravi/src/lvm.c:482:3
	xorl	%r8d, %r8d
	movq	%r14, %rdi
	movq	%rbx, %rsi
	movq	%r12, %rdx
	movq	%r15, %rcx
Ltmp293:
LBB6_15:
	.loc	1 482 3                 ## /Users/dylan/github/ravi/src/lvm.c:482:3
	popq	%rbx
	popq	%r12
	popq	%r14
	popq	%r15
	popq	%rbp
	jmp	_luaV_finishget         ## TAILCALL
Ltmp294:
LBB6_21:
	##DEBUG_VALUE: luaV_gettable:L <- %R14
	##DEBUG_VALUE: luaV_gettable:key <- %R12
	.loc	1 482 3                 ## /Users/dylan/github/ravi/src/lvm.c:482:3
	leaq	L_.str(%rip), %rdx
	movq	%r14, %rdi
	movq	%r12, %rsi
	callq	_luaG_typeerror
Ltmp295:
LBB6_19:
	##DEBUG_VALUE: luaV_gettable:L <- %R14
	.loc	1 482 3                 ## /Users/dylan/github/ravi/src/lvm.c:482:3
	leaq	L_.str.3(%rip), %rsi
	xorl	%eax, %eax
	movq	%r14, %rdi
	callq	_luaG_runerror
Ltmp296:
Lfunc_end6:
	.cfi_endproc

	.section	__TEXT,__literal8,8byte_literals
	.align	3
LCPI7_0:
	.quad	-4332462841530417152    ## double -9.2233720368547758E+18
LCPI7_1:
	.quad	4890909195324358656     ## double 9.2233720368547758E+18
	.section	__TEXT,__text,regular,pure_instructions
	.globl	_luaV_settable
	.align	4, 0x90
_luaV_settable:                         ## @luaV_settable
Lfunc_begin7:
	.loc	1 492 0 is_stmt 1       ## /Users/dylan/github/ravi/src/lvm.c:492:0
	.cfi_startproc
## BB#0:
	pushq	%rbp
Ltmp297:
	.cfi_def_cfa_offset 16
Ltmp298:
	.cfi_offset %rbp, -16
	movq	%rsp, %rbp
Ltmp299:
	.cfi_def_cfa_register %rbp
	pushq	%r15
	pushq	%r14
	pushq	%r13
	pushq	%r12
	pushq	%rbx
	subq	$24, %rsp
Ltmp300:
	.cfi_offset %rbx, -56
Ltmp301:
	.cfi_offset %r12, -48
Ltmp302:
	.cfi_offset %r13, -40
Ltmp303:
	.cfi_offset %r14, -32
Ltmp304:
	.cfi_offset %r15, -24
	##DEBUG_VALUE: luaV_settable:L <- %RDI
	##DEBUG_VALUE: luaV_settable:t <- %RSI
	##DEBUG_VALUE: luaV_settable:key <- %RDX
	##DEBUG_VALUE: luaV_settable:val <- %RCX
	movq	%rcx, %r13
Ltmp305:
	##DEBUG_VALUE: luaV_settable:val <- %R13
	movq	%rdx, %r15
Ltmp306:
	##DEBUG_VALUE: luaV_settable:key <- %R15
	movq	%rsi, %r12
Ltmp307:
	##DEBUG_VALUE: luaV_settable:t <- %R12
	movq	%rdi, %r14
Ltmp308:
	##DEBUG_VALUE: luaV_settable:L <- %R14
	.loc	1 493 3 prologue_end    ## /Users/dylan/github/ravi/src/lvm.c:493:3
	movl	8(%r12), %eax
Ltmp309:
	.loc	1 493 3 is_stmt 0       ## /Users/dylan/github/ravi/src/lvm.c:493:3
	cmpl	$69, %eax
	jne	LBB7_1
Ltmp310:
## BB#7:
	##DEBUG_VALUE: luaV_settable:L <- %R14
	##DEBUG_VALUE: luaV_settable:t <- %R12
	##DEBUG_VALUE: luaV_settable:key <- %R15
	##DEBUG_VALUE: luaV_settable:val <- %R13
	.loc	1 493 3                 ## /Users/dylan/github/ravi/src/lvm.c:493:3
	cmpl	$19, 8(%r15)
	jne	LBB7_11
Ltmp311:
## BB#8:
	##DEBUG_VALUE: luaV_settable:L <- %R14
	##DEBUG_VALUE: luaV_settable:t <- %R12
	##DEBUG_VALUE: luaV_settable:key <- %R15
	##DEBUG_VALUE: luaV_settable:val <- %R13
	.loc	1 493 3                 ## /Users/dylan/github/ravi/src/lvm.c:493:3
	movq	(%r15), %rsi
Ltmp312:
	##DEBUG_VALUE: idx <- %RSI
	movq	(%r12), %rdi
Ltmp313:
	##DEBUG_VALUE: h <- %RDI
	.loc	1 493 3                 ## /Users/dylan/github/ravi/src/lvm.c:493:3
	leaq	-1(%rsi), %rbx
	movl	12(%rdi), %eax
Ltmp314:
	.loc	1 493 3                 ## /Users/dylan/github/ravi/src/lvm.c:493:3
	cmpq	%rax, %rbx
	jae	LBB7_10
Ltmp315:
## BB#9:
	##DEBUG_VALUE: luaV_settable:L <- %R14
	##DEBUG_VALUE: luaV_settable:t <- %R12
	##DEBUG_VALUE: luaV_settable:key <- %R15
	##DEBUG_VALUE: luaV_settable:val <- %R13
	##DEBUG_VALUE: h <- %RDI
	.loc	1 493 3                 ## /Users/dylan/github/ravi/src/lvm.c:493:3
	shlq	$4, %rbx
	addq	16(%rdi), %rbx
Ltmp316:
	##DEBUG_VALUE: slot <- %RBX
	jmp	LBB7_13
Ltmp317:
LBB7_11:
	##DEBUG_VALUE: luaV_settable:L <- %R14
	##DEBUG_VALUE: luaV_settable:t <- %R12
	##DEBUG_VALUE: luaV_settable:key <- %R15
	##DEBUG_VALUE: luaV_settable:val <- %R13
	.loc	1 493 3                 ## /Users/dylan/github/ravi/src/lvm.c:493:3
	movq	(%r12), %rdi
	movq	%r15, %rsi
	callq	_luaH_get
Ltmp318:
LBB7_12:
	movq	%rax, %rbx
Ltmp319:
	##DEBUG_VALUE: slot <- %RBX
LBB7_13:
	##DEBUG_VALUE: luaV_settable:L <- %R14
	##DEBUG_VALUE: luaV_settable:t <- %R12
	##DEBUG_VALUE: luaV_settable:key <- %R15
	##DEBUG_VALUE: luaV_settable:val <- %R13
	.loc	1 493 3                 ## /Users/dylan/github/ravi/src/lvm.c:493:3
	cmpl	$0, 8(%rbx)
Ltmp320:
	.loc	1 493 3                 ## /Users/dylan/github/ravi/src/lvm.c:493:3
	je	LBB7_19
Ltmp321:
## BB#14:
	##DEBUG_VALUE: luaV_settable:L <- %R14
	##DEBUG_VALUE: luaV_settable:t <- %R12
	##DEBUG_VALUE: luaV_settable:val <- %R13
	.loc	1 493 3                 ## /Users/dylan/github/ravi/src/lvm.c:493:3
	testb	$64, 8(%r13)
	je	LBB7_18
Ltmp322:
## BB#15:
	##DEBUG_VALUE: luaV_settable:L <- %R14
	##DEBUG_VALUE: luaV_settable:t <- %R12
	##DEBUG_VALUE: luaV_settable:val <- %R13
	movq	(%r12), %rsi
	testb	$4, 9(%rsi)
	je	LBB7_18
Ltmp323:
## BB#16:
	##DEBUG_VALUE: luaV_settable:L <- %R14
	##DEBUG_VALUE: luaV_settable:val <- %R13
	movq	(%r13), %rax
	testb	$3, 9(%rax)
	je	LBB7_18
Ltmp324:
## BB#17:
	##DEBUG_VALUE: luaV_settable:L <- %R14
	##DEBUG_VALUE: luaV_settable:val <- %R13
	movq	%r14, %rdi
	callq	_luaC_barrierback_
Ltmp325:
LBB7_18:
	##DEBUG_VALUE: luaV_settable:val <- %R13
	movq	(%r13), %rax
	movq	8(%r13), %rcx
	movq	%rcx, 8(%rbx)
	movq	%rax, (%rbx)
Ltmp326:
LBB7_64:
	.loc	1 494 1 is_stmt 1       ## /Users/dylan/github/ravi/src/lvm.c:494:1
	addq	$24, %rsp
	popq	%rbx
	popq	%r12
	popq	%r13
	popq	%r14
	popq	%r15
	popq	%rbp
	retq
LBB7_19:
Ltmp327:
	##DEBUG_VALUE: luaV_settable:L <- %R14
	##DEBUG_VALUE: luaV_settable:t <- %R12
	##DEBUG_VALUE: luaV_settable:key <- %R15
	##DEBUG_VALUE: luaV_settable:val <- %R13
	.loc	1 493 3                 ## /Users/dylan/github/ravi/src/lvm.c:493:3
	movq	%r14, %rdi
	movq	%r12, %rsi
	movq	%r15, %rdx
	movq	%r13, %rcx
	movq	%rbx, %r8
Ltmp328:
LBB7_20:
	addq	$24, %rsp
	popq	%rbx
	popq	%r12
	popq	%r13
	popq	%r14
	popq	%r15
	popq	%rbp
	jmp	_luaV_finishset         ## TAILCALL
Ltmp329:
LBB7_1:
	##DEBUG_VALUE: luaV_settable:L <- %R14
	##DEBUG_VALUE: luaV_settable:t <- %R12
	##DEBUG_VALUE: luaV_settable:key <- %R15
	##DEBUG_VALUE: luaV_settable:val <- %R13
	cmpl	$101, %eax
	jne	LBB7_2
Ltmp330:
## BB#21:
	##DEBUG_VALUE: luaV_settable:L <- %R14
	##DEBUG_VALUE: luaV_settable:t <- %R12
	##DEBUG_VALUE: luaV_settable:key <- %R15
	##DEBUG_VALUE: luaV_settable:val <- %R13
	.loc	1 493 3 is_stmt 0       ## /Users/dylan/github/ravi/src/lvm.c:493:3
	cmpl	$19, 8(%r15)
	jne	LBB7_65
Ltmp331:
## BB#22:
	##DEBUG_VALUE: luaV_settable:L <- %R14
	##DEBUG_VALUE: luaV_settable:t <- %R12
	##DEBUG_VALUE: luaV_settable:key <- %R15
	##DEBUG_VALUE: luaV_settable:val <- %R13
	.loc	1 493 3                 ## /Users/dylan/github/ravi/src/lvm.c:493:3
	movq	(%r12), %r12
Ltmp332:
	##DEBUG_VALUE: h <- %R12
	.loc	1 79 7 is_stmt 1        ## /Users/dylan/github/ravi/src/lvm.c:79:7
	movl	8(%r13), %eax
Ltmp333:
	.loc	1 493 3                 ## /Users/dylan/github/ravi/src/lvm.c:493:3
	cmpl	$19, %eax
	je	LBB7_28
Ltmp334:
## BB#23:
	##DEBUG_VALUE: luaV_settable:L <- %R14
	##DEBUG_VALUE: luaV_settable:key <- %R15
	##DEBUG_VALUE: luaV_settable:val <- %R13
	cmpl	$3, %eax
	jne	LBB7_31
Ltmp335:
## BB#24:
	##DEBUG_VALUE: luaV_settable:L <- %R14
	##DEBUG_VALUE: luaV_settable:key <- %R15
	##DEBUG_VALUE: luaV_settable:val <- %R13
	.loc	1 493 3 is_stmt 0       ## /Users/dylan/github/ravi/src/lvm.c:493:3
	movq	(%r15), %rax
Ltmp336:
	##DEBUG_VALUE: ukey <- %EAX
	cmpl	64(%r12), %eax
	jb	LBB7_25
Ltmp337:
## BB#26:
	##DEBUG_VALUE: luaV_settable:L <- %R14
	##DEBUG_VALUE: luaV_settable:val <- %R13
	##DEBUG_VALUE: ukey <- %EAX
	.loc	1 493 3                 ## /Users/dylan/github/ravi/src/lvm.c:493:3
	movl	%eax, %edx
	movsd	(%r13), %xmm0           ## xmm0 = mem[0],zero
	jmp	LBB7_27
Ltmp338:
LBB7_2:
	##DEBUG_VALUE: luaV_settable:L <- %R14
	##DEBUG_VALUE: luaV_settable:t <- %R12
	##DEBUG_VALUE: luaV_settable:key <- %R15
	##DEBUG_VALUE: luaV_settable:val <- %R13
	cmpl	$85, %eax
	jne	LBB7_62
Ltmp339:
## BB#3:
	##DEBUG_VALUE: luaV_settable:L <- %R14
	##DEBUG_VALUE: luaV_settable:t <- %R12
	##DEBUG_VALUE: luaV_settable:key <- %R15
	##DEBUG_VALUE: luaV_settable:val <- %R13
	.loc	1 493 3                 ## /Users/dylan/github/ravi/src/lvm.c:493:3
	cmpl	$19, 8(%r15)
	jne	LBB7_65
Ltmp340:
## BB#4:
	##DEBUG_VALUE: luaV_settable:L <- %R14
	##DEBUG_VALUE: luaV_settable:t <- %R12
	##DEBUG_VALUE: luaV_settable:key <- %R15
	##DEBUG_VALUE: luaV_settable:val <- %R13
	.loc	1 493 3                 ## /Users/dylan/github/ravi/src/lvm.c:493:3
	movq	(%r12), %r12
Ltmp341:
	##DEBUG_VALUE: h <- %R12
	.loc	1 493 3                 ## /Users/dylan/github/ravi/src/lvm.c:493:3
	movl	8(%r13), %eax
Ltmp342:
	.loc	1 493 3                 ## /Users/dylan/github/ravi/src/lvm.c:493:3
	cmpl	$19, %eax
	jne	LBB7_44
Ltmp343:
## BB#5:
	##DEBUG_VALUE: luaV_settable:L <- %R14
	##DEBUG_VALUE: luaV_settable:key <- %R15
	##DEBUG_VALUE: luaV_settable:val <- %R13
	##DEBUG_VALUE: h <- %R12
	.loc	1 493 3                 ## /Users/dylan/github/ravi/src/lvm.c:493:3
	movq	(%r15), %rax
Ltmp344:
	##DEBUG_VALUE: ukey <- %EAX
	cmpl	64(%r12), %eax
	jae	LBB7_6
Ltmp345:
LBB7_25:
	##DEBUG_VALUE: luaV_settable:val <- %R13
	##DEBUG_VALUE: ukey <- %EAX
	.loc	1 493 3                 ## /Users/dylan/github/ravi/src/lvm.c:493:3
	movq	56(%r12), %rcx
Ltmp346:
	##DEBUG_VALUE: data <- %RCX
	.loc	1 493 3                 ## /Users/dylan/github/ravi/src/lvm.c:493:3
	movq	(%r13), %rdx
	movl	%eax, %eax
Ltmp347:
	movq	%rdx, (%rcx,%rax,8)
	jmp	LBB7_64
Ltmp348:
LBB7_10:
	##DEBUG_VALUE: luaV_settable:L <- %R14
	##DEBUG_VALUE: luaV_settable:t <- %R12
	##DEBUG_VALUE: luaV_settable:key <- %R15
	##DEBUG_VALUE: luaV_settable:val <- %R13
	##DEBUG_VALUE: idx <- %RSI
	##DEBUG_VALUE: h <- %RDI
	.loc	1 493 3                 ## /Users/dylan/github/ravi/src/lvm.c:493:3
	callq	_luaH_getint
	jmp	LBB7_12
Ltmp349:
LBB7_62:
	##DEBUG_VALUE: luaV_settable:L <- %R14
	##DEBUG_VALUE: luaV_settable:t <- %R12
	##DEBUG_VALUE: luaV_settable:key <- %R15
	##DEBUG_VALUE: luaV_settable:val <- %R13
	.loc	1 493 3                 ## /Users/dylan/github/ravi/src/lvm.c:493:3
	xorl	%r8d, %r8d
	movq	%r14, %rdi
	movq	%r12, %rsi
	movq	%r15, %rdx
	movq	%r13, %rcx
	jmp	LBB7_20
Ltmp350:
LBB7_28:
	##DEBUG_VALUE: luaV_settable:L <- %R14
	##DEBUG_VALUE: luaV_settable:key <- %R15
	##DEBUG_VALUE: luaV_settable:val <- %R13
	##DEBUG_VALUE: h <- %R12
	.loc	1 493 3                 ## /Users/dylan/github/ravi/src/lvm.c:493:3
	movq	(%r15), %rax
Ltmp351:
	##DEBUG_VALUE: ukey <- %EAX
	cmpl	64(%r12), %eax
	jae	LBB7_30
Ltmp352:
## BB#29:
	##DEBUG_VALUE: luaV_settable:val <- %R13
	##DEBUG_VALUE: h <- %R12
	##DEBUG_VALUE: ukey <- %EAX
	movq	56(%r12), %rcx
Ltmp353:
	##DEBUG_VALUE: data <- %RCX
	.loc	1 493 3                 ## /Users/dylan/github/ravi/src/lvm.c:493:3
	cvtsi2sdq	(%r13), %xmm0
	jmp	LBB7_41
Ltmp354:
LBB7_31:
	##DEBUG_VALUE: luaV_settable:L <- %R14
	##DEBUG_VALUE: luaV_settable:key <- %R15
	##DEBUG_VALUE: luaV_settable:val <- %R13
	.loc	1 83 12 is_stmt 1       ## /Users/dylan/github/ravi/src/lvm.c:83:12
	andl	$15, %eax
	.loc	1 83 25 is_stmt 0       ## /Users/dylan/github/ravi/src/lvm.c:83:25
	cmpl	$4, %eax
	jne	LBB7_42
Ltmp355:
## BB#32:
	##DEBUG_VALUE: luaV_settable:L <- %R14
	##DEBUG_VALUE: luaV_settable:key <- %R15
	##DEBUG_VALUE: luaV_settable:val <- %R13
	.loc	1 84 26 is_stmt 1       ## /Users/dylan/github/ravi/src/lvm.c:84:26
	movq	(%r13), %rdi
	addq	$24, %rdi
	leaq	-56(%rbp), %rsi
Ltmp356:
	##DEBUG_VALUE: luaV_tonumber_:v <- [%RSI+0]
	##DEBUG_VALUE: luaV_tonumber_:obj <- %R13
	.loc	1 84 13 is_stmt 0       ## /Users/dylan/github/ravi/src/lvm.c:84:13
	callq	_luaO_str2num
	.loc	1 84 46                 ## /Users/dylan/github/ravi/src/lvm.c:84:46
	movq	(%r13), %rdx
	movl	8(%rdx), %ecx
	movzbl	%cl, %esi
Ltmp357:
	cmpl	$4, %esi
	jne	LBB7_34
Ltmp358:
## BB#33:
	##DEBUG_VALUE: luaV_settable:L <- %R14
	##DEBUG_VALUE: luaV_settable:key <- %R15
	shrl	$24, %ecx
	jmp	LBB7_35
Ltmp359:
LBB7_44:
	##DEBUG_VALUE: luaV_settable:L <- %R14
	##DEBUG_VALUE: luaV_settable:key <- %R15
	##DEBUG_VALUE: luaV_settable:val <- %R13
	##DEBUG_VALUE: i <- 0
	##DEBUG_VALUE: luaV_tointeger:mode <- 0
	leaq	-56(%rbp), %rbx
	jmp	LBB7_45
Ltmp360:
	.align	4, 0x90
LBB7_56:                                ## %._crit_edge
                                        ##   in Loop: Header=BB7_45 Depth=1
	##DEBUG_VALUE: luaV_settable:L <- %R14
	##DEBUG_VALUE: luaV_settable:key <- %R15
	##DEBUG_VALUE: luaV_tointeger:v <- [%RBX+0]
	.loc	1 102 7 is_stmt 1       ## /Users/dylan/github/ravi/src/lvm.c:102:7
	movl	-48(%rbp), %eax
Ltmp361:
	.loc	1 129 10                ## /Users/dylan/github/ravi/src/lvm.c:129:10
	movq	%rbx, %r13
Ltmp362:
LBB7_45:                                ## =>This Inner Loop Header: Depth=1
	##DEBUG_VALUE: luaV_settable:L <- %R14
	##DEBUG_VALUE: luaV_settable:key <- %R15
	##DEBUG_VALUE: i <- 0
	##DEBUG_VALUE: luaV_tointeger:mode <- 0
	.loc	1 102 7                 ## /Users/dylan/github/ravi/src/lvm.c:102:7
	cmpl	$19, %eax
	je	LBB7_57
Ltmp363:
## BB#46:                               ##   in Loop: Header=BB7_45 Depth=1
	##DEBUG_VALUE: luaV_settable:L <- %R14
	##DEBUG_VALUE: luaV_settable:key <- %R15
	cmpl	$3, %eax
	je	LBB7_47
Ltmp364:
## BB#51:                               ##   in Loop: Header=BB7_45 Depth=1
	##DEBUG_VALUE: luaV_settable:L <- %R14
	##DEBUG_VALUE: luaV_settable:key <- %R15
	.loc	1 116 12                ## /Users/dylan/github/ravi/src/lvm.c:116:12
	andl	$15, %eax
	.loc	1 116 25 is_stmt 0      ## /Users/dylan/github/ravi/src/lvm.c:116:25
	cmpl	$4, %eax
	jne	LBB7_61
Ltmp365:
## BB#52:                               ##   in Loop: Header=BB7_45 Depth=1
	##DEBUG_VALUE: luaV_settable:L <- %R14
	##DEBUG_VALUE: luaV_settable:key <- %R15
	.loc	1 117 26 is_stmt 1      ## /Users/dylan/github/ravi/src/lvm.c:117:26
	movq	(%r13), %rdi
	addq	$24, %rdi
Ltmp366:
	##DEBUG_VALUE: luaV_tointeger:v <- [%RBX+0]
	.loc	1 117 13 is_stmt 0      ## /Users/dylan/github/ravi/src/lvm.c:117:13
	movq	%rbx, %rsi
	callq	_luaO_str2num
	.loc	1 117 46                ## /Users/dylan/github/ravi/src/lvm.c:117:46
	movq	(%r13), %rdx
	movl	8(%rdx), %ecx
	movzbl	%cl, %esi
	cmpl	$4, %esi
	jne	LBB7_54
Ltmp367:
## BB#53:                               ##   in Loop: Header=BB7_45 Depth=1
	##DEBUG_VALUE: luaV_settable:L <- %R14
	##DEBUG_VALUE: luaV_settable:key <- %R15
	##DEBUG_VALUE: luaV_tointeger:v <- [%RBX+0]
	shrl	$24, %ecx
	jmp	LBB7_55
Ltmp368:
LBB7_54:                                ##   in Loop: Header=BB7_45 Depth=1
	##DEBUG_VALUE: luaV_settable:L <- %R14
	##DEBUG_VALUE: luaV_settable:key <- %R15
	##DEBUG_VALUE: luaV_tointeger:v <- [%RBX+0]
	movq	16(%rdx), %rcx
Ltmp369:
LBB7_55:                                ##   in Loop: Header=BB7_45 Depth=1
	##DEBUG_VALUE: luaV_settable:L <- %R14
	##DEBUG_VALUE: luaV_settable:key <- %R15
	##DEBUG_VALUE: luaV_tointeger:v <- [%RBX+0]
	.loc	1 117 57                ## /Users/dylan/github/ravi/src/lvm.c:117:57
	incq	%rcx
Ltmp370:
	.loc	1 116 12 is_stmt 1      ## /Users/dylan/github/ravi/src/lvm.c:116:12
	cmpq	%rcx, %rax
	je	LBB7_56
	jmp	LBB7_61
Ltmp371:
LBB7_30:
	##DEBUG_VALUE: luaV_settable:L <- %R14
	##DEBUG_VALUE: luaV_settable:val <- %R13
	##DEBUG_VALUE: h <- %R12
	##DEBUG_VALUE: ukey <- %EAX
	.loc	1 493 3                 ## /Users/dylan/github/ravi/src/lvm.c:493:3
	movl	%eax, %edx
	movq	(%r13), %rax
Ltmp372:
	cvtsi2sdq	%rax, %xmm0
Ltmp373:
LBB7_27:
	.loc	1 493 3 is_stmt 0       ## /Users/dylan/github/ravi/src/lvm.c:493:3
	movq	%r14, %rdi
	movq	%r12, %rsi
	addq	$24, %rsp
	popq	%rbx
	popq	%r12
	popq	%r13
	popq	%r14
	popq	%r15
	popq	%rbp
	jmp	_raviH_set_float        ## TAILCALL
Ltmp374:
LBB7_34:
	##DEBUG_VALUE: luaV_settable:L <- %R14
	##DEBUG_VALUE: luaV_settable:key <- %R15
	.loc	1 84 46 is_stmt 1       ## /Users/dylan/github/ravi/src/lvm.c:84:46
	movq	16(%rdx), %rcx
Ltmp375:
LBB7_35:
	##DEBUG_VALUE: luaV_settable:L <- %R14
	##DEBUG_VALUE: luaV_settable:key <- %R15
	.loc	1 84 57 is_stmt 0       ## /Users/dylan/github/ravi/src/lvm.c:84:57
	incq	%rcx
Ltmp376:
	.loc	1 83 12 is_stmt 1       ## /Users/dylan/github/ravi/src/lvm.c:83:12
	cmpq	%rcx, %rax
	jne	LBB7_42
Ltmp377:
## BB#36:
	##DEBUG_VALUE: luaV_settable:L <- %R14
	##DEBUG_VALUE: luaV_settable:key <- %R15
	.loc	1 85 10                 ## /Users/dylan/github/ravi/src/lvm.c:85:10
	cmpl	$19, -48(%rbp)
	movq	-56(%rbp), %rax
	jne	LBB7_38
Ltmp378:
## BB#37:
	##DEBUG_VALUE: luaV_settable:L <- %R14
	##DEBUG_VALUE: luaV_settable:key <- %R15
	cvtsi2sdq	%rax, %xmm0
	jmp	LBB7_39
Ltmp379:
LBB7_38:                                ## %select.false
	##DEBUG_VALUE: luaV_settable:L <- %R14
	##DEBUG_VALUE: luaV_settable:key <- %R15
	movd	%rax, %xmm0
Ltmp380:
LBB7_39:                                ## %select.end
	##DEBUG_VALUE: luaV_settable:L <- %R14
	##DEBUG_VALUE: luaV_settable:key <- %R15
	.loc	1 493 3                 ## /Users/dylan/github/ravi/src/lvm.c:493:3
	movq	(%r15), %rax
Ltmp381:
	##DEBUG_VALUE: ukey <- %EAX
	cmpl	64(%r12), %eax
	jae	LBB7_63
Ltmp382:
## BB#40:
	##DEBUG_VALUE: ukey <- %EAX
	movq	56(%r12), %rcx
Ltmp383:
LBB7_41:
	##DEBUG_VALUE: data <- %RCX
	.loc	1 493 3 is_stmt 0       ## /Users/dylan/github/ravi/src/lvm.c:493:3
	movl	%eax, %eax
	movsd	%xmm0, (%rcx,%rax,8)
	jmp	LBB7_64
Ltmp384:
LBB7_63:
	##DEBUG_VALUE: luaV_settable:L <- %R14
	##DEBUG_VALUE: ukey <- %EAX
	.loc	1 493 3                 ## /Users/dylan/github/ravi/src/lvm.c:493:3
	movl	%eax, %edx
	movq	%r14, %rdi
	movq	%r12, %rsi
	callq	_raviH_set_float
	jmp	LBB7_64
Ltmp385:
LBB7_6:
	##DEBUG_VALUE: luaV_settable:L <- %R14
	##DEBUG_VALUE: luaV_settable:val <- %R13
	##DEBUG_VALUE: h <- %R12
	##DEBUG_VALUE: ukey <- %EAX
	.loc	1 493 3                 ## /Users/dylan/github/ravi/src/lvm.c:493:3
	movl	%eax, %edx
Ltmp386:
	##DEBUG_VALUE: luaV_tointeger:obj <- %R13
	movq	(%r13), %rcx
	movq	%r14, %rdi
	movq	%r12, %rsi
	addq	$24, %rsp
	popq	%rbx
	popq	%r12
Ltmp387:
	popq	%r13
Ltmp388:
	popq	%r14
Ltmp389:
	popq	%r15
	popq	%rbp
	jmp	_raviH_set_int          ## TAILCALL
Ltmp390:
LBB7_57:
	##DEBUG_VALUE: luaV_settable:L <- %R14
	##DEBUG_VALUE: luaV_settable:key <- %R15
	##DEBUG_VALUE: i <- 0
	##DEBUG_VALUE: luaV_tointeger:mode <- 0
	.loc	1 113 10 is_stmt 1      ## /Users/dylan/github/ravi/src/lvm.c:113:10
	movq	(%r13), %rcx
	jmp	LBB7_58
Ltmp391:
LBB7_47:
	##DEBUG_VALUE: luaV_settable:L <- %R14
	##DEBUG_VALUE: luaV_settable:key <- %R15
	.loc	1 103 20                ## /Users/dylan/github/ravi/src/lvm.c:103:20
	movsd	(%r13), %xmm0           ## xmm0 = mem[0],zero
Ltmp392:
	##DEBUG_VALUE: n <- %XMM0
	.loc	1 104 20                ## /Users/dylan/github/ravi/src/lvm.c:104:20
	movsd	%xmm0, -64(%rbp)        ## 8-byte Spill
Ltmp393:
	##DEBUG_VALUE: n <- [%RBP+-64]
	callq	_floor
Ltmp394:
	##DEBUG_VALUE: f <- %XMM0
	.loc	1 105 9                 ## /Users/dylan/github/ravi/src/lvm.c:105:9
	movsd	-64(%rbp), %xmm1        ## 8-byte Reload
                                        ## xmm1 = mem[0],zero
	ucomisd	%xmm0, %xmm1
	jne	LBB7_61
	jp	LBB7_61
Ltmp395:
## BB#48:
	##DEBUG_VALUE: luaV_settable:L <- %R14
	##DEBUG_VALUE: luaV_settable:key <- %R15
	##DEBUG_VALUE: f <- %XMM0
	.loc	1 110 12                ## /Users/dylan/github/ravi/src/lvm.c:110:12
	ucomisd	LCPI7_0(%rip), %xmm0
	jb	LBB7_61
Ltmp396:
## BB#49:
	##DEBUG_VALUE: luaV_settable:L <- %R14
	##DEBUG_VALUE: luaV_settable:key <- %R15
	movsd	LCPI7_1(%rip), %xmm1    ## xmm1 = mem[0],zero
	ucomisd	%xmm0, %xmm1
	jbe	LBB7_61
Ltmp397:
## BB#50:
	##DEBUG_VALUE: luaV_settable:L <- %R14
	##DEBUG_VALUE: luaV_settable:key <- %R15
	cvttsd2si	%xmm0, %rcx
Ltmp398:
LBB7_58:
	##DEBUG_VALUE: luaV_settable:L <- %R14
	##DEBUG_VALUE: luaV_settable:key <- %R15
	##DEBUG_VALUE: i <- 0
	.loc	1 493 3                 ## /Users/dylan/github/ravi/src/lvm.c:493:3
	movq	(%r15), %rax
Ltmp399:
	##DEBUG_VALUE: ukey <- %EAX
	cmpl	64(%r12), %eax
	jae	LBB7_60
Ltmp400:
## BB#59:
	##DEBUG_VALUE: i <- 0
	##DEBUG_VALUE: ukey <- %EAX
	movq	56(%r12), %rdx
Ltmp401:
	##DEBUG_VALUE: data <- %RDX
	.loc	1 493 3 is_stmt 0       ## /Users/dylan/github/ravi/src/lvm.c:493:3
	movl	%eax, %eax
Ltmp402:
	movq	%rcx, (%rdx,%rax,8)
	jmp	LBB7_64
Ltmp403:
LBB7_60:
	##DEBUG_VALUE: luaV_settable:L <- %R14
	##DEBUG_VALUE: i <- 0
	##DEBUG_VALUE: ukey <- %EAX
	.loc	1 493 3                 ## /Users/dylan/github/ravi/src/lvm.c:493:3
	movl	%eax, %edx
	movq	%r14, %rdi
	movq	%r12, %rsi
	callq	_raviH_set_int
	jmp	LBB7_64
Ltmp404:
LBB7_61:                                ## %.loopexit
	##DEBUG_VALUE: luaV_settable:L <- %R14
	.loc	1 493 3                 ## /Users/dylan/github/ravi/src/lvm.c:493:3
	leaq	L_.str.5(%rip), %rsi
Ltmp405:
LBB7_43:
	.loc	1 493 3                 ## /Users/dylan/github/ravi/src/lvm.c:493:3
	xorl	%eax, %eax
	movq	%r14, %rdi
	callq	_luaG_runerror
Ltmp406:
LBB7_65:
	##DEBUG_VALUE: luaV_settable:L <- %R14
	##DEBUG_VALUE: luaV_settable:key <- %R15
	.loc	1 493 3                 ## /Users/dylan/github/ravi/src/lvm.c:493:3
	leaq	L_.str(%rip), %rdx
	movq	%r14, %rdi
	movq	%r15, %rsi
	callq	_luaG_typeerror
Ltmp407:
LBB7_42:
	##DEBUG_VALUE: luaV_settable:L <- %R14
	.loc	1 493 3                 ## /Users/dylan/github/ravi/src/lvm.c:493:3
	leaq	L_.str.4(%rip), %rsi
	jmp	LBB7_43
Ltmp408:
Lfunc_end7:
	.cfi_endproc

	.section	__TEXT,__literal8,8byte_literals
	.align	3
LCPI8_0:
	.quad	4890909195324358656     ## double 9.2233720368547758E+18
LCPI8_1:
	.quad	-4332462841530417152    ## double -9.2233720368547758E+18
	.section	__TEXT,__text,regular,pure_instructions
	.globl	_luaV_lessthan
	.align	4, 0x90
_luaV_lessthan:                         ## @luaV_lessthan
Lfunc_begin8:
	.loc	1 620 0 is_stmt 1       ## /Users/dylan/github/ravi/src/lvm.c:620:0
	.cfi_startproc
## BB#0:
	pushq	%rbp
Ltmp409:
	.cfi_def_cfa_offset 16
Ltmp410:
	.cfi_offset %rbp, -16
	movq	%rsp, %rbp
Ltmp411:
	.cfi_def_cfa_register %rbp
	pushq	%r15
	pushq	%r14
	pushq	%r12
	pushq	%rbx
Ltmp412:
	.cfi_offset %rbx, -48
Ltmp413:
	.cfi_offset %r12, -40
Ltmp414:
	.cfi_offset %r14, -32
Ltmp415:
	.cfi_offset %r15, -24
	##DEBUG_VALUE: luaV_lessthan:L <- %RDI
	##DEBUG_VALUE: luaV_lessthan:l <- %RSI
	##DEBUG_VALUE: luaV_lessthan:r <- %RDX
	movq	%rdx, %r14
Ltmp416:
	##DEBUG_VALUE: luaV_lessthan:r <- %R14
	movq	%rsi, %rbx
Ltmp417:
	##DEBUG_VALUE: luaV_lessthan:l <- %RBX
	movq	%rdi, %r15
Ltmp418:
	##DEBUG_VALUE: luaV_lessthan:L <- %R15
	.loc	1 624 12 prologue_end   ## /Users/dylan/github/ravi/src/lvm.c:624:12
	movl	8(%rbx), %edx
Ltmp419:
	.loc	1 622 7                 ## /Users/dylan/github/ravi/src/lvm.c:622:7
	movl	%edx, %eax
	andl	$15, %eax
	.loc	1 622 21 is_stmt 0      ## /Users/dylan/github/ravi/src/lvm.c:622:21
	cmpl	$4, %eax
	je	LBB8_25
Ltmp420:
## BB#1:
	##DEBUG_VALUE: luaV_lessthan:L <- %R15
	##DEBUG_VALUE: luaV_lessthan:l <- %RBX
	##DEBUG_VALUE: luaV_lessthan:r <- %R14
	cmpl	$3, %eax
	jne	LBB8_38
Ltmp421:
## BB#2:
	##DEBUG_VALUE: luaV_lessthan:L <- %R15
	##DEBUG_VALUE: luaV_lessthan:l <- %RBX
	##DEBUG_VALUE: luaV_lessthan:r <- %R14
	.loc	1 622 24                ## /Users/dylan/github/ravi/src/lvm.c:622:24
	movl	8(%r14), %esi
	movl	%esi, %eax
	andl	$15, %eax
Ltmp422:
	.loc	1 622 7                 ## /Users/dylan/github/ravi/src/lvm.c:622:7
	cmpl	$3, %eax
	jne	LBB8_38
Ltmp423:
## BB#3:
	##DEBUG_VALUE: luaV_lessthan:l <- %RBX
	##DEBUG_VALUE: luaV_lessthan:r <- %R14
	movabsq	$18014398509481985, %rax ## imm = 0x40000000000001
	movabsq	$9007199254740992, %rcx ## imm = 0x20000000000000
	.loc	1 575 7 is_stmt 1       ## /Users/dylan/github/ravi/src/lvm.c:575:7
Ltmp424:
	cmpl	$19, %edx
	jne	LBB8_13
Ltmp425:
## BB#4:
	##DEBUG_VALUE: luaV_lessthan:l <- %RBX
	##DEBUG_VALUE: luaV_lessthan:r <- %R14
	.loc	1 576 22                ## /Users/dylan/github/ravi/src/lvm.c:576:22
	movq	(%rbx), %rdx
Ltmp426:
	##DEBUG_VALUE: li <- %RDX
	##DEBUG_VALUE: LTintfloat:i <- %RDX
	.loc	1 577 9                 ## /Users/dylan/github/ravi/src/lvm.c:577:9
	cmpl	$19, %esi
	jne	LBB8_6
Ltmp427:
## BB#5:
	##DEBUG_VALUE: luaV_lessthan:r <- %R14
	##DEBUG_VALUE: li <- %RDX
	.loc	1 578 17                ## /Users/dylan/github/ravi/src/lvm.c:578:17
	cmpq	(%r14), %rdx
	setl	%al
	movzbl	%al, %eax
	jmp	LBB8_39
Ltmp428:
LBB8_25:
	##DEBUG_VALUE: luaV_lessthan:L <- %R15
	##DEBUG_VALUE: luaV_lessthan:l <- %RBX
	##DEBUG_VALUE: luaV_lessthan:r <- %R14
	.loc	1 624 29                ## /Users/dylan/github/ravi/src/lvm.c:624:29
	movl	8(%r14), %eax
	andl	$15, %eax
Ltmp429:
	.loc	1 624 12 is_stmt 0      ## /Users/dylan/github/ravi/src/lvm.c:624:12
	cmpl	$4, %eax
	jne	LBB8_38
Ltmp430:
## BB#26:
	##DEBUG_VALUE: luaV_lessthan:l <- %RBX
	##DEBUG_VALUE: luaV_lessthan:r <- %R14
	.loc	1 625 21 is_stmt 1      ## /Users/dylan/github/ravi/src/lvm.c:625:21
	movq	(%rbx), %r12
Ltmp431:
	##DEBUG_VALUE: l_strcmp:ls <- %R12
	.loc	1 625 33 is_stmt 0      ## /Users/dylan/github/ravi/src/lvm.c:625:33
	movq	(%r14), %rax
Ltmp432:
	##DEBUG_VALUE: l_strcmp:rs <- %RAX
	.loc	1 506 15 is_stmt 1      ## /Users/dylan/github/ravi/src/lvm.c:506:15
	movl	8(%r12), %r15d
	movzbl	%r15b, %ecx
	cmpl	$4, %ecx
	jne	LBB8_28
Ltmp433:
## BB#27:
	##DEBUG_VALUE: l_strcmp:ls <- %R12
	##DEBUG_VALUE: l_strcmp:rs <- %RAX
	shrl	$24, %r15d
	jmp	LBB8_29
Ltmp434:
LBB8_38:                                ## %.thread
	##DEBUG_VALUE: luaV_lessthan:L <- %R15
	##DEBUG_VALUE: luaV_lessthan:l <- %RBX
	##DEBUG_VALUE: luaV_lessthan:r <- %R14
	.loc	1 626 19                ## /Users/dylan/github/ravi/src/lvm.c:626:19
	movl	$20, %ecx
	movq	%r15, %rdi
	movq	%rbx, %rsi
	movq	%r14, %rdx
	callq	_luaT_callorderTM
Ltmp435:
	##DEBUG_VALUE: luaV_lessthan:res <- %EAX
	.loc	1 626 12 is_stmt 0      ## /Users/dylan/github/ravi/src/lvm.c:626:12
	testl	%eax, %eax
	jns	LBB8_39
Ltmp436:
## BB#40:
	##DEBUG_VALUE: luaV_lessthan:L <- %R15
	##DEBUG_VALUE: luaV_lessthan:l <- %RBX
	##DEBUG_VALUE: luaV_lessthan:r <- %R14
	.loc	1 627 5 is_stmt 1       ## /Users/dylan/github/ravi/src/lvm.c:627:5
	movq	%r15, %rdi
	movq	%rbx, %rsi
	movq	%r14, %rdx
	callq	_luaG_ordererror
Ltmp437:
LBB8_28:
	##DEBUG_VALUE: l_strcmp:ls <- %R12
	##DEBUG_VALUE: l_strcmp:rs <- %RAX
	.loc	1 506 15                ## /Users/dylan/github/ravi/src/lvm.c:506:15
	movq	16(%r12), %r15
Ltmp438:
LBB8_29:
	##DEBUG_VALUE: l_strcmp:ls <- %R12
	##DEBUG_VALUE: l_strcmp:rs <- %RAX
	.loc	1 505 19                ## /Users/dylan/github/ravi/src/lvm.c:505:19
	addq	$24, %r12
Ltmp439:
	.loc	1 507 19                ## /Users/dylan/github/ravi/src/lvm.c:507:19
	leaq	24(%rax), %r14
	.loc	1 508 15                ## /Users/dylan/github/ravi/src/lvm.c:508:15
	movl	8(%rax), %ebx
	movzbl	%bl, %ecx
	cmpl	$4, %ecx
	jne	LBB8_31
Ltmp440:
## BB#30:
	shrl	$24, %ebx
	jmp	LBB8_32
LBB8_31:
Ltmp441:
	##DEBUG_VALUE: l_strcmp:rs <- %RAX
	movq	16(%rax), %rbx
	jmp	LBB8_32
Ltmp442:
	.align	4, 0x90
LBB8_37:                                ##   in Loop: Header=BB8_32 Depth=1
	##DEBUG_VALUE: len <- %RCX
	.loc	1 520 10                ## /Users/dylan/github/ravi/src/lvm.c:520:10
	leaq	1(%rcx), %rax
Ltmp443:
	##DEBUG_VALUE: len <- %RAX
	.loc	1 521 9                 ## /Users/dylan/github/ravi/src/lvm.c:521:9
	leaq	1(%r12,%rcx), %r12
Ltmp444:
	##DEBUG_VALUE: l_strcmp:l <- %R12
	.loc	1 521 20 is_stmt 0      ## /Users/dylan/github/ravi/src/lvm.c:521:20
	subq	%rax, %r15
Ltmp445:
	##DEBUG_VALUE: l_strcmp:ll <- %R15
	.loc	1 521 30                ## /Users/dylan/github/ravi/src/lvm.c:521:30
	leaq	1(%r14,%rcx), %r14
Ltmp446:
	##DEBUG_VALUE: l_strcmp:r <- %R14
	.loc	1 521 41                ## /Users/dylan/github/ravi/src/lvm.c:521:41
	subq	%rax, %rbx
Ltmp447:
LBB8_32:                                ## %.preheader.i
                                        ## =>This Inner Loop Header: Depth=1
	.loc	1 510 16 is_stmt 1      ## /Users/dylan/github/ravi/src/lvm.c:510:16
	movq	%r12, %rdi
	movq	%r14, %rsi
	callq	_strcoll
Ltmp448:
	##DEBUG_VALUE: temp <- %EAX
	.loc	1 511 9                 ## /Users/dylan/github/ravi/src/lvm.c:511:9
	testl	%eax, %eax
	jne	LBB8_35
Ltmp449:
## BB#33:                               ## %.lr.ph.i
                                        ##   in Loop: Header=BB8_32 Depth=1
	.loc	1 514 20                ## /Users/dylan/github/ravi/src/lvm.c:514:20
	movq	%r12, %rdi
	callq	_strlen
	movq	%rax, %rcx
Ltmp450:
	##DEBUG_VALUE: len <- %RCX
	.loc	1 515 11                ## /Users/dylan/github/ravi/src/lvm.c:515:11
	cmpq	%rbx, %rcx
	je	LBB8_34
Ltmp451:
## BB#36:                               ##   in Loop: Header=BB8_32 Depth=1
	##DEBUG_VALUE: len <- %RCX
	movl	$-1, %eax
	cmpq	%r15, %rcx
	jne	LBB8_37
	jmp	LBB8_35
Ltmp452:
LBB8_13:
	##DEBUG_VALUE: luaV_lessthan:l <- %RBX
	##DEBUG_VALUE: luaV_lessthan:r <- %R14
	.loc	1 583 21                ## /Users/dylan/github/ravi/src/lvm.c:583:21
	movsd	(%rbx), %xmm0           ## xmm0 = mem[0],zero
Ltmp453:
	##DEBUG_VALUE: lf <- %XMM0
	##DEBUG_VALUE: LTnum:l <- %RBX
	##DEBUG_VALUE: LEintfloat:f <- %XMM0
	.loc	1 584 9                 ## /Users/dylan/github/ravi/src/lvm.c:584:9
	cmpl	$3, %esi
	jne	LBB8_15
Ltmp454:
## BB#14:
	##DEBUG_VALUE: luaV_lessthan:r <- %R14
	##DEBUG_VALUE: LTnum:l <- %RBX
	##DEBUG_VALUE: lf <- %XMM0
	.loc	1 585 14                ## /Users/dylan/github/ravi/src/lvm.c:585:14
	movsd	(%r14), %xmm1           ## xmm1 = mem[0],zero
	ucomisd	%xmm0, %xmm1
	seta	%al
Ltmp455:
	.loc	1 623 12                ## /Users/dylan/github/ravi/src/lvm.c:623:12
	movzbl	%al, %eax
	jmp	LBB8_39
Ltmp456:
LBB8_6:
	##DEBUG_VALUE: luaV_lessthan:r <- %R14
	##DEBUG_VALUE: LTintfloat:i <- %RDX
	##DEBUG_VALUE: li <- %RDX
	.loc	1 580 29                ## /Users/dylan/github/ravi/src/lvm.c:580:29
	movsd	(%r14), %xmm0           ## xmm0 = mem[0],zero
Ltmp457:
	##DEBUG_VALUE: LTintfloat:f <- %XMM0
	.loc	1 539 8                 ## /Users/dylan/github/ravi/src/lvm.c:539:8
	addq	%rdx, %rcx
	cmpq	%rax, %rcx
	jae	LBB8_7
Ltmp458:
## BB#11:
	##DEBUG_VALUE: LTintfloat:i <- %RDX
	##DEBUG_VALUE: li <- %RDX
	##DEBUG_VALUE: LTintfloat:f <- %XMM0
	.loc	1 548 10                ## /Users/dylan/github/ravi/src/lvm.c:548:10
	cvtsi2sdq	%rdx, %xmm1
	ucomisd	%xmm1, %xmm0
	seta	%al
	jmp	LBB8_12
Ltmp459:
LBB8_15:
	##DEBUG_VALUE: luaV_lessthan:r <- %R14
	##DEBUG_VALUE: LTnum:l <- %RBX
	##DEBUG_VALUE: lf <- %XMM0
	.loc	1 586 14                ## /Users/dylan/github/ravi/src/lvm.c:586:14
	ucomisd	%xmm0, %xmm0
	jp	LBB8_16
Ltmp460:
## BB#17:
	##DEBUG_VALUE: luaV_lessthan:r <- %R14
	##DEBUG_VALUE: LTnum:l <- %RBX
	##DEBUG_VALUE: lf <- %XMM0
	.loc	1 589 26                ## /Users/dylan/github/ravi/src/lvm.c:589:26
	movq	(%r14), %rdx
Ltmp461:
	##DEBUG_VALUE: LTnum:r <- %R14
	##DEBUG_VALUE: LEintfloat:i <- %RDX
	.loc	1 558 8                 ## /Users/dylan/github/ravi/src/lvm.c:558:8
	addq	%rdx, %rcx
	cmpq	%rax, %rcx
	jae	LBB8_18
Ltmp462:
## BB#22:
	##DEBUG_VALUE: LTnum:l <- %RBX
	##DEBUG_VALUE: lf <- %XMM0
	##DEBUG_VALUE: LEintfloat:i <- %RDX
	##DEBUG_VALUE: LTnum:r <- %R14
	.loc	1 567 10                ## /Users/dylan/github/ravi/src/lvm.c:567:10
	cvtsi2sdq	%rdx, %xmm1
	ucomisd	%xmm1, %xmm0
	setae	%al
	jmp	LBB8_23
Ltmp463:
LBB8_34:
	##DEBUG_VALUE: len <- %RCX
	.loc	1 516 16                ## /Users/dylan/github/ravi/src/lvm.c:516:16
	cmpq	%r15, %rcx
	setne	%al
	movzbl	%al, %eax
Ltmp464:
LBB8_35:                                ## %l_strcmp.exit
	.loc	1 625 45                ## /Users/dylan/github/ravi/src/lvm.c:625:45
	shrl	$31, %eax
Ltmp465:
LBB8_39:                                ## %LTnum.exit
	.loc	1 629 1                 ## /Users/dylan/github/ravi/src/lvm.c:629:1
	popq	%rbx
	popq	%r12
	popq	%r14
	popq	%r15
	popq	%rbp
	retq
LBB8_7:
Ltmp466:
	##DEBUG_VALUE: LTintfloat:i <- %RDX
	##DEBUG_VALUE: li <- %RDX
	##DEBUG_VALUE: LTintfloat:f <- %XMM0
	movb	$1, %al
	.loc	1 540 9                 ## /Users/dylan/github/ravi/src/lvm.c:540:9
Ltmp467:
	ucomisd	LCPI8_0(%rip), %xmm0
	jae	LBB8_12
Ltmp468:
## BB#8:
	##DEBUG_VALUE: LTintfloat:i <- %RDX
	##DEBUG_VALUE: li <- %RDX
	##DEBUG_VALUE: LTintfloat:f <- %XMM0
	.loc	1 542 14                ## /Users/dylan/github/ravi/src/lvm.c:542:14
	ucomisd	LCPI8_1(%rip), %xmm0
	jbe	LBB8_9
Ltmp469:
## BB#10:
	##DEBUG_VALUE: LTintfloat:i <- %RDX
	##DEBUG_VALUE: li <- %RDX
	##DEBUG_VALUE: LTintfloat:f <- %XMM0
	.loc	1 543 19                ## /Users/dylan/github/ravi/src/lvm.c:543:19
	cvttsd2si	%xmm0, %rax
	.loc	1 543 17 is_stmt 0      ## /Users/dylan/github/ravi/src/lvm.c:543:17
	cmpq	%rdx, %rax
	setg	%al
Ltmp470:
	.loc	1 580 14 is_stmt 1      ## /Users/dylan/github/ravi/src/lvm.c:580:14
	movzbl	%al, %eax
	jmp	LBB8_39
Ltmp471:
LBB8_12:                                ## %LTintfloat.exit.i
	movzbl	%al, %eax
	jmp	LBB8_39
Ltmp472:
LBB8_16:
	xorl	%eax, %eax
	.loc	1 623 12                ## /Users/dylan/github/ravi/src/lvm.c:623:12
	movzbl	%al, %eax
	jmp	LBB8_39
LBB8_18:
Ltmp473:
	##DEBUG_VALUE: LTnum:l <- %RBX
	##DEBUG_VALUE: lf <- %XMM0
	##DEBUG_VALUE: LEintfloat:i <- %RDX
	##DEBUG_VALUE: LTnum:r <- %R14
	movb	$1, %al
	.loc	1 559 9                 ## /Users/dylan/github/ravi/src/lvm.c:559:9
Ltmp474:
	ucomisd	LCPI8_0(%rip), %xmm0
	jae	LBB8_23
Ltmp475:
## BB#19:
	##DEBUG_VALUE: LTnum:l <- %RBX
	##DEBUG_VALUE: lf <- %XMM0
	##DEBUG_VALUE: LEintfloat:i <- %RDX
	##DEBUG_VALUE: LTnum:r <- %R14
	.loc	1 561 16                ## /Users/dylan/github/ravi/src/lvm.c:561:16
	ucomisd	LCPI8_1(%rip), %xmm0
	jae	LBB8_21
Ltmp476:
## BB#20:
	xorl	%eax, %eax
	jmp	LBB8_23
LBB8_9:
	xorl	%eax, %eax
	.loc	1 580 14                ## /Users/dylan/github/ravi/src/lvm.c:580:14
Ltmp477:
	movzbl	%al, %eax
	jmp	LBB8_39
Ltmp478:
LBB8_21:
	##DEBUG_VALUE: LTnum:l <- %RBX
	##DEBUG_VALUE: lf <- %XMM0
	##DEBUG_VALUE: LEintfloat:i <- %RDX
	##DEBUG_VALUE: LTnum:r <- %R14
	.loc	1 562 20                ## /Users/dylan/github/ravi/src/lvm.c:562:20
	cvttsd2si	%xmm0, %rax
	.loc	1 562 17 is_stmt 0      ## /Users/dylan/github/ravi/src/lvm.c:562:17
	cmpq	%rdx, %rax
	setge	%al
Ltmp479:
LBB8_23:                                ## %LEintfloat.exit.i
	##DEBUG_VALUE: LTnum:l <- %RBX
	##DEBUG_VALUE: LTnum:r <- %R14
	.loc	1 589 14 is_stmt 1      ## /Users/dylan/github/ravi/src/lvm.c:589:14
	xorb	$1, %al
Ltmp480:
	.loc	1 623 12                ## /Users/dylan/github/ravi/src/lvm.c:623:12
	movzbl	%al, %eax
	jmp	LBB8_39
Ltmp481:
Lfunc_end8:
	.cfi_endproc

	.section	__TEXT,__literal8,8byte_literals
	.align	3
LCPI9_0:
	.quad	4890909195324358656     ## double 9.2233720368547758E+18
LCPI9_1:
	.quad	-4332462841530417152    ## double -9.2233720368547758E+18
	.section	__TEXT,__text,regular,pure_instructions
	.globl	_luaV_lessequal
	.align	4, 0x90
_luaV_lessequal:                        ## @luaV_lessequal
Lfunc_begin9:
	.loc	1 640 0                 ## /Users/dylan/github/ravi/src/lvm.c:640:0
	.cfi_startproc
## BB#0:
	pushq	%rbp
Ltmp482:
	.cfi_def_cfa_offset 16
Ltmp483:
	.cfi_offset %rbp, -16
	movq	%rsp, %rbp
Ltmp484:
	.cfi_def_cfa_register %rbp
	pushq	%r15
	pushq	%r14
	pushq	%r12
	pushq	%rbx
Ltmp485:
	.cfi_offset %rbx, -48
Ltmp486:
	.cfi_offset %r12, -40
Ltmp487:
	.cfi_offset %r14, -32
Ltmp488:
	.cfi_offset %r15, -24
	##DEBUG_VALUE: luaV_lessequal:L <- %RDI
	##DEBUG_VALUE: luaV_lessequal:l <- %RSI
	##DEBUG_VALUE: luaV_lessequal:r <- %RDX
	movq	%rdx, %r14
Ltmp489:
	##DEBUG_VALUE: luaV_lessequal:r <- %R14
	movq	%rsi, %rbx
Ltmp490:
	##DEBUG_VALUE: luaV_lessequal:l <- %RBX
	movq	%rdi, %r15
Ltmp491:
	##DEBUG_VALUE: luaV_lessequal:L <- %R15
	.loc	1 644 12 prologue_end   ## /Users/dylan/github/ravi/src/lvm.c:644:12
	movl	8(%rbx), %edx
Ltmp492:
	.loc	1 642 7                 ## /Users/dylan/github/ravi/src/lvm.c:642:7
	movl	%edx, %eax
	andl	$15, %eax
	.loc	1 642 21 is_stmt 0      ## /Users/dylan/github/ravi/src/lvm.c:642:21
	cmpl	$4, %eax
	je	LBB9_25
Ltmp493:
## BB#1:
	##DEBUG_VALUE: luaV_lessequal:L <- %R15
	##DEBUG_VALUE: luaV_lessequal:l <- %RBX
	##DEBUG_VALUE: luaV_lessequal:r <- %R14
	cmpl	$3, %eax
	jne	LBB9_39
Ltmp494:
## BB#2:
	##DEBUG_VALUE: luaV_lessequal:L <- %R15
	##DEBUG_VALUE: luaV_lessequal:l <- %RBX
	##DEBUG_VALUE: luaV_lessequal:r <- %R14
	.loc	1 642 24                ## /Users/dylan/github/ravi/src/lvm.c:642:24
	movl	8(%r14), %esi
	movl	%esi, %eax
	andl	$15, %eax
Ltmp495:
	.loc	1 642 7                 ## /Users/dylan/github/ravi/src/lvm.c:642:7
	cmpl	$3, %eax
	jne	LBB9_39
Ltmp496:
## BB#3:
	##DEBUG_VALUE: luaV_lessequal:l <- %RBX
	##DEBUG_VALUE: luaV_lessequal:r <- %R14
	movabsq	$18014398509481985, %rax ## imm = 0x40000000000001
	movabsq	$9007199254740992, %rcx ## imm = 0x20000000000000
	.loc	1 598 7 is_stmt 1       ## /Users/dylan/github/ravi/src/lvm.c:598:7
Ltmp497:
	cmpl	$19, %edx
	jne	LBB9_13
Ltmp498:
## BB#4:
	##DEBUG_VALUE: luaV_lessequal:l <- %RBX
	##DEBUG_VALUE: luaV_lessequal:r <- %R14
	.loc	1 599 22                ## /Users/dylan/github/ravi/src/lvm.c:599:22
	movq	(%rbx), %rdx
Ltmp499:
	##DEBUG_VALUE: li <- %RDX
	##DEBUG_VALUE: LEintfloat:i <- %RDX
	.loc	1 600 9                 ## /Users/dylan/github/ravi/src/lvm.c:600:9
	cmpl	$19, %esi
	jne	LBB9_6
Ltmp500:
## BB#5:
	##DEBUG_VALUE: luaV_lessequal:r <- %R14
	##DEBUG_VALUE: li <- %RDX
	.loc	1 601 17                ## /Users/dylan/github/ravi/src/lvm.c:601:17
	cmpq	(%r14), %rdx
Ltmp501:
	.loc	1 645 45                ## /Users/dylan/github/ravi/src/lvm.c:645:45
	setle	%al
	jmp	LBB9_42
Ltmp502:
LBB9_25:
	##DEBUG_VALUE: luaV_lessequal:L <- %R15
	##DEBUG_VALUE: luaV_lessequal:l <- %RBX
	##DEBUG_VALUE: luaV_lessequal:r <- %R14
	.loc	1 644 29                ## /Users/dylan/github/ravi/src/lvm.c:644:29
	movl	8(%r14), %eax
	andl	$15, %eax
Ltmp503:
	.loc	1 644 12 is_stmt 0      ## /Users/dylan/github/ravi/src/lvm.c:644:12
	cmpl	$4, %eax
	jne	LBB9_39
Ltmp504:
## BB#26:
	##DEBUG_VALUE: luaV_lessequal:l <- %RBX
	##DEBUG_VALUE: luaV_lessequal:r <- %R14
	.loc	1 645 21 is_stmt 1      ## /Users/dylan/github/ravi/src/lvm.c:645:21
	movq	(%rbx), %r12
Ltmp505:
	##DEBUG_VALUE: l_strcmp:ls <- %R12
	.loc	1 645 33 is_stmt 0      ## /Users/dylan/github/ravi/src/lvm.c:645:33
	movq	(%r14), %rax
Ltmp506:
	##DEBUG_VALUE: l_strcmp:rs <- %RAX
	.loc	1 506 15 is_stmt 1      ## /Users/dylan/github/ravi/src/lvm.c:506:15
	movl	8(%r12), %r15d
	movzbl	%r15b, %ecx
	cmpl	$4, %ecx
	jne	LBB9_28
Ltmp507:
## BB#27:
	##DEBUG_VALUE: l_strcmp:ls <- %R12
	##DEBUG_VALUE: l_strcmp:rs <- %RAX
	shrl	$24, %r15d
	jmp	LBB9_29
Ltmp508:
LBB9_39:                                ## %.thread
	##DEBUG_VALUE: luaV_lessequal:L <- %R15
	##DEBUG_VALUE: luaV_lessequal:l <- %RBX
	##DEBUG_VALUE: luaV_lessequal:r <- %R14
	.loc	1 646 19                ## /Users/dylan/github/ravi/src/lvm.c:646:19
	movl	$21, %ecx
	movq	%r15, %rdi
	movq	%rbx, %rsi
	movq	%r14, %rdx
	callq	_luaT_callorderTM
Ltmp509:
	##DEBUG_VALUE: luaV_lessequal:res <- %EAX
	.loc	1 646 53 is_stmt 0      ## /Users/dylan/github/ravi/src/lvm.c:646:53
	testl	%eax, %eax
	jns	LBB9_43
Ltmp510:
## BB#40:
	##DEBUG_VALUE: luaV_lessequal:L <- %R15
	##DEBUG_VALUE: luaV_lessequal:l <- %RBX
	##DEBUG_VALUE: luaV_lessequal:r <- %R14
	.loc	1 649 8 is_stmt 1       ## /Users/dylan/github/ravi/src/lvm.c:649:8
	movq	32(%r15), %rax
	.loc	1 649 23 is_stmt 0      ## /Users/dylan/github/ravi/src/lvm.c:649:23
	orw	$128, 66(%rax)
	.loc	1 650 11 is_stmt 1      ## /Users/dylan/github/ravi/src/lvm.c:650:11
	movl	$20, %ecx
	movq	%r15, %rdi
	movq	%r14, %rsi
	movq	%rbx, %rdx
	callq	_luaT_callorderTM
Ltmp511:
	##DEBUG_VALUE: luaV_lessequal:res <- %EAX
	.loc	1 651 8                 ## /Users/dylan/github/ravi/src/lvm.c:651:8
	movq	32(%r15), %rcx
	.loc	1 651 23 is_stmt 0      ## /Users/dylan/github/ravi/src/lvm.c:651:23
	xorw	$128, 66(%rcx)
	.loc	1 652 9 is_stmt 1       ## /Users/dylan/github/ravi/src/lvm.c:652:9
	testl	%eax, %eax
	js	LBB9_44
Ltmp512:
## BB#41:
	.loc	1 654 12                ## /Users/dylan/github/ravi/src/lvm.c:654:12
	sete	%al
	jmp	LBB9_42
Ltmp513:
LBB9_13:
	##DEBUG_VALUE: luaV_lessequal:l <- %RBX
	##DEBUG_VALUE: luaV_lessequal:r <- %R14
	.loc	1 606 21                ## /Users/dylan/github/ravi/src/lvm.c:606:21
	movsd	(%rbx), %xmm0           ## xmm0 = mem[0],zero
Ltmp514:
	##DEBUG_VALUE: lf <- %XMM0
	##DEBUG_VALUE: LEnum:l <- %RBX
	##DEBUG_VALUE: LTintfloat:f <- %XMM0
	.loc	1 607 9                 ## /Users/dylan/github/ravi/src/lvm.c:607:9
	cmpl	$3, %esi
	jne	LBB9_15
Ltmp515:
## BB#14:
	##DEBUG_VALUE: luaV_lessequal:r <- %R14
	##DEBUG_VALUE: LEnum:l <- %RBX
	##DEBUG_VALUE: lf <- %XMM0
	.loc	1 608 14                ## /Users/dylan/github/ravi/src/lvm.c:608:14
	movsd	(%r14), %xmm1           ## xmm1 = mem[0],zero
	ucomisd	%xmm0, %xmm1
	setae	%al
Ltmp516:
	.loc	1 643 12                ## /Users/dylan/github/ravi/src/lvm.c:643:12
	movzbl	%al, %eax
	jmp	LBB9_43
Ltmp517:
LBB9_28:
	##DEBUG_VALUE: l_strcmp:ls <- %R12
	##DEBUG_VALUE: l_strcmp:rs <- %RAX
	.loc	1 506 15                ## /Users/dylan/github/ravi/src/lvm.c:506:15
	movq	16(%r12), %r15
Ltmp518:
LBB9_29:
	##DEBUG_VALUE: l_strcmp:ls <- %R12
	##DEBUG_VALUE: l_strcmp:rs <- %RAX
	.loc	1 505 19                ## /Users/dylan/github/ravi/src/lvm.c:505:19
	addq	$24, %r12
Ltmp519:
	.loc	1 507 19                ## /Users/dylan/github/ravi/src/lvm.c:507:19
	leaq	24(%rax), %r14
	.loc	1 508 15                ## /Users/dylan/github/ravi/src/lvm.c:508:15
	movl	8(%rax), %ebx
	movzbl	%bl, %ecx
	cmpl	$4, %ecx
	jne	LBB9_31
Ltmp520:
## BB#30:
	shrl	$24, %ebx
	jmp	LBB9_32
LBB9_31:
Ltmp521:
	##DEBUG_VALUE: l_strcmp:rs <- %RAX
	movq	16(%rax), %rbx
	jmp	LBB9_32
Ltmp522:
	.align	4, 0x90
LBB9_38:                                ##   in Loop: Header=BB9_32 Depth=1
	##DEBUG_VALUE: len <- %RCX
	.loc	1 520 10                ## /Users/dylan/github/ravi/src/lvm.c:520:10
	leaq	1(%rcx), %rax
Ltmp523:
	##DEBUG_VALUE: len <- %RAX
	.loc	1 521 9                 ## /Users/dylan/github/ravi/src/lvm.c:521:9
	leaq	1(%r12,%rcx), %r12
Ltmp524:
	##DEBUG_VALUE: l_strcmp:l <- %R12
	.loc	1 521 20 is_stmt 0      ## /Users/dylan/github/ravi/src/lvm.c:521:20
	subq	%rax, %r15
Ltmp525:
	##DEBUG_VALUE: l_strcmp:ll <- %R15
	.loc	1 521 30                ## /Users/dylan/github/ravi/src/lvm.c:521:30
	leaq	1(%r14,%rcx), %r14
Ltmp526:
	##DEBUG_VALUE: l_strcmp:r <- %R14
	.loc	1 521 41                ## /Users/dylan/github/ravi/src/lvm.c:521:41
	subq	%rax, %rbx
Ltmp527:
LBB9_32:                                ## %.preheader.i
                                        ## =>This Inner Loop Header: Depth=1
	.loc	1 510 16 is_stmt 1      ## /Users/dylan/github/ravi/src/lvm.c:510:16
	movq	%r12, %rdi
	movq	%r14, %rsi
	callq	_strcoll
Ltmp528:
	##DEBUG_VALUE: temp <- %EAX
	.loc	1 511 9                 ## /Users/dylan/github/ravi/src/lvm.c:511:9
	testl	%eax, %eax
	jne	LBB9_35
Ltmp529:
## BB#33:                               ## %.lr.ph.i
                                        ##   in Loop: Header=BB9_32 Depth=1
	.loc	1 514 20                ## /Users/dylan/github/ravi/src/lvm.c:514:20
	movq	%r12, %rdi
	callq	_strlen
	movq	%rax, %rcx
Ltmp530:
	##DEBUG_VALUE: len <- %RCX
	.loc	1 515 11                ## /Users/dylan/github/ravi/src/lvm.c:515:11
	cmpq	%rbx, %rcx
	je	LBB9_34
Ltmp531:
## BB#37:                               ##   in Loop: Header=BB9_32 Depth=1
	##DEBUG_VALUE: len <- %RCX
	movl	$-1, %eax
	cmpq	%r15, %rcx
	jne	LBB9_38
	jmp	LBB9_35
Ltmp532:
LBB9_6:
	##DEBUG_VALUE: luaV_lessequal:r <- %R14
	##DEBUG_VALUE: LEintfloat:i <- %RDX
	##DEBUG_VALUE: li <- %RDX
	.loc	1 603 29                ## /Users/dylan/github/ravi/src/lvm.c:603:29
	movsd	(%r14), %xmm0           ## xmm0 = mem[0],zero
Ltmp533:
	##DEBUG_VALUE: LEintfloat:f <- %XMM0
	.loc	1 558 8                 ## /Users/dylan/github/ravi/src/lvm.c:558:8
	addq	%rdx, %rcx
	cmpq	%rax, %rcx
	jae	LBB9_7
Ltmp534:
## BB#11:
	##DEBUG_VALUE: LEintfloat:i <- %RDX
	##DEBUG_VALUE: li <- %RDX
	##DEBUG_VALUE: LEintfloat:f <- %XMM0
	.loc	1 567 10                ## /Users/dylan/github/ravi/src/lvm.c:567:10
	cvtsi2sdq	%rdx, %xmm1
	ucomisd	%xmm1, %xmm0
	setae	%al
	jmp	LBB9_12
Ltmp535:
LBB9_15:
	##DEBUG_VALUE: luaV_lessequal:r <- %R14
	##DEBUG_VALUE: LEnum:l <- %RBX
	##DEBUG_VALUE: lf <- %XMM0
	.loc	1 609 14                ## /Users/dylan/github/ravi/src/lvm.c:609:14
	ucomisd	%xmm0, %xmm0
	jp	LBB9_16
Ltmp536:
## BB#17:
	##DEBUG_VALUE: luaV_lessequal:r <- %R14
	##DEBUG_VALUE: LEnum:l <- %RBX
	##DEBUG_VALUE: lf <- %XMM0
	.loc	1 612 26                ## /Users/dylan/github/ravi/src/lvm.c:612:26
	movq	(%r14), %rdx
Ltmp537:
	##DEBUG_VALUE: LEnum:r <- %R14
	##DEBUG_VALUE: LTintfloat:i <- %RDX
	.loc	1 539 8                 ## /Users/dylan/github/ravi/src/lvm.c:539:8
	addq	%rdx, %rcx
	cmpq	%rax, %rcx
	jae	LBB9_18
Ltmp538:
## BB#22:
	##DEBUG_VALUE: LEnum:l <- %RBX
	##DEBUG_VALUE: lf <- %XMM0
	##DEBUG_VALUE: LTintfloat:i <- %RDX
	##DEBUG_VALUE: LEnum:r <- %R14
	.loc	1 548 10                ## /Users/dylan/github/ravi/src/lvm.c:548:10
	cvtsi2sdq	%rdx, %xmm1
	ucomisd	%xmm1, %xmm0
	seta	%al
	jmp	LBB9_23
Ltmp539:
LBB9_34:
	##DEBUG_VALUE: len <- %RCX
	.loc	1 516 16                ## /Users/dylan/github/ravi/src/lvm.c:516:16
	cmpq	%r15, %rcx
	setne	%al
	movzbl	%al, %eax
Ltmp540:
LBB9_35:                                ## %l_strcmp.exit
	.loc	1 645 45                ## /Users/dylan/github/ravi/src/lvm.c:645:45
	testl	%eax, %eax
	setle	%al
LBB9_42:                                ## %LEnum.exit
	.loc	1 654 12                ## /Users/dylan/github/ravi/src/lvm.c:654:12
Ltmp541:
	movzbl	%al, %eax
Ltmp542:
LBB9_43:                                ## %LEnum.exit
	.loc	1 656 1                 ## /Users/dylan/github/ravi/src/lvm.c:656:1
	popq	%rbx
	popq	%r12
	popq	%r14
	popq	%r15
	popq	%rbp
	retq
LBB9_7:
Ltmp543:
	##DEBUG_VALUE: LEintfloat:i <- %RDX
	##DEBUG_VALUE: li <- %RDX
	##DEBUG_VALUE: LEintfloat:f <- %XMM0
	movb	$1, %al
	.loc	1 559 9                 ## /Users/dylan/github/ravi/src/lvm.c:559:9
Ltmp544:
	ucomisd	LCPI9_0(%rip), %xmm0
	jae	LBB9_12
Ltmp545:
## BB#8:
	##DEBUG_VALUE: LEintfloat:i <- %RDX
	##DEBUG_VALUE: li <- %RDX
	##DEBUG_VALUE: LEintfloat:f <- %XMM0
	.loc	1 561 16                ## /Users/dylan/github/ravi/src/lvm.c:561:16
	ucomisd	LCPI9_1(%rip), %xmm0
	jae	LBB9_10
Ltmp546:
## BB#9:
	xorl	%eax, %eax
	.loc	1 603 14                ## /Users/dylan/github/ravi/src/lvm.c:603:14
	movzbl	%al, %eax
	jmp	LBB9_43
LBB9_12:                                ## %LEintfloat.exit.i
	movzbl	%al, %eax
	jmp	LBB9_43
Ltmp547:
LBB9_16:
	xorl	%eax, %eax
	.loc	1 643 12                ## /Users/dylan/github/ravi/src/lvm.c:643:12
	movzbl	%al, %eax
	jmp	LBB9_43
LBB9_18:
Ltmp548:
	##DEBUG_VALUE: LEnum:l <- %RBX
	##DEBUG_VALUE: lf <- %XMM0
	##DEBUG_VALUE: LTintfloat:i <- %RDX
	##DEBUG_VALUE: LEnum:r <- %R14
	movb	$1, %al
	.loc	1 540 9                 ## /Users/dylan/github/ravi/src/lvm.c:540:9
Ltmp549:
	ucomisd	LCPI9_0(%rip), %xmm0
	jae	LBB9_23
Ltmp550:
## BB#19:
	##DEBUG_VALUE: LEnum:l <- %RBX
	##DEBUG_VALUE: lf <- %XMM0
	##DEBUG_VALUE: LTintfloat:i <- %RDX
	##DEBUG_VALUE: LEnum:r <- %R14
	.loc	1 542 14                ## /Users/dylan/github/ravi/src/lvm.c:542:14
	ucomisd	LCPI9_1(%rip), %xmm0
	jbe	LBB9_20
Ltmp551:
## BB#21:
	##DEBUG_VALUE: LEnum:l <- %RBX
	##DEBUG_VALUE: lf <- %XMM0
	##DEBUG_VALUE: LTintfloat:i <- %RDX
	##DEBUG_VALUE: LEnum:r <- %R14
	.loc	1 543 19                ## /Users/dylan/github/ravi/src/lvm.c:543:19
	cvttsd2si	%xmm0, %rax
	.loc	1 543 17 is_stmt 0      ## /Users/dylan/github/ravi/src/lvm.c:543:17
	cmpq	%rdx, %rax
	setg	%al
	jmp	LBB9_23
Ltmp552:
LBB9_10:
	##DEBUG_VALUE: LEintfloat:i <- %RDX
	##DEBUG_VALUE: li <- %RDX
	##DEBUG_VALUE: LEintfloat:f <- %XMM0
	.loc	1 562 20 is_stmt 1      ## /Users/dylan/github/ravi/src/lvm.c:562:20
	cvttsd2si	%xmm0, %rax
	.loc	1 562 17 is_stmt 0      ## /Users/dylan/github/ravi/src/lvm.c:562:17
	cmpq	%rdx, %rax
	setge	%al
Ltmp553:
	.loc	1 603 14 is_stmt 1      ## /Users/dylan/github/ravi/src/lvm.c:603:14
	movzbl	%al, %eax
	jmp	LBB9_43
Ltmp554:
LBB9_20:
	xorl	%eax, %eax
LBB9_23:                                ## %LTintfloat.exit.i
Ltmp555:
	##DEBUG_VALUE: LEnum:l <- %RBX
	##DEBUG_VALUE: LEnum:r <- %R14
	.loc	1 612 14                ## /Users/dylan/github/ravi/src/lvm.c:612:14
	xorb	$1, %al
Ltmp556:
	.loc	1 643 12                ## /Users/dylan/github/ravi/src/lvm.c:643:12
	movzbl	%al, %eax
	jmp	LBB9_43
Ltmp557:
LBB9_44:
	##DEBUG_VALUE: luaV_lessequal:L <- %R15
	##DEBUG_VALUE: luaV_lessequal:l <- %RBX
	##DEBUG_VALUE: luaV_lessequal:r <- %R14
	.loc	1 653 7                 ## /Users/dylan/github/ravi/src/lvm.c:653:7
	movq	%r15, %rdi
	movq	%rbx, %rsi
	movq	%r14, %rdx
	callq	_luaG_ordererror
Ltmp558:
Lfunc_end9:
	.cfi_endproc

	.section	__TEXT,__literal8,8byte_literals
	.align	3
LCPI10_0:
	.quad	-4332462841530417152    ## double -9.2233720368547758E+18
LCPI10_1:
	.quad	4890909195324358656     ## double 9.2233720368547758E+18
	.section	__TEXT,__text,regular,pure_instructions
	.globl	_luaV_equalobj
	.align	4, 0x90
_luaV_equalobj:                         ## @luaV_equalobj
Lfunc_begin10:
	.loc	1 663 0                 ## /Users/dylan/github/ravi/src/lvm.c:663:0
	.cfi_startproc
## BB#0:
	pushq	%rbp
Ltmp559:
	.cfi_def_cfa_offset 16
Ltmp560:
	.cfi_offset %rbp, -16
	movq	%rsp, %rbp
Ltmp561:
	.cfi_def_cfa_register %rbp
	pushq	%r15
	pushq	%r14
	pushq	%r12
	pushq	%rbx
	subq	$32, %rsp
Ltmp562:
	.cfi_offset %rbx, -48
Ltmp563:
	.cfi_offset %r12, -40
Ltmp564:
	.cfi_offset %r14, -32
Ltmp565:
	.cfi_offset %r15, -24
	##DEBUG_VALUE: luaV_equalobj:L <- %RDI
	##DEBUG_VALUE: luaV_equalobj:t1 <- %RSI
	##DEBUG_VALUE: luaV_equalobj:t2 <- %RDX
	movq	%rdx, %r14
Ltmp566:
	##DEBUG_VALUE: luaV_equalobj:t2 <- %R14
	movq	%rsi, %r12
Ltmp567:
	##DEBUG_VALUE: luaV_equalobj:t1 <- %R12
	movq	%rdi, %r15
Ltmp568:
	##DEBUG_VALUE: luaV_equalobj:L <- %R15
	.loc	1 665 7 prologue_end    ## /Users/dylan/github/ravi/src/lvm.c:665:7
	movl	8(%r12), %ecx
	movl	%ecx, %edx
	andl	$63, %edx
	.loc	1 665 20 is_stmt 0      ## /Users/dylan/github/ravi/src/lvm.c:665:20
	movl	8(%r14), %eax
	movl	%eax, %esi
	andl	$63, %esi
	.loc	1 665 17                ## /Users/dylan/github/ravi/src/lvm.c:665:17
	cmpl	%esi, %edx
	jne	LBB10_1
Ltmp569:
## BB#38:
	##DEBUG_VALUE: luaV_equalobj:L <- %R15
	##DEBUG_VALUE: luaV_equalobj:t1 <- %R12
	##DEBUG_VALUE: luaV_equalobj:t2 <- %R14
	.loc	1 674 3 is_stmt 1       ## /Users/dylan/github/ravi/src/lvm.c:674:3
	movl	%edx, %eax
	cmpl	$22, %edx
	ja	LBB10_39
Ltmp570:
## BB#41:
	##DEBUG_VALUE: luaV_equalobj:L <- %R15
	##DEBUG_VALUE: luaV_equalobj:t1 <- %R12
	##DEBUG_VALUE: luaV_equalobj:t2 <- %R14
	movl	$1, %ebx
	leaq	LJTI10_0(%rip), %rcx
	movslq	(%rcx,%rax,4), %rax
	addq	%rcx, %rax
	jmpq	*%rax
Ltmp571:
LBB10_43:
	##DEBUG_VALUE: luaV_equalobj:t1 <- %R12
	##DEBUG_VALUE: luaV_equalobj:t2 <- %R14
	.loc	1 678 31                ## /Users/dylan/github/ravi/src/lvm.c:678:31
	movl	(%r12), %eax
	.loc	1 678 42 is_stmt 0      ## /Users/dylan/github/ravi/src/lvm.c:678:42
	cmpl	(%r14), %eax
	jmp	LBB10_37
Ltmp572:
LBB10_1:
	##DEBUG_VALUE: luaV_equalobj:t1 <- %R12
	##DEBUG_VALUE: luaV_equalobj:t2 <- %R14
	.loc	1 666 9 is_stmt 1       ## /Users/dylan/github/ravi/src/lvm.c:666:9
	movl	%ecx, %edx
	andl	$15, %edx
	xorl	%ebx, %ebx
	.loc	1 666 32 is_stmt 0      ## /Users/dylan/github/ravi/src/lvm.c:666:32
	cmpl	$3, %edx
	jne	LBB10_67
Ltmp573:
## BB#2:
	##DEBUG_VALUE: luaV_equalobj:t1 <- %R12
	##DEBUG_VALUE: luaV_equalobj:t2 <- %R14
	.loc	1 666 22                ## /Users/dylan/github/ravi/src/lvm.c:666:22
	movl	%eax, %esi
	andl	$15, %esi
	cmpl	%esi, %edx
	jne	LBB10_67
Ltmp574:
## BB#3:
	##DEBUG_VALUE: luaV_equalobj:t1 <- %R12
	##DEBUG_VALUE: luaV_equalobj:t2 <- %R14
	.loc	1 670 34 is_stmt 1      ## /Users/dylan/github/ravi/src/lvm.c:670:34
	cmpl	$19, %ecx
	jne	LBB10_5
Ltmp575:
## BB#4:
	##DEBUG_VALUE: luaV_equalobj:t1 <- %R12
	##DEBUG_VALUE: luaV_equalobj:t2 <- %R14
	##DEBUG_VALUE: luaV_tointeger:obj <- %R12
	.loc	1 670 15 is_stmt 0      ## /Users/dylan/github/ravi/src/lvm.c:670:15
	movq	(%r12), %rbx
Ltmp576:
	##DEBUG_VALUE: i1 <- %RBX
LBB10_20:
	##DEBUG_VALUE: luaV_equalobj:t2 <- %R14
	.loc	1 670 56                ## /Users/dylan/github/ravi/src/lvm.c:670:56
	cmpl	$19, %eax
	jne	LBB10_21
Ltmp577:
LBB10_35:
	##DEBUG_VALUE: luaV_tointeger:mode <- 0
	.loc	1 113 10 is_stmt 1      ## /Users/dylan/github/ravi/src/lvm.c:113:10
	movq	(%r14), %rax
Ltmp578:
LBB10_36:
	.loc	1 670 62                ## /Users/dylan/github/ravi/src/lvm.c:670:62
	cmpq	%rax, %rbx
	jmp	LBB10_37
Ltmp579:
LBB10_39:
	##DEBUG_VALUE: luaV_equalobj:t1 <- %R12
	##DEBUG_VALUE: luaV_equalobj:t2 <- %R14
	cmpl	$37, %edx
Ltmp580:
LBB10_40:
	##DEBUG_VALUE: luaV_equalobj:t1 <- %R12
	##DEBUG_VALUE: luaV_equalobj:t2 <- %R14
	.loc	1 676 31                ## /Users/dylan/github/ravi/src/lvm.c:676:31
	movq	(%r12), %rax
	.loc	1 676 42 is_stmt 0      ## /Users/dylan/github/ravi/src/lvm.c:676:42
	cmpq	(%r14), %rax
Ltmp581:
LBB10_37:                               ## %.thread9
	.loc	1 670 62 is_stmt 1      ## /Users/dylan/github/ravi/src/lvm.c:670:62
	sete	%al
	.loc	1 670 56 is_stmt 0      ## /Users/dylan/github/ravi/src/lvm.c:670:56
	movzbl	%al, %ebx
Ltmp582:
LBB10_67:                               ## %.thread9
	.loc	1 711 1 is_stmt 1       ## /Users/dylan/github/ravi/src/lvm.c:711:1
	movl	%ebx, %eax
	addq	$32, %rsp
	popq	%rbx
	popq	%r12
	popq	%r14
	popq	%r15
	popq	%rbp
	retq
LBB10_42:
Ltmp583:
	##DEBUG_VALUE: luaV_equalobj:t1 <- %R12
	##DEBUG_VALUE: luaV_equalobj:t2 <- %R14
	.loc	1 677 30                ## /Users/dylan/github/ravi/src/lvm.c:677:30
	movsd	(%r12), %xmm0           ## xmm0 = mem[0],zero
	cmpeqsd	(%r14), %xmm0
	movd	%xmm0, %rbx
	andl	$1, %ebx
	jmp	LBB10_67
Ltmp584:
LBB10_57:
	##DEBUG_VALUE: luaV_equalobj:L <- %R15
	##DEBUG_VALUE: luaV_equalobj:t1 <- %R12
	##DEBUG_VALUE: luaV_equalobj:t2 <- %R14
	.loc	1 697 11                ## /Users/dylan/github/ravi/src/lvm.c:697:11
	movq	(%r12), %rcx
	.loc	1 697 25 is_stmt 0      ## /Users/dylan/github/ravi/src/lvm.c:697:25
	movq	(%r14), %rax
	.loc	1 697 22                ## /Users/dylan/github/ravi/src/lvm.c:697:22
	cmpq	%rax, %rcx
	je	LBB10_67
Ltmp585:
## BB#58:
	##DEBUG_VALUE: luaV_equalobj:L <- %R15
	##DEBUG_VALUE: luaV_equalobj:t1 <- %R12
	##DEBUG_VALUE: luaV_equalobj:t2 <- %R14
	xorl	%ebx, %ebx
	.loc	1 698 18 is_stmt 1      ## /Users/dylan/github/ravi/src/lvm.c:698:18
Ltmp586:
	testq	%r15, %r15
	je	LBB10_67
Ltmp587:
## BB#59:
	##DEBUG_VALUE: luaV_equalobj:L <- %R15
	##DEBUG_VALUE: luaV_equalobj:t1 <- %R12
	##DEBUG_VALUE: luaV_equalobj:t2 <- %R14
	.loc	1 699 12                ## /Users/dylan/github/ravi/src/lvm.c:699:12
	movq	40(%rcx), %rdi
	testq	%rdi, %rdi
	je	LBB10_63
Ltmp588:
## BB#60:
	##DEBUG_VALUE: luaV_equalobj:L <- %R15
	##DEBUG_VALUE: luaV_equalobj:t1 <- %R12
	##DEBUG_VALUE: luaV_equalobj:t2 <- %R14
	testb	$32, 10(%rdi)
	jne	LBB10_63
Ltmp589:
## BB#61:
	##DEBUG_VALUE: luaV_equalobj:L <- %R15
	##DEBUG_VALUE: luaV_equalobj:t1 <- %R12
	##DEBUG_VALUE: luaV_equalobj:t2 <- %R14
	movq	24(%r15), %rax
	movq	264(%rax), %rdx
	movl	$5, %esi
	callq	_luaT_gettm
Ltmp590:
	##DEBUG_VALUE: luaV_equalobj:tm <- %RAX
	.loc	1 700 11                ## /Users/dylan/github/ravi/src/lvm.c:700:11
	testq	%rax, %rax
	jne	LBB10_55
Ltmp591:
## BB#62:                               ## %..thread7_crit_edge
	##DEBUG_VALUE: luaV_equalobj:L <- %R15
	##DEBUG_VALUE: luaV_equalobj:t1 <- %R12
	##DEBUG_VALUE: luaV_equalobj:t2 <- %R14
	.loc	1 701 14                ## /Users/dylan/github/ravi/src/lvm.c:701:14
	movq	(%r14), %rax
Ltmp592:
LBB10_63:                               ## %.thread7
	##DEBUG_VALUE: luaV_equalobj:L <- %R15
	##DEBUG_VALUE: luaV_equalobj:t1 <- %R12
	##DEBUG_VALUE: luaV_equalobj:t2 <- %R14
	movq	40(%rax), %rdi
	jmp	LBB10_52
Ltmp593:
LBB10_45:
	##DEBUG_VALUE: luaV_equalobj:L <- %R15
	##DEBUG_VALUE: luaV_equalobj:t1 <- %R12
	##DEBUG_VALUE: luaV_equalobj:t2 <- %R14
	.loc	1 684 11                ## /Users/dylan/github/ravi/src/lvm.c:684:11
	movq	(%r12), %rcx
	.loc	1 684 25 is_stmt 0      ## /Users/dylan/github/ravi/src/lvm.c:684:25
	movq	(%r14), %rax
	.loc	1 684 22                ## /Users/dylan/github/ravi/src/lvm.c:684:22
	cmpq	%rax, %rcx
	je	LBB10_67
Ltmp594:
## BB#46:
	##DEBUG_VALUE: luaV_equalobj:L <- %R15
	##DEBUG_VALUE: luaV_equalobj:t1 <- %R12
	##DEBUG_VALUE: luaV_equalobj:t2 <- %R14
	xorl	%ebx, %ebx
	.loc	1 685 18 is_stmt 1      ## /Users/dylan/github/ravi/src/lvm.c:685:18
Ltmp595:
	testq	%r15, %r15
	je	LBB10_67
Ltmp596:
## BB#47:
	##DEBUG_VALUE: luaV_equalobj:L <- %R15
	##DEBUG_VALUE: luaV_equalobj:t1 <- %R12
	##DEBUG_VALUE: luaV_equalobj:t2 <- %R14
	.loc	1 686 12                ## /Users/dylan/github/ravi/src/lvm.c:686:12
	movq	16(%rcx), %rdi
	testq	%rdi, %rdi
	je	LBB10_51
Ltmp597:
## BB#48:
	##DEBUG_VALUE: luaV_equalobj:L <- %R15
	##DEBUG_VALUE: luaV_equalobj:t1 <- %R12
	##DEBUG_VALUE: luaV_equalobj:t2 <- %R14
	testb	$32, 10(%rdi)
	jne	LBB10_51
Ltmp598:
## BB#49:
	##DEBUG_VALUE: luaV_equalobj:L <- %R15
	##DEBUG_VALUE: luaV_equalobj:t1 <- %R12
	##DEBUG_VALUE: luaV_equalobj:t2 <- %R14
	movq	24(%r15), %rax
	movq	264(%rax), %rdx
	movl	$5, %esi
	callq	_luaT_gettm
Ltmp599:
	##DEBUG_VALUE: luaV_equalobj:tm <- %RAX
	.loc	1 687 11                ## /Users/dylan/github/ravi/src/lvm.c:687:11
	testq	%rax, %rax
	jne	LBB10_55
Ltmp600:
## BB#50:                               ## %..thread_crit_edge
	##DEBUG_VALUE: luaV_equalobj:L <- %R15
	##DEBUG_VALUE: luaV_equalobj:t1 <- %R12
	##DEBUG_VALUE: luaV_equalobj:t2 <- %R14
	.loc	1 688 14                ## /Users/dylan/github/ravi/src/lvm.c:688:14
	movq	(%r14), %rax
Ltmp601:
LBB10_51:                               ## %.thread
	##DEBUG_VALUE: luaV_equalobj:L <- %R15
	##DEBUG_VALUE: luaV_equalobj:t1 <- %R12
	##DEBUG_VALUE: luaV_equalobj:t2 <- %R14
	movq	16(%rax), %rdi
Ltmp602:
LBB10_52:                               ## %.thread
	testq	%rdi, %rdi
	je	LBB10_67
## BB#53:
Ltmp603:
	##DEBUG_VALUE: luaV_equalobj:L <- %R15
	##DEBUG_VALUE: luaV_equalobj:t1 <- %R12
	##DEBUG_VALUE: luaV_equalobj:t2 <- %R14
	testb	$32, 10(%rdi)
	jne	LBB10_67
Ltmp604:
## BB#54:
	##DEBUG_VALUE: luaV_equalobj:L <- %R15
	##DEBUG_VALUE: luaV_equalobj:t1 <- %R12
	##DEBUG_VALUE: luaV_equalobj:t2 <- %R14
	movq	24(%r15), %rax
	movq	264(%rax), %rdx
	movl	$5, %esi
	callq	_luaT_gettm
	##DEBUG_VALUE: luaV_equalobj:L <- %R15
	##DEBUG_VALUE: luaV_equalobj:t1 <- %R12
	##DEBUG_VALUE: luaV_equalobj:t2 <- %R14
	xorl	%ebx, %ebx
Ltmp605:
	.loc	1 707 10                ## /Users/dylan/github/ravi/src/lvm.c:707:10
	testq	%rax, %rax
	je	LBB10_67
Ltmp606:
LBB10_55:                               ## %.thread11
	##DEBUG_VALUE: luaV_equalobj:L <- %R15
	##DEBUG_VALUE: luaV_equalobj:t1 <- %R12
	##DEBUG_VALUE: luaV_equalobj:t2 <- %R14
	.loc	1 709 33                ## /Users/dylan/github/ravi/src/lvm.c:709:33
	movq	16(%r15), %r8
	.loc	1 709 3 is_stmt 0       ## /Users/dylan/github/ravi/src/lvm.c:709:3
	movl	$1, %r9d
	movq	%r15, %rdi
	movq	%rax, %rsi
	movq	%r12, %rdx
	movq	%r14, %rcx
	callq	_luaT_callTM
	.loc	1 710 11 is_stmt 1      ## /Users/dylan/github/ravi/src/lvm.c:710:11
	movq	16(%r15), %rcx
	movl	8(%rcx), %edx
	testl	%edx, %edx
	je	LBB10_56
Ltmp607:
## BB#64:
	movb	$1, %al
	cmpl	$1, %edx
	jne	LBB10_66
## BB#65:
	cmpl	$0, (%rcx)
	setne	%al
	jmp	LBB10_66
LBB10_44:
Ltmp608:
	##DEBUG_VALUE: luaV_equalobj:t1 <- %R12
	##DEBUG_VALUE: luaV_equalobj:t2 <- %R14
	.loc	1 682 44                ## /Users/dylan/github/ravi/src/lvm.c:682:44
	movq	(%r12), %rdi
	.loc	1 682 57 is_stmt 0      ## /Users/dylan/github/ravi/src/lvm.c:682:57
	movq	(%r14), %rsi
	.loc	1 682 30                ## /Users/dylan/github/ravi/src/lvm.c:682:30
	addq	$32, %rsp
	popq	%rbx
	popq	%r12
Ltmp609:
	popq	%r14
Ltmp610:
	popq	%r15
	popq	%rbp
	jmp	_luaS_eqlngstr          ## TAILCALL
Ltmp611:
LBB10_5:
	##DEBUG_VALUE: luaV_equalobj:t1 <- %R12
	##DEBUG_VALUE: luaV_equalobj:t2 <- %R14
	##DEBUG_VALUE: luaV_tointeger:mode <- 0
	leaq	-48(%rbp), %rbx
	jmp	LBB10_6
Ltmp612:
LBB10_17:                               ## %._crit_edge
                                        ##   in Loop: Header=BB10_6 Depth=1
	##DEBUG_VALUE: luaV_equalobj:t2 <- %R14
	##DEBUG_VALUE: luaV_tointeger:v <- [%RBX+0]
	.loc	1 102 7 is_stmt 1       ## /Users/dylan/github/ravi/src/lvm.c:102:7
	movl	-40(%rbp), %ecx
Ltmp613:
	.loc	1 670 15                ## /Users/dylan/github/ravi/src/lvm.c:670:15
	movq	%rbx, %r12
Ltmp614:
LBB10_6:                                ## =>This Inner Loop Header: Depth=1
	##DEBUG_VALUE: luaV_equalobj:t2 <- %R14
	##DEBUG_VALUE: luaV_tointeger:mode <- 0
	.loc	1 102 7                 ## /Users/dylan/github/ravi/src/lvm.c:102:7
	cmpl	$19, %ecx
	je	LBB10_18
Ltmp615:
## BB#7:                                ##   in Loop: Header=BB10_6 Depth=1
	##DEBUG_VALUE: luaV_equalobj:t2 <- %R14
	cmpl	$3, %ecx
	je	LBB10_8
Ltmp616:
## BB#12:                               ##   in Loop: Header=BB10_6 Depth=1
	##DEBUG_VALUE: luaV_equalobj:t2 <- %R14
	.loc	1 116 12                ## /Users/dylan/github/ravi/src/lvm.c:116:12
	andl	$15, %ecx
	.loc	1 116 25 is_stmt 0      ## /Users/dylan/github/ravi/src/lvm.c:116:25
	cmpl	$4, %ecx
	jne	LBB10_34
Ltmp617:
## BB#13:                               ##   in Loop: Header=BB10_6 Depth=1
	##DEBUG_VALUE: luaV_equalobj:t2 <- %R14
	.loc	1 117 26 is_stmt 1      ## /Users/dylan/github/ravi/src/lvm.c:117:26
	movq	(%r12), %rdi
	addq	$24, %rdi
Ltmp618:
	##DEBUG_VALUE: luaV_tointeger:v <- [%RBX+0]
	.loc	1 117 13 is_stmt 0      ## /Users/dylan/github/ravi/src/lvm.c:117:13
	movq	%rbx, %rsi
	callq	_luaO_str2num
	.loc	1 117 46                ## /Users/dylan/github/ravi/src/lvm.c:117:46
	movq	(%r12), %rdx
	movl	8(%rdx), %ecx
	movzbl	%cl, %esi
	cmpl	$4, %esi
	jne	LBB10_15
Ltmp619:
## BB#14:                               ##   in Loop: Header=BB10_6 Depth=1
	##DEBUG_VALUE: luaV_equalobj:t2 <- %R14
	##DEBUG_VALUE: luaV_tointeger:v <- [%RBX+0]
	shrl	$24, %ecx
	jmp	LBB10_16
Ltmp620:
LBB10_15:                               ##   in Loop: Header=BB10_6 Depth=1
	##DEBUG_VALUE: luaV_equalobj:t2 <- %R14
	##DEBUG_VALUE: luaV_tointeger:v <- [%RBX+0]
	movq	16(%rdx), %rcx
Ltmp621:
LBB10_16:                               ##   in Loop: Header=BB10_6 Depth=1
	##DEBUG_VALUE: luaV_equalobj:t2 <- %R14
	##DEBUG_VALUE: luaV_tointeger:v <- [%RBX+0]
	.loc	1 117 57                ## /Users/dylan/github/ravi/src/lvm.c:117:57
	incq	%rcx
Ltmp622:
	.loc	1 116 12 is_stmt 1      ## /Users/dylan/github/ravi/src/lvm.c:116:12
	cmpq	%rcx, %rax
	je	LBB10_17
	jmp	LBB10_34
Ltmp623:
LBB10_21:
	##DEBUG_VALUE: luaV_equalobj:t2 <- %R14
	##DEBUG_VALUE: luaV_tointeger:mode <- 0
	leaq	-48(%rbp), %r15
	jmp	LBB10_22
Ltmp624:
LBB10_33:                               ## %._crit_edge.22
                                        ##   in Loop: Header=BB10_22 Depth=1
	##DEBUG_VALUE: luaV_tointeger:v <- [%R15+0]
	.loc	1 102 7                 ## /Users/dylan/github/ravi/src/lvm.c:102:7
	movl	-40(%rbp), %eax
Ltmp625:
	.loc	1 670 37                ## /Users/dylan/github/ravi/src/lvm.c:670:37
	movq	%r15, %r14
Ltmp626:
LBB10_22:                               ## =>This Inner Loop Header: Depth=1
	##DEBUG_VALUE: luaV_tointeger:mode <- 0
	.loc	1 102 7                 ## /Users/dylan/github/ravi/src/lvm.c:102:7
	cmpl	$19, %eax
	je	LBB10_35
## BB#23:                               ##   in Loop: Header=BB10_22 Depth=1
	cmpl	$3, %eax
	je	LBB10_24
## BB#28:                               ##   in Loop: Header=BB10_22 Depth=1
	.loc	1 116 12                ## /Users/dylan/github/ravi/src/lvm.c:116:12
Ltmp627:
	andl	$15, %eax
	.loc	1 116 25 is_stmt 0      ## /Users/dylan/github/ravi/src/lvm.c:116:25
	cmpl	$4, %eax
	jne	LBB10_34
## BB#29:                               ##   in Loop: Header=BB10_22 Depth=1
	.loc	1 117 26 is_stmt 1      ## /Users/dylan/github/ravi/src/lvm.c:117:26
	movq	(%r14), %rdi
	addq	$24, %rdi
Ltmp628:
	##DEBUG_VALUE: luaV_tointeger:v <- [%R15+0]
	.loc	1 117 13 is_stmt 0      ## /Users/dylan/github/ravi/src/lvm.c:117:13
	movq	%r15, %rsi
	callq	_luaO_str2num
	.loc	1 117 46                ## /Users/dylan/github/ravi/src/lvm.c:117:46
	movq	(%r14), %rdx
	movl	8(%rdx), %ecx
	movzbl	%cl, %esi
	cmpl	$4, %esi
	jne	LBB10_31
Ltmp629:
## BB#30:                               ##   in Loop: Header=BB10_22 Depth=1
	##DEBUG_VALUE: luaV_tointeger:v <- [%R15+0]
	shrl	$24, %ecx
	jmp	LBB10_32
Ltmp630:
LBB10_31:                               ##   in Loop: Header=BB10_22 Depth=1
	##DEBUG_VALUE: luaV_tointeger:v <- [%R15+0]
	movq	16(%rdx), %rcx
Ltmp631:
LBB10_32:                               ##   in Loop: Header=BB10_22 Depth=1
	##DEBUG_VALUE: luaV_tointeger:v <- [%R15+0]
	.loc	1 117 57                ## /Users/dylan/github/ravi/src/lvm.c:117:57
	incq	%rcx
Ltmp632:
	.loc	1 116 12 is_stmt 1      ## /Users/dylan/github/ravi/src/lvm.c:116:12
	cmpq	%rcx, %rax
	je	LBB10_33
	jmp	LBB10_34
Ltmp633:
LBB10_56:
	xorl	%eax, %eax
	jmp	LBB10_66
LBB10_18:
Ltmp634:
	##DEBUG_VALUE: luaV_equalobj:t2 <- %R14
	##DEBUG_VALUE: luaV_tointeger:mode <- 0
	.loc	1 113 10                ## /Users/dylan/github/ravi/src/lvm.c:113:10
	movq	(%r12), %rbx
	jmp	LBB10_19
Ltmp635:
LBB10_8:
	##DEBUG_VALUE: luaV_equalobj:t2 <- %R14
	.loc	1 103 20                ## /Users/dylan/github/ravi/src/lvm.c:103:20
	movsd	(%r12), %xmm0           ## xmm0 = mem[0],zero
Ltmp636:
	##DEBUG_VALUE: n <- %XMM0
	.loc	1 104 20                ## /Users/dylan/github/ravi/src/lvm.c:104:20
	movsd	%xmm0, -56(%rbp)        ## 8-byte Spill
Ltmp637:
	##DEBUG_VALUE: n <- [%RBP+-56]
	callq	_floor
Ltmp638:
	##DEBUG_VALUE: f <- %XMM0
	.loc	1 105 9                 ## /Users/dylan/github/ravi/src/lvm.c:105:9
	movsd	-56(%rbp), %xmm1        ## 8-byte Reload
                                        ## xmm1 = mem[0],zero
	ucomisd	%xmm0, %xmm1
	jne	LBB10_34
	jp	LBB10_34
Ltmp639:
## BB#9:
	##DEBUG_VALUE: luaV_equalobj:t2 <- %R14
	##DEBUG_VALUE: f <- %XMM0
	.loc	1 110 12                ## /Users/dylan/github/ravi/src/lvm.c:110:12
	ucomisd	LCPI10_0(%rip), %xmm0
	jb	LBB10_34
Ltmp640:
## BB#10:
	##DEBUG_VALUE: luaV_equalobj:t2 <- %R14
	movsd	LCPI10_1(%rip), %xmm1   ## xmm1 = mem[0],zero
	ucomisd	%xmm0, %xmm1
	jbe	LBB10_34
Ltmp641:
## BB#11:
	##DEBUG_VALUE: luaV_equalobj:t2 <- %R14
	cvttsd2si	%xmm0, %rbx
Ltmp642:
LBB10_19:                               ## %luaV_tointeger.exit
	##DEBUG_VALUE: luaV_equalobj:t2 <- %R14
	.loc	1 670 37                ## /Users/dylan/github/ravi/src/lvm.c:670:37
	movl	8(%r14), %eax
	jmp	LBB10_20
Ltmp643:
LBB10_24:
	.loc	1 103 20                ## /Users/dylan/github/ravi/src/lvm.c:103:20
	movsd	(%r14), %xmm0           ## xmm0 = mem[0],zero
Ltmp644:
	##DEBUG_VALUE: n <- %XMM0
	.loc	1 104 20                ## /Users/dylan/github/ravi/src/lvm.c:104:20
	movsd	%xmm0, -56(%rbp)        ## 8-byte Spill
Ltmp645:
	##DEBUG_VALUE: n <- [%RBP+-56]
	callq	_floor
Ltmp646:
	##DEBUG_VALUE: f <- %XMM0
	.loc	1 105 9                 ## /Users/dylan/github/ravi/src/lvm.c:105:9
	movsd	-56(%rbp), %xmm1        ## 8-byte Reload
                                        ## xmm1 = mem[0],zero
	ucomisd	%xmm0, %xmm1
	jne	LBB10_34
	jp	LBB10_34
Ltmp647:
## BB#25:
	##DEBUG_VALUE: f <- %XMM0
	.loc	1 110 12                ## /Users/dylan/github/ravi/src/lvm.c:110:12
	ucomisd	LCPI10_0(%rip), %xmm0
	jb	LBB10_34
Ltmp648:
## BB#26:
	movsd	LCPI10_1(%rip), %xmm1   ## xmm1 = mem[0],zero
	ucomisd	%xmm0, %xmm1
	jbe	LBB10_34
## BB#27:
	cvttsd2si	%xmm0, %rax
	jmp	LBB10_36
Ltmp649:
LBB10_34:                               ## %luaV_tointeger.exit.thread
	xorl	%eax, %eax
LBB10_66:
	.loc	1 710 10                ## /Users/dylan/github/ravi/src/lvm.c:710:10
	movzbl	%al, %ebx
	jmp	LBB10_67
Ltmp650:
Lfunc_end10:
	.cfi_endproc
	.align	2, 0x90
L10_0_set_67 = LBB10_67-LJTI10_0
L10_0_set_43 = LBB10_43-LJTI10_0
L10_0_set_40 = LBB10_40-LJTI10_0
L10_0_set_42 = LBB10_42-LJTI10_0
L10_0_set_57 = LBB10_57-LJTI10_0
L10_0_set_45 = LBB10_45-LJTI10_0
L10_0_set_44 = LBB10_44-LJTI10_0
LJTI10_0:
	.long	L10_0_set_67
	.long	L10_0_set_43
	.long	L10_0_set_40
	.long	L10_0_set_42
	.long	L10_0_set_40
	.long	L10_0_set_57
	.long	L10_0_set_40
	.long	L10_0_set_45
	.long	L10_0_set_40
	.long	L10_0_set_40
	.long	L10_0_set_40
	.long	L10_0_set_40
	.long	L10_0_set_40
	.long	L10_0_set_40
	.long	L10_0_set_40
	.long	L10_0_set_40
	.long	L10_0_set_40
	.long	L10_0_set_40
	.long	L10_0_set_40
	.long	L10_0_set_40
	.long	L10_0_set_44
	.long	L10_0_set_40
	.long	L10_0_set_40

	.globl	_luaV_concat
	.align	4, 0x90
_luaV_concat:                           ## @luaV_concat
Lfunc_begin11:
	.loc	1 735 0                 ## /Users/dylan/github/ravi/src/lvm.c:735:0
	.cfi_startproc
## BB#0:
	pushq	%rbp
Ltmp651:
	.cfi_def_cfa_offset 16
Ltmp652:
	.cfi_offset %rbp, -16
	movq	%rsp, %rbp
Ltmp653:
	.cfi_def_cfa_register %rbp
	pushq	%r15
	pushq	%r14
	pushq	%r13
	pushq	%r12
	pushq	%rbx
	subq	$104, %rsp
Ltmp654:
	.cfi_offset %rbx, -56
Ltmp655:
	.cfi_offset %r12, -48
Ltmp656:
	.cfi_offset %r13, -40
Ltmp657:
	.cfi_offset %r14, -32
Ltmp658:
	.cfi_offset %r15, -24
	##DEBUG_VALUE: luaV_concat:L <- %RDI
	##DEBUG_VALUE: luaV_concat:total <- %ESI
	movl	%esi, %r15d
Ltmp659:
	##DEBUG_VALUE: luaV_concat:total <- %R15D
	movq	%rdi, %r12
Ltmp660:
	##DEBUG_VALUE: luaV_concat:L <- %R12
	movq	%r12, -104(%rbp)        ## 8-byte Spill
	movq	___stack_chk_guard@GOTPCREL(%rip), %rax
	movq	(%rax), %rax
	movq	%rax, -48(%rbp)
	.loc	1 738 20 prologue_end   ## /Users/dylan/github/ravi/src/lvm.c:738:20
Ltmp661:
	movq	16(%r12), %rbx
Ltmp662:
	.align	4, 0x90
LBB11_1:                                ## =>This Loop Header: Depth=1
                                        ##     Child Loop BB11_17 Depth 2
                                        ##     Child Loop BB11_34 Depth 2
                                        ##     Child Loop BB11_28 Depth 2
	##DEBUG_VALUE: luaV_concat:L <- %R12
	##DEBUG_VALUE: n <- 2
	##DEBUG_VALUE: top <- %RBX
	.loc	1 740 11                ## /Users/dylan/github/ravi/src/lvm.c:740:11
	leaq	-32(%rbx), %r14
Ltmp663:
	##DEBUG_VALUE: io1 <- %R14
	movl	-24(%rbx), %eax
	andl	$15, %eax
	.loc	1 740 29 is_stmt 0      ## /Users/dylan/github/ravi/src/lvm.c:740:29
	addl	$-3, %eax
	.loc	1 740 52                ## /Users/dylan/github/ravi/src/lvm.c:740:52
	leaq	-16(%rbx), %r13
	.loc	1 740 29                ## /Users/dylan/github/ravi/src/lvm.c:740:29
	cmpl	$1, %eax
	ja	LBB11_43
Ltmp664:
## BB#2:                                ##   in Loop: Header=BB11_1 Depth=1
	##DEBUG_VALUE: luaV_concat:L <- %R12
	##DEBUG_VALUE: n <- 2
	##DEBUG_VALUE: top <- %RBX
	.loc	1 740 52                ## /Users/dylan/github/ravi/src/lvm.c:740:52
	movl	-8(%rbx), %eax
	movl	%eax, %ecx
	andl	$15, %ecx
	cmpl	$4, %ecx
	je	LBB11_5
Ltmp665:
## BB#3:                                ##   in Loop: Header=BB11_1 Depth=1
	##DEBUG_VALUE: luaV_concat:L <- %R12
	cmpl	$3, %ecx
	jne	LBB11_43
Ltmp666:
## BB#4:                                ##   in Loop: Header=BB11_1 Depth=1
	##DEBUG_VALUE: luaV_concat:L <- %R12
	movq	%r12, %rdi
	movq	%r13, %rsi
	callq	_luaO_tostring
	.loc	1 742 14 is_stmt 1      ## /Users/dylan/github/ravi/src/lvm.c:742:14
Ltmp667:
	movl	-8(%rbx), %eax
Ltmp668:
LBB11_5:                                ##   in Loop: Header=BB11_1 Depth=1
	##DEBUG_VALUE: luaV_concat:L <- %R12
	##DEBUG_VALUE: n <- 2
	##DEBUG_VALUE: top <- %RBX
	cmpl	$68, %eax
	jne	LBB11_9
Ltmp669:
## BB#6:                                ##   in Loop: Header=BB11_1 Depth=1
	##DEBUG_VALUE: luaV_concat:L <- %R12
	##DEBUG_VALUE: n <- 2
	##DEBUG_VALUE: top <- %RBX
	movq	(%r13), %rax
Ltmp670:
	.loc	1 742 14 is_stmt 0      ## /Users/dylan/github/ravi/src/lvm.c:742:14
	cmpb	$0, 11(%rax)
	je	LBB11_7
Ltmp671:
LBB11_9:                                ##   in Loop: Header=BB11_1 Depth=1
	##DEBUG_VALUE: luaV_concat:L <- %R12
	##DEBUG_VALUE: n <- 2
	##DEBUG_VALUE: top <- %RBX
	.loc	1 744 14 is_stmt 1      ## /Users/dylan/github/ravi/src/lvm.c:744:14
	cmpl	$68, -24(%rbx)
	jne	LBB11_12
Ltmp672:
## BB#10:                               ##   in Loop: Header=BB11_1 Depth=1
	##DEBUG_VALUE: luaV_concat:L <- %R12
	##DEBUG_VALUE: n <- 2
	##DEBUG_VALUE: top <- %RBX
	movq	(%r14), %rax
Ltmp673:
	.loc	1 744 14 is_stmt 0      ## /Users/dylan/github/ravi/src/lvm.c:744:14
	cmpb	$0, 11(%rax)
	je	LBB11_11
Ltmp674:
LBB11_12:                               ##   in Loop: Header=BB11_1 Depth=1
	##DEBUG_VALUE: luaV_concat:L <- %R12
	##DEBUG_VALUE: n <- 2
	##DEBUG_VALUE: top <- %RBX
	.loc	1 749 19 is_stmt 1      ## /Users/dylan/github/ravi/src/lvm.c:749:19
	movq	(%r13), %rax
	movl	8(%rax), %r13d
	movzbl	%r13b, %ecx
	cmpl	$4, %ecx
	jne	LBB11_14
Ltmp675:
## BB#13:                               ##   in Loop: Header=BB11_1 Depth=1
	##DEBUG_VALUE: luaV_concat:L <- %R12
	##DEBUG_VALUE: n <- 2
	##DEBUG_VALUE: top <- %RBX
	shrl	$24, %r13d
	jmp	LBB11_15
Ltmp676:
	.align	4, 0x90
LBB11_43:                               ## %._crit_edge
                                        ##   in Loop: Header=BB11_1 Depth=1
	##DEBUG_VALUE: luaV_concat:L <- %R12
	##DEBUG_VALUE: n <- 2
	.loc	1 741 7                 ## /Users/dylan/github/ravi/src/lvm.c:741:7
	movl	$22, %r8d
	movq	%r12, %rdi
	movq	%r14, %rsi
	movq	%r13, %rdx
	movq	%r14, %rcx
	callq	_luaT_trybinTM
	movl	$2, %ecx
	jmp	LBB11_40
Ltmp677:
LBB11_14:                               ##   in Loop: Header=BB11_1 Depth=1
	##DEBUG_VALUE: luaV_concat:L <- %R12
	##DEBUG_VALUE: n <- 2
	##DEBUG_VALUE: top <- %RBX
	.loc	1 749 19                ## /Users/dylan/github/ravi/src/lvm.c:749:19
	movq	16(%rax), %r13
Ltmp678:
LBB11_15:                               ## %.preheader
                                        ##   in Loop: Header=BB11_1 Depth=1
	##DEBUG_VALUE: luaV_concat:L <- %R12
	##DEBUG_VALUE: n <- 2
	##DEBUG_VALUE: top <- %RBX
	movq	%rbx, -112(%rbp)        ## 8-byte Spill
Ltmp679:
	##DEBUG_VALUE: top <- [%RBP+-112]
	movl	$1, %ebx
	.loc	1 752 29                ## /Users/dylan/github/ravi/src/lvm.c:752:29
Ltmp680:
	cmpl	$2, %r15d
	jl	LBB11_26
Ltmp681:
## BB#16:                               ## %.lr.ph.preheader
                                        ##   in Loop: Header=BB11_1 Depth=1
	##DEBUG_VALUE: luaV_concat:L <- %R12
	##DEBUG_VALUE: luaV_concat:L <- [%RBP+-104]
	##DEBUG_VALUE: n <- 2
	##DEBUG_VALUE: top <- [%RBP+-112]
	.loc	1 752 32 is_stmt 0      ## /Users/dylan/github/ravi/src/lvm.c:752:32
	movslq	%r15d, %r12
	movl	$1, %ebx
	.align	4, 0x90
LBB11_17:                               ## %.lr.ph
                                        ##   Parent Loop BB11_1 Depth=1
                                        ## =>  This Inner Loop Header: Depth=2
	##DEBUG_VALUE: luaV_concat:L <- [%RBP+-104]
	##DEBUG_VALUE: n <- 2
	##DEBUG_VALUE: top <- [%RBP+-112]
	movl	8(%r14), %eax
	andl	$15, %eax
	cmpl	$4, %eax
	je	LBB11_20
## BB#18:                               ## %.lr.ph
                                        ##   in Loop: Header=BB11_17 Depth=2
	##DEBUG_VALUE: luaV_concat:L <- [%RBP+-104]
	cmpl	$3, %eax
	jne	LBB11_25
## BB#19:                               ##   in Loop: Header=BB11_17 Depth=2
	##DEBUG_VALUE: luaV_concat:L <- [%RBP+-104]
	movq	-104(%rbp), %rdi        ## 8-byte Reload
	movq	%r14, %rsi
	callq	_luaO_tostring
LBB11_20:                               ## %.critedge1
                                        ##   in Loop: Header=BB11_17 Depth=2
	##DEBUG_VALUE: luaV_concat:L <- [%RBP+-104]
	##DEBUG_VALUE: n <- 2
	##DEBUG_VALUE: top <- [%RBP+-112]
	.loc	1 753 20 is_stmt 1      ## /Users/dylan/github/ravi/src/lvm.c:753:20
Ltmp682:
	movq	(%r14), %rcx
	movl	8(%rcx), %eax
	movzbl	%al, %edx
	cmpl	$4, %edx
	jne	LBB11_22
## BB#21:                               ##   in Loop: Header=BB11_17 Depth=2
	##DEBUG_VALUE: luaV_concat:L <- [%RBP+-104]
	##DEBUG_VALUE: n <- 2
	##DEBUG_VALUE: top <- [%RBP+-112]
	shrl	$24, %eax
	jmp	LBB11_23
	.align	4, 0x90
LBB11_22:                               ##   in Loop: Header=BB11_17 Depth=2
	##DEBUG_VALUE: luaV_concat:L <- [%RBP+-104]
	##DEBUG_VALUE: n <- 2
	##DEBUG_VALUE: top <- [%RBP+-112]
	movq	16(%rcx), %rax
LBB11_23:                               ##   in Loop: Header=BB11_17 Depth=2
	##DEBUG_VALUE: luaV_concat:L <- [%RBP+-104]
	##DEBUG_VALUE: n <- 2
	##DEBUG_VALUE: top <- [%RBP+-112]
Ltmp683:
	##DEBUG_VALUE: l <- %R13
	.loc	1 754 42                ## /Users/dylan/github/ravi/src/lvm.c:754:42
	movabsq	$9223372036854775807, %rcx ## imm = 0x7FFFFFFFFFFFFFFF
	subq	%r13, %rcx
	.loc	1 754 15 is_stmt 0      ## /Users/dylan/github/ravi/src/lvm.c:754:15
	cmpq	%rcx, %rax
Ltmp684:
	.loc	1 754 13                ## /Users/dylan/github/ravi/src/lvm.c:754:13
	jae	LBB11_44
Ltmp685:
## BB#24:                               ##   in Loop: Header=BB11_17 Depth=2
	##DEBUG_VALUE: luaV_concat:L <- [%RBP+-104]
	##DEBUG_VALUE: n <- 2
	##DEBUG_VALUE: top <- [%RBP+-112]
	##DEBUG_VALUE: l <- %R13
	.loc	1 756 12 is_stmt 1      ## /Users/dylan/github/ravi/src/lvm.c:756:12
	addq	%rax, %r13
Ltmp686:
	##DEBUG_VALUE: tl <- %R13
	.loc	1 752 29                ## /Users/dylan/github/ravi/src/lvm.c:752:29
	incq	%rbx
	.loc	1 752 21 is_stmt 0      ## /Users/dylan/github/ravi/src/lvm.c:752:21
	addq	$-16, %r14
	cmpq	%r12, %rbx
	jl	LBB11_17
Ltmp687:
LBB11_25:                               ## %.lr.ph..critedge.loopexit_crit_edge
                                        ##   in Loop: Header=BB11_1 Depth=1
	##DEBUG_VALUE: luaV_concat:L <- [%RBP+-104]
	movq	-104(%rbp), %r12        ## 8-byte Reload
Ltmp688:
	##DEBUG_VALUE: luaV_concat:L <- %R12
LBB11_26:                               ## %.critedge
                                        ##   in Loop: Header=BB11_1 Depth=1
	##DEBUG_VALUE: luaV_concat:L <- %R12
	##DEBUG_VALUE: n <- 2
	##DEBUG_VALUE: top <- [%RBP+-112]
	movl	%r15d, -116(%rbp)       ## 4-byte Spill
	.loc	1 758 11 is_stmt 1      ## /Users/dylan/github/ravi/src/lvm.c:758:11
	cmpq	$40, %r13
	ja	LBB11_33
Ltmp689:
## BB#27:                               ##   in Loop: Header=BB11_1 Depth=1
	##DEBUG_VALUE: luaV_concat:L <- [%RBP+-104]
	##DEBUG_VALUE: n <- 2
	##DEBUG_VALUE: top <- [%RBP+-112]
	##DEBUG_VALUE: copy2buff:tl <- 0
	.loc	1 723 3                 ## /Users/dylan/github/ravi/src/lvm.c:723:3
	movslq	%ebx, %rax
	movq	%rax, -136(%rbp)        ## 8-byte Spill
	movq	%rbx, -128(%rbp)        ## 8-byte Spill
	leaq	1(%rax), %r12
	shlq	$4, %rax
	movq	-112(%rbp), %r15        ## 8-byte Reload
	subq	%rax, %r15
	xorl	%r14d, %r14d
	.align	4, 0x90
LBB11_28:                               ##   Parent Loop BB11_1 Depth=1
                                        ## =>  This Inner Loop Header: Depth=2
	##DEBUG_VALUE: luaV_concat:L <- [%RBP+-104]
	##DEBUG_VALUE: n <- 2
	##DEBUG_VALUE: top <- [%RBP+-112]
	##DEBUG_VALUE: copy2buff:tl <- 0
	.loc	1 724 16                ## /Users/dylan/github/ravi/src/lvm.c:724:16
Ltmp690:
	movq	(%r15), %rsi
	movl	8(%rsi), %ebx
	movzbl	%bl, %eax
	cmpl	$4, %eax
	jne	LBB11_30
## BB#29:                               ##   in Loop: Header=BB11_28 Depth=2
	##DEBUG_VALUE: luaV_concat:L <- [%RBP+-104]
	##DEBUG_VALUE: n <- 2
	##DEBUG_VALUE: top <- [%RBP+-112]
	##DEBUG_VALUE: copy2buff:tl <- 0
	shrl	$24, %ebx
	jmp	LBB11_31
	.align	4, 0x90
LBB11_30:                               ##   in Loop: Header=BB11_28 Depth=2
	##DEBUG_VALUE: luaV_concat:L <- [%RBP+-104]
	##DEBUG_VALUE: n <- 2
	##DEBUG_VALUE: top <- [%RBP+-112]
	##DEBUG_VALUE: copy2buff:tl <- 0
	movq	16(%rsi), %rbx
LBB11_31:                               ##   in Loop: Header=BB11_28 Depth=2
	##DEBUG_VALUE: luaV_concat:L <- [%RBP+-104]
	##DEBUG_VALUE: n <- 2
	##DEBUG_VALUE: top <- [%RBP+-112]
	##DEBUG_VALUE: copy2buff:tl <- 0
	.loc	1 725 5                 ## /Users/dylan/github/ravi/src/lvm.c:725:5
	leaq	-96(%rbp,%r14), %rdi
	addq	$24, %rsi
Ltmp691:
	##DEBUG_VALUE: l <- %R14
	movq	%rbx, %rdx
	callq	_memcpy
	.loc	1 726 8                 ## /Users/dylan/github/ravi/src/lvm.c:726:8
	addq	%rbx, %r14
Ltmp692:
	##DEBUG_VALUE: copy2buff:tl <- %R14
	.loc	1 727 16                ## /Users/dylan/github/ravi/src/lvm.c:727:16
	decq	%r12
	addq	$16, %r15
	cmpq	$1, %r12
	jg	LBB11_28
Ltmp693:
## BB#32:                               ## %copy2buff.exit
                                        ##   in Loop: Header=BB11_1 Depth=1
	##DEBUG_VALUE: luaV_concat:L <- [%RBP+-104]
	##DEBUG_VALUE: n <- 2
	##DEBUG_VALUE: top <- [%RBP+-112]
	movq	-104(%rbp), %r12        ## 8-byte Reload
Ltmp694:
	##DEBUG_VALUE: luaV_concat:L <- %R12
	.loc	1 761 14                ## /Users/dylan/github/ravi/src/lvm.c:761:14
	movq	%r12, %rdi
	leaq	-96(%rbp), %rsi
	movq	%r13, %rdx
	callq	_luaS_newlstr
Ltmp695:
	##DEBUG_VALUE: ts <- %RAX
	jmp	LBB11_39
Ltmp696:
LBB11_33:                               ##   in Loop: Header=BB11_1 Depth=1
	##DEBUG_VALUE: luaV_concat:L <- %R12
	##DEBUG_VALUE: n <- 2
	##DEBUG_VALUE: top <- [%RBP+-112]
	.loc	1 764 14                ## /Users/dylan/github/ravi/src/lvm.c:764:14
	movq	%r12, %rdi
Ltmp697:
	##DEBUG_VALUE: luaV_concat:L <- [%RBP+-104]
	movq	%rbx, -128(%rbp)        ## 8-byte Spill
	movq	%r13, %rsi
	callq	_luaS_createlngstrobj
Ltmp698:
	##DEBUG_VALUE: copy2buff:tl <- 0
	##DEBUG_VALUE: ts <- %RAX
	.loc	1 765 27                ## /Users/dylan/github/ravi/src/lvm.c:765:27
	movq	%rax, -144(%rbp)        ## 8-byte Spill
	movq	%rax, %r12
Ltmp699:
	##DEBUG_VALUE: ts <- [%RBP+-144]
	addq	$24, %r12
	.loc	1 723 3                 ## /Users/dylan/github/ravi/src/lvm.c:723:3
Ltmp700:
	movslq	%ebx, %rax
	movq	%rax, -136(%rbp)        ## 8-byte Spill
	leaq	1(%rax), %r13
	shlq	$4, %rax
	movq	-112(%rbp), %r15        ## 8-byte Reload
	subq	%rax, %r15
	xorl	%r14d, %r14d
	.align	4, 0x90
LBB11_34:                               ##   Parent Loop BB11_1 Depth=1
                                        ## =>  This Inner Loop Header: Depth=2
	##DEBUG_VALUE: luaV_concat:L <- [%RBP+-104]
	##DEBUG_VALUE: n <- 2
	##DEBUG_VALUE: top <- [%RBP+-112]
	##DEBUG_VALUE: ts <- [%RBP+-144]
	##DEBUG_VALUE: copy2buff:tl <- 0
	.loc	1 724 16                ## /Users/dylan/github/ravi/src/lvm.c:724:16
Ltmp701:
	movq	(%r15), %rsi
	movl	8(%rsi), %ebx
	movzbl	%bl, %eax
	cmpl	$4, %eax
	jne	LBB11_36
## BB#35:                               ##   in Loop: Header=BB11_34 Depth=2
	##DEBUG_VALUE: luaV_concat:L <- [%RBP+-104]
	##DEBUG_VALUE: n <- 2
	##DEBUG_VALUE: top <- [%RBP+-112]
	##DEBUG_VALUE: ts <- [%RBP+-144]
	##DEBUG_VALUE: copy2buff:tl <- 0
	shrl	$24, %ebx
	jmp	LBB11_37
	.align	4, 0x90
LBB11_36:                               ##   in Loop: Header=BB11_34 Depth=2
	##DEBUG_VALUE: luaV_concat:L <- [%RBP+-104]
	##DEBUG_VALUE: n <- 2
	##DEBUG_VALUE: top <- [%RBP+-112]
	##DEBUG_VALUE: ts <- [%RBP+-144]
	##DEBUG_VALUE: copy2buff:tl <- 0
	movq	16(%rsi), %rbx
LBB11_37:                               ##   in Loop: Header=BB11_34 Depth=2
	##DEBUG_VALUE: luaV_concat:L <- [%RBP+-104]
	##DEBUG_VALUE: n <- 2
	##DEBUG_VALUE: top <- [%RBP+-112]
	##DEBUG_VALUE: ts <- [%RBP+-144]
	##DEBUG_VALUE: copy2buff:tl <- 0
	.loc	1 725 5                 ## /Users/dylan/github/ravi/src/lvm.c:725:5
	leaq	(%r12,%r14), %rdi
	addq	$24, %rsi
Ltmp702:
	##DEBUG_VALUE: l <- %R14
	movq	%rbx, %rdx
	callq	_memcpy
	.loc	1 726 8                 ## /Users/dylan/github/ravi/src/lvm.c:726:8
	addq	%rbx, %r14
Ltmp703:
	##DEBUG_VALUE: copy2buff:tl <- %R14
	.loc	1 727 16                ## /Users/dylan/github/ravi/src/lvm.c:727:16
	decq	%r13
	addq	$16, %r15
	cmpq	$1, %r13
	jg	LBB11_34
Ltmp704:
## BB#38:                               ##   in Loop: Header=BB11_1 Depth=1
	##DEBUG_VALUE: luaV_concat:L <- [%RBP+-104]
	movq	-104(%rbp), %r12        ## 8-byte Reload
Ltmp705:
	##DEBUG_VALUE: luaV_concat:L <- %R12
	movq	-144(%rbp), %rax        ## 8-byte Reload
Ltmp706:
LBB11_39:                               ## %copy2buff.exit6
                                        ##   in Loop: Header=BB11_1 Depth=1
	##DEBUG_VALUE: luaV_concat:L <- %R12
	##DEBUG_VALUE: n <- 2
	##DEBUG_VALUE: top <- [%RBP+-112]
	movq	-136(%rbp), %rdx        ## 8-byte Reload
	.loc	1 767 7                 ## /Users/dylan/github/ravi/src/lvm.c:767:7
Ltmp707:
	shlq	$4, %rdx
	movq	-112(%rbp), %rcx        ## 8-byte Reload
Ltmp708:
	##DEBUG_VALUE: top <- %RCX
	subq	%rdx, %rcx
Ltmp709:
	##DEBUG_VALUE: io <- %RCX
	movq	%rax, (%rcx)
	movzbl	8(%rax), %eax
	orl	$64, %eax
	movl	%eax, 8(%rcx)
	movl	-116(%rbp), %r15d       ## 4-byte Reload
	movq	-128(%rbp), %rcx        ## 8-byte Reload
Ltmp710:
	jmp	LBB11_40
Ltmp711:
LBB11_7:                                ##   in Loop: Header=BB11_1 Depth=1
	##DEBUG_VALUE: luaV_concat:L <- %R12
	##DEBUG_VALUE: n <- 2
	##DEBUG_VALUE: top <- %RBX
	.loc	1 743 7                 ## /Users/dylan/github/ravi/src/lvm.c:743:7
	movl	-24(%rbx), %eax
	andl	$15, %eax
	movl	$2, %ecx
	cmpl	$3, %eax
	jne	LBB11_40
Ltmp712:
## BB#8:                                ##   in Loop: Header=BB11_1 Depth=1
	##DEBUG_VALUE: luaV_concat:L <- %R12
	##DEBUG_VALUE: n <- 2
	movq	%r12, %rdi
	movq	%r14, %rsi
	callq	_luaO_tostring
	movl	$2, %ecx
	jmp	LBB11_40
Ltmp713:
LBB11_11:                               ##   in Loop: Header=BB11_1 Depth=1
	##DEBUG_VALUE: luaV_concat:L <- %R12
	##DEBUG_VALUE: n <- 2
	.loc	1 745 7                 ## /Users/dylan/github/ravi/src/lvm.c:745:7
	movq	(%r13), %rax
	movq	8(%r13), %rcx
	movq	%rcx, 8(%r14)
	movq	%rax, (%r14)
	movl	$2, %ecx
Ltmp714:
	.align	4, 0x90
LBB11_40:                               ##   in Loop: Header=BB11_1 Depth=1
	##DEBUG_VALUE: luaV_concat:L <- %R12
	##DEBUG_VALUE: n <- 2
	.loc	1 770 12                ## /Users/dylan/github/ravi/src/lvm.c:770:12
	movslq	%ecx, %rax
	.loc	1 769 15                ## /Users/dylan/github/ravi/src/lvm.c:769:15
	movq	%rax, %rcx
	shlq	$4, %rcx
	decl	%eax
	.loc	1 769 11 is_stmt 0      ## /Users/dylan/github/ravi/src/lvm.c:769:11
	subl	%eax, %r15d
Ltmp715:
	##DEBUG_VALUE: luaV_concat:total <- %R15D
	.loc	1 770 12 is_stmt 1      ## /Users/dylan/github/ravi/src/lvm.c:770:12
	movq	16(%r12), %rbx
	addq	$-16, %rcx
	subq	%rcx, %rbx
	movq	%rbx, 16(%r12)
Ltmp716:
	.loc	1 771 18                ## /Users/dylan/github/ravi/src/lvm.c:771:18
	cmpl	$1, %r15d
	jg	LBB11_1
Ltmp717:
## BB#41:
	movq	___stack_chk_guard@GOTPCREL(%rip), %rax
	movq	(%rax), %rax
	cmpq	-48(%rbp), %rax
	jne	LBB11_45
## BB#42:
	.loc	1 772 1                 ## /Users/dylan/github/ravi/src/lvm.c:772:1
	addq	$104, %rsp
	popq	%rbx
	popq	%r12
	popq	%r13
	popq	%r14
	popq	%r15
	popq	%rbp
	retq
LBB11_44:
Ltmp718:
	##DEBUG_VALUE: luaV_concat:L <- [%RBP+-104]
	##DEBUG_VALUE: n <- 2
	.loc	1 755 11                ## /Users/dylan/github/ravi/src/lvm.c:755:11
	leaq	L_.str.6(%rip), %rsi
	xorl	%eax, %eax
	movq	-104(%rbp), %rdi        ## 8-byte Reload
	callq	_luaG_runerror
Ltmp719:
LBB11_45:
	callq	___stack_chk_fail
Lfunc_end11:
	.cfi_endproc

	.globl	_luaV_objlen
	.align	4, 0x90
_luaV_objlen:                           ## @luaV_objlen
Lfunc_begin12:
	.loc	1 778 0                 ## /Users/dylan/github/ravi/src/lvm.c:778:0
	.cfi_startproc
## BB#0:
	pushq	%rbp
Ltmp720:
	.cfi_def_cfa_offset 16
Ltmp721:
	.cfi_offset %rbp, -16
	movq	%rsp, %rbp
Ltmp722:
	.cfi_def_cfa_register %rbp
	pushq	%r15
	pushq	%r14
	pushq	%r12
	pushq	%rbx
Ltmp723:
	.cfi_offset %rbx, -48
Ltmp724:
	.cfi_offset %r12, -40
Ltmp725:
	.cfi_offset %r14, -32
Ltmp726:
	.cfi_offset %r15, -24
	##DEBUG_VALUE: luaV_objlen:L <- %RDI
	##DEBUG_VALUE: luaV_objlen:ra <- %RSI
	##DEBUG_VALUE: luaV_objlen:rb <- %RDX
Ltmp727:
	##DEBUG_VALUE: io <- %RSI
	##DEBUG_VALUE: io <- %RSI
	##DEBUG_VALUE: io <- %RSI
	##DEBUG_VALUE: io <- %RSI
	movq	%rdx, %rbx
Ltmp728:
	##DEBUG_VALUE: luaV_objlen:rb <- %RBX
	movq	%rsi, %r14
Ltmp729:
	##DEBUG_VALUE: io <- %R14
	##DEBUG_VALUE: io <- %R14
	##DEBUG_VALUE: io <- %R14
	##DEBUG_VALUE: io <- %R14
	##DEBUG_VALUE: luaV_objlen:ra <- %R14
	movq	%rdi, %r15
Ltmp730:
	##DEBUG_VALUE: luaV_objlen:L <- %R15
	.loc	1 780 11 prologue_end   ## /Users/dylan/github/ravi/src/lvm.c:780:11
	movl	8(%rbx), %eax
	andl	$63, %eax
	.loc	1 780 3 is_stmt 0       ## /Users/dylan/github/ravi/src/lvm.c:780:3
	cmpl	$19, %eax
	jle	LBB12_1
Ltmp731:
## BB#7:
	##DEBUG_VALUE: luaV_objlen:L <- %R15
	##DEBUG_VALUE: luaV_objlen:ra <- %R14
	##DEBUG_VALUE: luaV_objlen:rb <- %RBX
	cmpl	$20, %eax
	je	LBB12_14
Ltmp732:
## BB#8:
	##DEBUG_VALUE: luaV_objlen:L <- %R15
	##DEBUG_VALUE: luaV_objlen:ra <- %R14
	##DEBUG_VALUE: luaV_objlen:rb <- %RBX
	cmpl	$37, %eax
	je	LBB12_10
Ltmp733:
## BB#9:
	##DEBUG_VALUE: luaV_objlen:L <- %R15
	##DEBUG_VALUE: luaV_objlen:ra <- %R14
	##DEBUG_VALUE: luaV_objlen:rb <- %RBX
	cmpl	$21, %eax
	jne	LBB12_15
Ltmp734:
LBB12_10:
	##DEBUG_VALUE: luaV_objlen:ra <- %R14
	##DEBUG_VALUE: luaV_objlen:rb <- %RBX
	.loc	1 783 18 is_stmt 1      ## /Users/dylan/github/ravi/src/lvm.c:783:18
	movq	(%rbx), %rdi
Ltmp735:
	##DEBUG_VALUE: h <- %RDI
	.loc	1 784 7                 ## /Users/dylan/github/ravi/src/lvm.c:784:7
	callq	_raviH_getn
	jmp	LBB12_11
Ltmp736:
LBB12_1:
	##DEBUG_VALUE: luaV_objlen:L <- %R15
	##DEBUG_VALUE: luaV_objlen:ra <- %R14
	##DEBUG_VALUE: luaV_objlen:rb <- %RBX
	cmpl	$4, %eax
	je	LBB12_13
Ltmp737:
## BB#2:
	##DEBUG_VALUE: luaV_objlen:L <- %R15
	##DEBUG_VALUE: luaV_objlen:ra <- %R14
	##DEBUG_VALUE: luaV_objlen:rb <- %RBX
	cmpl	$5, %eax
	jne	LBB12_15
Ltmp738:
## BB#3:
	##DEBUG_VALUE: luaV_objlen:L <- %R15
	##DEBUG_VALUE: luaV_objlen:ra <- %R14
	##DEBUG_VALUE: luaV_objlen:rb <- %RBX
	.loc	1 788 18                ## /Users/dylan/github/ravi/src/lvm.c:788:18
	movq	(%rbx), %r12
Ltmp739:
	##DEBUG_VALUE: h <- %R12
	.loc	1 789 12                ## /Users/dylan/github/ravi/src/lvm.c:789:12
	movq	40(%r12), %rdi
	testq	%rdi, %rdi
	je	LBB12_6
Ltmp740:
## BB#4:
	##DEBUG_VALUE: luaV_objlen:L <- %R15
	##DEBUG_VALUE: luaV_objlen:ra <- %R14
	##DEBUG_VALUE: luaV_objlen:rb <- %RBX
	##DEBUG_VALUE: h <- %R12
	testb	$16, 10(%rdi)
	jne	LBB12_6
Ltmp741:
## BB#5:
	##DEBUG_VALUE: luaV_objlen:L <- %R15
	##DEBUG_VALUE: luaV_objlen:ra <- %R14
	##DEBUG_VALUE: luaV_objlen:rb <- %RBX
	##DEBUG_VALUE: h <- %R12
	movq	24(%r15), %rax
	movq	256(%rax), %rdx
	movl	$4, %esi
	callq	_luaT_gettm
Ltmp742:
	##DEBUG_VALUE: luaV_objlen:tm <- %RAX
	.loc	1 790 11                ## /Users/dylan/github/ravi/src/lvm.c:790:11
	testq	%rax, %rax
	jne	LBB12_16
Ltmp743:
LBB12_6:                                ## %.critedge
	##DEBUG_VALUE: luaV_objlen:ra <- %R14
	##DEBUG_VALUE: h <- %R12
	.loc	1 791 7                 ## /Users/dylan/github/ravi/src/lvm.c:791:7
	movq	%r12, %rdi
	callq	_luaH_getn
Ltmp744:
LBB12_11:
	cltq
	jmp	LBB12_12
Ltmp745:
LBB12_14:
	##DEBUG_VALUE: luaV_objlen:ra <- %R14
	##DEBUG_VALUE: luaV_objlen:rb <- %RBX
	.loc	1 799 7                 ## /Users/dylan/github/ravi/src/lvm.c:799:7
	movq	(%rbx), %rax
	movq	16(%rax), %rax
	jmp	LBB12_12
Ltmp746:
LBB12_13:
	##DEBUG_VALUE: luaV_objlen:ra <- %R14
	##DEBUG_VALUE: luaV_objlen:rb <- %RBX
	.loc	1 795 7                 ## /Users/dylan/github/ravi/src/lvm.c:795:7
	movq	(%rbx), %rax
	movzbl	11(%rax), %eax
Ltmp747:
LBB12_12:
	.loc	1 791 7                 ## /Users/dylan/github/ravi/src/lvm.c:791:7
	movq	%rax, (%r14)
	movl	$19, 8(%r14)
Ltmp748:
	.loc	1 810 1                 ## /Users/dylan/github/ravi/src/lvm.c:810:1
	popq	%rbx
	popq	%r12
	popq	%r14
	popq	%r15
	popq	%rbp
	retq
LBB12_15:
Ltmp749:
	##DEBUG_VALUE: luaV_objlen:L <- %R15
	##DEBUG_VALUE: luaV_objlen:ra <- %R14
	##DEBUG_VALUE: luaV_objlen:rb <- %RBX
	.loc	1 803 12                ## /Users/dylan/github/ravi/src/lvm.c:803:12
	movl	$4, %edx
	movq	%r15, %rdi
	movq	%rbx, %rsi
	callq	_luaT_gettmbyobj
Ltmp750:
	##DEBUG_VALUE: luaV_objlen:tm <- %RAX
	.loc	1 804 11                ## /Users/dylan/github/ravi/src/lvm.c:804:11
	cmpl	$0, 8(%rax)
	je	LBB12_17
Ltmp751:
LBB12_16:
	##DEBUG_VALUE: luaV_objlen:L <- %R15
	##DEBUG_VALUE: luaV_objlen:ra <- %R14
	##DEBUG_VALUE: luaV_objlen:rb <- %RBX
	.loc	1 809 3                 ## /Users/dylan/github/ravi/src/lvm.c:809:3
	movl	$1, %r9d
	movq	%r15, %rdi
	movq	%rax, %rsi
	movq	%rbx, %rdx
	movq	%rbx, %rcx
	movq	%r14, %r8
	popq	%rbx
Ltmp752:
	popq	%r12
	popq	%r14
Ltmp753:
	popq	%r15
Ltmp754:
	popq	%rbp
	jmp	_luaT_callTM            ## TAILCALL
LBB12_17:
Ltmp755:
	##DEBUG_VALUE: luaV_objlen:L <- %R15
	##DEBUG_VALUE: luaV_objlen:rb <- %RBX
	.loc	1 805 9                 ## /Users/dylan/github/ravi/src/lvm.c:805:9
	leaq	L_.str.7(%rip), %rdx
	movq	%r15, %rdi
	movq	%rbx, %rsi
	callq	_luaG_typeerror
Ltmp756:
Lfunc_end12:
	.cfi_endproc

	.globl	_luaV_div
	.align	4, 0x90
_luaV_div:                              ## @luaV_div
Lfunc_begin13:
	.loc	1 819 0                 ## /Users/dylan/github/ravi/src/lvm.c:819:0
	.cfi_startproc
## BB#0:
	##DEBUG_VALUE: luaV_div:L <- %RDI
	##DEBUG_VALUE: luaV_div:m <- %RSI
	##DEBUG_VALUE: luaV_div:n <- %RDX
	movq	%rdx, %rcx
Ltmp757:
	##DEBUG_VALUE: luaV_div:n <- %RCX
	.loc	1 820 20 prologue_end   ## /Users/dylan/github/ravi/src/lvm.c:820:20
	leaq	1(%rcx), %rax
Ltmp758:
	.loc	1 820 7 is_stmt 0       ## /Users/dylan/github/ravi/src/lvm.c:820:7
	cmpq	$1, %rax
	ja	LBB13_3
Ltmp759:
## BB#1:
	##DEBUG_VALUE: luaV_div:L <- %RDI
	##DEBUG_VALUE: luaV_div:m <- %RSI
	##DEBUG_VALUE: luaV_div:n <- %RCX
	.loc	1 821 9 is_stmt 1       ## /Users/dylan/github/ravi/src/lvm.c:821:9
	testq	%rcx, %rcx
	je	LBB13_6
Ltmp760:
## BB#2:
	##DEBUG_VALUE: luaV_div:m <- %RSI
	.loc	1 823 12                ## /Users/dylan/github/ravi/src/lvm.c:823:12
	negq	%rsi
Ltmp761:
	movq	%rsi, %rdi
Ltmp762:
	.loc	1 831 1                 ## /Users/dylan/github/ravi/src/lvm.c:831:1
	movq	%rdi, %rax
	retq
LBB13_3:
Ltmp763:
	##DEBUG_VALUE: luaV_div:m <- %RSI
	##DEBUG_VALUE: luaV_div:n <- %RCX
	.loc	1 826 23                ## /Users/dylan/github/ravi/src/lvm.c:826:23
	movq	%rsi, %rax
	cqto
	idivq	%rcx
	movq	%rax, %rdi
	.loc	1 827 21                ## /Users/dylan/github/ravi/src/lvm.c:827:21
Ltmp764:
	movq	%rcx, %rax
	xorq	%rsi, %rax
	jns	LBB13_5
Ltmp765:
## BB#4:
	##DEBUG_VALUE: luaV_div:m <- %RSI
	##DEBUG_VALUE: luaV_div:n <- %RCX
	.loc	1 827 26 is_stmt 0      ## /Users/dylan/github/ravi/src/lvm.c:827:26
	movq	%rsi, %rax
	cqto
	idivq	%rcx
Ltmp766:
	.loc	1 827 9                 ## /Users/dylan/github/ravi/src/lvm.c:827:9
	cmpq	$1, %rdx
	adcq	$-1, %rdi
Ltmp767:
LBB13_5:
	.loc	1 831 1 is_stmt 1       ## /Users/dylan/github/ravi/src/lvm.c:831:1
	movq	%rdi, %rax
	retq
LBB13_6:
	pushq	%rbp
Ltmp768:
	.cfi_def_cfa_offset 16
Ltmp769:
	.cfi_offset %rbp, -16
	movq	%rsp, %rbp
Ltmp770:
	.cfi_def_cfa_register %rbp
Ltmp771:
	##DEBUG_VALUE: luaV_div:L <- %RDI
	.loc	1 822 7                 ## /Users/dylan/github/ravi/src/lvm.c:822:7
	leaq	L_.str.8(%rip), %rsi
	xorl	%eax, %eax
	callq	_luaG_runerror
Ltmp772:
Lfunc_end13:
	.cfi_endproc

	.globl	_luaV_mod
	.align	4, 0x90
_luaV_mod:                              ## @luaV_mod
Lfunc_begin14:
	.loc	1 839 0                 ## /Users/dylan/github/ravi/src/lvm.c:839:0
	.cfi_startproc
## BB#0:
	##DEBUG_VALUE: luaV_mod:L <- %RDI
	##DEBUG_VALUE: luaV_mod:m <- %RSI
	##DEBUG_VALUE: luaV_mod:n <- %RDX
	movq	%rdx, %rcx
Ltmp773:
	##DEBUG_VALUE: luaV_mod:n <- %RCX
	.loc	1 840 20 prologue_end   ## /Users/dylan/github/ravi/src/lvm.c:840:20
	leaq	1(%rcx), %rax
Ltmp774:
	.loc	1 840 7 is_stmt 0       ## /Users/dylan/github/ravi/src/lvm.c:840:7
	cmpq	$1, %rax
	ja	LBB14_3
Ltmp775:
## BB#1:
	##DEBUG_VALUE: luaV_mod:L <- %RDI
	##DEBUG_VALUE: luaV_mod:n <- %RCX
	xorl	%eax, %eax
	.loc	1 841 9 is_stmt 1       ## /Users/dylan/github/ravi/src/lvm.c:841:9
Ltmp776:
	testq	%rcx, %rcx
	jne	LBB14_4
Ltmp777:
## BB#2:
	pushq	%rbp
Ltmp778:
	.cfi_def_cfa_offset 16
Ltmp779:
	.cfi_offset %rbp, -16
	movq	%rsp, %rbp
Ltmp780:
	.cfi_def_cfa_register %rbp
	##DEBUG_VALUE: luaV_mod:L <- %RDI
	.loc	1 842 7                 ## /Users/dylan/github/ravi/src/lvm.c:842:7
Ltmp781:
	leaq	L_.str.9(%rip), %rsi
	xorl	%eax, %eax
	callq	_luaG_runerror
Ltmp782:
LBB14_3:
	##DEBUG_VALUE: luaV_mod:m <- %RSI
	##DEBUG_VALUE: luaV_mod:n <- %RCX
	.loc	1 846 23                ## /Users/dylan/github/ravi/src/lvm.c:846:23
	movq	%rsi, %rax
	cqto
	idivq	%rcx
	.loc	1 847 22                ## /Users/dylan/github/ravi/src/lvm.c:847:22
Ltmp783:
	xorq	%rcx, %rsi
Ltmp784:
	sarq	$63, %rsi
	.loc	1 847 11 is_stmt 0      ## /Users/dylan/github/ravi/src/lvm.c:847:11
	testq	%rdx, %rdx
	.loc	1 847 16                ## /Users/dylan/github/ravi/src/lvm.c:847:16
	cmoveq	%rdx, %rcx
Ltmp785:
	andq	%rsi, %rcx
	addq	%rdx, %rcx
	movq	%rcx, %rax
Ltmp786:
LBB14_4:
	.loc	1 851 1 is_stmt 1       ## /Users/dylan/github/ravi/src/lvm.c:851:1
	retq
Ltmp787:
Lfunc_end14:
	.cfi_endproc

	.globl	_luaV_shiftl
	.align	4, 0x90
_luaV_shiftl:                           ## @luaV_shiftl
Lfunc_begin15:
	.loc	1 860 0                 ## /Users/dylan/github/ravi/src/lvm.c:860:0
	.cfi_startproc
## BB#0:
	pushq	%rbp
Ltmp788:
	.cfi_def_cfa_offset 16
Ltmp789:
	.cfi_offset %rbp, -16
	movq	%rsp, %rbp
Ltmp790:
	.cfi_def_cfa_register %rbp
	##DEBUG_VALUE: luaV_shiftl:x <- %RDI
	##DEBUG_VALUE: luaV_shiftl:y <- %RSI
	.loc	1 861 7 prologue_end    ## /Users/dylan/github/ravi/src/lvm.c:861:7
Ltmp791:
	testq	%rsi, %rsi
	js	LBB15_1
Ltmp792:
## BB#2:
	##DEBUG_VALUE: luaV_shiftl:x <- %RDI
	##DEBUG_VALUE: luaV_shiftl:y <- %RSI
	.loc	1 867 17                ## /Users/dylan/github/ravi/src/lvm.c:867:17
	movb	%sil, %cl
	shlq	%cl, %rdi
Ltmp793:
	.loc	1 866 9                 ## /Users/dylan/github/ravi/src/lvm.c:866:9
	xorl	%eax, %eax
	.loc	1 866 11 is_stmt 0      ## /Users/dylan/github/ravi/src/lvm.c:866:11
Ltmp794:
	cmpq	$63, %rsi
Ltmp795:
	.loc	1 866 9                 ## /Users/dylan/github/ravi/src/lvm.c:866:9
	cmovleq	%rdi, %rax
	popq	%rbp
	retq
Ltmp796:
LBB15_1:
	##DEBUG_VALUE: luaV_shiftl:x <- %RDI
	##DEBUG_VALUE: luaV_shiftl:y <- %RSI
	.loc	1 863 17 is_stmt 1      ## /Users/dylan/github/ravi/src/lvm.c:863:17
	movl	%esi, %ecx
	negl	%ecx
	shrq	%cl, %rdi
Ltmp797:
	xorl	%eax, %eax
	.loc	1 862 11                ## /Users/dylan/github/ravi/src/lvm.c:862:11
	cmpq	$-63, %rsi
Ltmp798:
	.loc	1 862 9 is_stmt 0       ## /Users/dylan/github/ravi/src/lvm.c:862:9
	cmovgeq	%rdi, %rax
Ltmp799:
	.loc	1 869 1 is_stmt 1       ## /Users/dylan/github/ravi/src/lvm.c:869:1
	popq	%rbp
	retq
Ltmp800:
Lfunc_end15:
	.cfi_endproc

	.globl	_luaV_finishOp
	.align	4, 0x90
_luaV_finishOp:                         ## @luaV_finishOp
Lfunc_begin16:
	.loc	1 923 0                 ## /Users/dylan/github/ravi/src/lvm.c:923:0
	.cfi_startproc
## BB#0:
	pushq	%rbp
Ltmp801:
	.cfi_def_cfa_offset 16
Ltmp802:
	.cfi_offset %rbp, -16
	movq	%rsp, %rbp
Ltmp803:
	.cfi_def_cfa_register %rbp
	pushq	%r15
	pushq	%r14
	pushq	%rbx
	pushq	%rax
Ltmp804:
	.cfi_offset %rbx, -40
Ltmp805:
	.cfi_offset %r14, -32
Ltmp806:
	.cfi_offset %r15, -24
	##DEBUG_VALUE: luaV_finishOp:L <- %RDI
	movq	%rdi, %r14
Ltmp807:
	##DEBUG_VALUE: luaV_finishOp:L <- %R14
	.loc	1 924 21 prologue_end   ## /Users/dylan/github/ravi/src/lvm.c:924:21
	movq	32(%r14), %r15
Ltmp808:
	##DEBUG_VALUE: luaV_finishOp:ci <- %R15
	.loc	1 925 24                ## /Users/dylan/github/ravi/src/lvm.c:925:24
	movq	32(%r15), %rcx
Ltmp809:
	##DEBUG_VALUE: luaV_finishOp:base <- %RCX
	.loc	1 950 24                ## /Users/dylan/github/ravi/src/lvm.c:950:24
	movq	40(%r15), %rax
Ltmp810:
	.loc	1 926 22                ## /Users/dylan/github/ravi/src/lvm.c:926:22
	movl	-4(%rax), %ebx
Ltmp811:
	##DEBUG_VALUE: luaV_finishOp:inst <- %EBX
	.loc	1 927 15                ## /Users/dylan/github/ravi/src/lvm.c:927:15
	movzbl	%bl, %edx
Ltmp812:
	##DEBUG_VALUE: luaV_finishOp:op <- %EDX
	.loc	1 928 3                 ## /Users/dylan/github/ravi/src/lvm.c:928:3
	leal	-6(%rdx), %esi
	cmpl	$35, %esi
	ja	LBB16_1
Ltmp813:
## BB#19:
	##DEBUG_VALUE: luaV_finishOp:L <- %R14
	##DEBUG_VALUE: luaV_finishOp:ci <- %R15
	##DEBUG_VALUE: luaV_finishOp:base <- %RCX
	##DEBUG_VALUE: luaV_finishOp:inst <- %EBX
	leaq	LJTI16_0(%rip), %rdx
	movslq	(%rdx,%rsi,4), %rsi
	addq	%rdx, %rsi
	jmpq	*%rsi
Ltmp814:
LBB16_4:
	##DEBUG_VALUE: luaV_finishOp:L <- %R14
	##DEBUG_VALUE: luaV_finishOp:ci <- %R15
	##DEBUG_VALUE: luaV_finishOp:inst <- %EBX
	.loc	1 942 13                ## /Users/dylan/github/ravi/src/lvm.c:942:13
	movq	16(%r14), %rdx
	.loc	1 941 18                ## /Users/dylan/github/ravi/src/lvm.c:941:18
	movl	-8(%rdx), %esi
	movb	$1, %cl
	testl	%esi, %esi
	je	LBB16_8
Ltmp815:
## BB#5:
	##DEBUG_VALUE: luaV_finishOp:L <- %R14
	##DEBUG_VALUE: luaV_finishOp:ci <- %R15
	##DEBUG_VALUE: luaV_finishOp:inst <- %EBX
	cmpl	$1, %esi
	jne	LBB16_6
Ltmp816:
## BB#7:
	##DEBUG_VALUE: luaV_finishOp:L <- %R14
	##DEBUG_VALUE: luaV_finishOp:ci <- %R15
	##DEBUG_VALUE: luaV_finishOp:inst <- %EBX
	cmpl	$0, -16(%rdx)
	sete	%cl
	jmp	LBB16_8
Ltmp817:
LBB16_1:
	##DEBUG_VALUE: luaV_finishOp:L <- %R14
	##DEBUG_VALUE: luaV_finishOp:base <- %RCX
	##DEBUG_VALUE: luaV_finishOp:inst <- %EBX
	##DEBUG_VALUE: luaV_finishOp:op <- %EDX
	addl	$-107, %edx
Ltmp818:
	cmpl	$8, %edx
	ja	LBB16_18
Ltmp819:
## BB#2:
	##DEBUG_VALUE: luaV_finishOp:L <- %R14
	##DEBUG_VALUE: luaV_finishOp:base <- %RCX
	##DEBUG_VALUE: luaV_finishOp:inst <- %EBX
	movl	$365, %eax              ## imm = 0x16D
	btl	%edx, %eax
	jae	LBB16_18
Ltmp820:
LBB16_3:
	##DEBUG_VALUE: luaV_finishOp:L <- %R14
	##DEBUG_VALUE: luaV_finishOp:base <- %RCX
	##DEBUG_VALUE: luaV_finishOp:inst <- %EBX
	.loc	1 937 7                 ## /Users/dylan/github/ravi/src/lvm.c:937:7
	shrl	$8, %ebx
Ltmp821:
	andl	$127, %ebx
	shlq	$4, %rbx
	movq	16(%r14), %rax
	leaq	-16(%rax), %rdx
	movq	%rdx, 16(%r14)
	movq	-16(%rax), %rdx
	movq	-8(%rax), %rax
	movq	%rax, 8(%rcx,%rbx)
	movq	%rdx, (%rcx,%rbx)
Ltmp822:
LBB16_18:
	.loc	1 982 1                 ## /Users/dylan/github/ravi/src/lvm.c:982:1
	addq	$8, %rsp
	popq	%rbx
	popq	%r14
	popq	%r15
	popq	%rbp
	retq
LBB16_16:
Ltmp823:
	##DEBUG_VALUE: luaV_finishOp:L <- %R14
	##DEBUG_VALUE: luaV_finishOp:ci <- %R15
	##DEBUG_VALUE: luaV_finishOp:inst <- %EBX
	.loc	1 973 30                ## /Users/dylan/github/ravi/src/lvm.c:973:30
	testl	$16711680, %ebx         ## imm = 0xFF0000
	jne	LBB16_17
	jmp	LBB16_18
Ltmp824:
LBB16_13:
	##DEBUG_VALUE: luaV_finishOp:L <- %R14
	##DEBUG_VALUE: luaV_finishOp:ci <- %R15
	##DEBUG_VALUE: luaV_finishOp:base <- %RCX
	##DEBUG_VALUE: luaV_finishOp:inst <- %EBX
	.loc	1 954 22                ## /Users/dylan/github/ravi/src/lvm.c:954:22
	movq	16(%r14), %rax
	.loc	1 955 15                ## /Users/dylan/github/ravi/src/lvm.c:955:15
	movl	%ebx, %edx
	shrl	$24, %edx
Ltmp825:
	##DEBUG_VALUE: b <- %EDX
	.loc	1 956 19                ## /Users/dylan/github/ravi/src/lvm.c:956:19
	shlq	$4, %rdx
Ltmp826:
	addq	%rdx, %rcx
Ltmp827:
	negq	%rcx
	leaq	-32(%rax,%rcx), %rsi
	shrq	$4, %rsi
Ltmp828:
	##DEBUG_VALUE: total <- %ESI
	.loc	1 957 7                 ## /Users/dylan/github/ravi/src/lvm.c:957:7
	movq	-16(%rax), %rcx
	movq	-8(%rax), %rdx
	movq	%rdx, -40(%rax)
	movq	%rcx, -48(%rax)
Ltmp829:
	.loc	1 958 11                ## /Users/dylan/github/ravi/src/lvm.c:958:11
	cmpl	$2, %esi
	jl	LBB16_15
Ltmp830:
## BB#14:
	##DEBUG_VALUE: luaV_finishOp:L <- %R14
	##DEBUG_VALUE: luaV_finishOp:ci <- %R15
	##DEBUG_VALUE: luaV_finishOp:inst <- %EBX
	##DEBUG_VALUE: total <- %ESI
	.loc	1 956 19                ## /Users/dylan/github/ravi/src/lvm.c:956:19
	addq	$-32, %rax
	.loc	1 959 16                ## /Users/dylan/github/ravi/src/lvm.c:959:16
Ltmp831:
	movq	%rax, 16(%r14)
	.loc	1 960 9                 ## /Users/dylan/github/ravi/src/lvm.c:960:9
	movq	%r14, %rdi
	callq	_luaV_concat
Ltmp832:
LBB16_15:
	##DEBUG_VALUE: luaV_finishOp:L <- %R14
	##DEBUG_VALUE: luaV_finishOp:ci <- %R15
	##DEBUG_VALUE: luaV_finishOp:inst <- %EBX
	.loc	1 963 7                 ## /Users/dylan/github/ravi/src/lvm.c:963:7
	movq	32(%r15), %rax
	shrl	$8, %ebx
Ltmp833:
	andl	$127, %ebx
	shlq	$4, %rbx
	movq	16(%r14), %rcx
	movq	-16(%rcx), %rdx
	movq	-8(%rcx), %rcx
	movq	%rcx, 8(%rax,%rbx)
	movq	%rdx, (%rax,%rbx)
Ltmp834:
LBB16_17:
	##DEBUG_VALUE: luaV_finishOp:L <- %R14
	##DEBUG_VALUE: luaV_finishOp:ci <- %R15
	.loc	1 974 22                ## /Users/dylan/github/ravi/src/lvm.c:974:22
	movq	8(%r15), %rax
	.loc	1 974 16 is_stmt 0      ## /Users/dylan/github/ravi/src/lvm.c:974:16
	movq	%rax, 16(%r14)
	jmp	LBB16_18
Ltmp835:
LBB16_6:
	##DEBUG_VALUE: luaV_finishOp:L <- %R14
	##DEBUG_VALUE: luaV_finishOp:ci <- %R15
	##DEBUG_VALUE: luaV_finishOp:inst <- %EBX
	xorl	%ecx, %ecx
Ltmp836:
LBB16_8:
	##DEBUG_VALUE: luaV_finishOp:L <- %R14
	##DEBUG_VALUE: luaV_finishOp:ci <- %R15
	##DEBUG_VALUE: luaV_finishOp:inst <- %EBX
	.loc	1 941 17 is_stmt 1      ## /Users/dylan/github/ravi/src/lvm.c:941:17
	movzbl	%cl, %ecx
Ltmp837:
	##DEBUG_VALUE: res <- %ECX
	.loc	1 942 13                ## /Users/dylan/github/ravi/src/lvm.c:942:13
	addq	$-16, %rdx
	movq	%rdx, 16(%r14)
	.loc	1 943 15                ## /Users/dylan/github/ravi/src/lvm.c:943:15
Ltmp838:
	movw	66(%r15), %dx
Ltmp839:
	.loc	1 943 11 is_stmt 0      ## /Users/dylan/github/ravi/src/lvm.c:943:11
	testb	%dl, %dl
	js	LBB16_10
Ltmp840:
## BB#9:
	##DEBUG_VALUE: luaV_finishOp:ci <- %R15
	##DEBUG_VALUE: luaV_finishOp:inst <- %EBX
	##DEBUG_VALUE: res <- %ECX
	.loc	1 941 17 is_stmt 1      ## /Users/dylan/github/ravi/src/lvm.c:941:17
	xorl	$1, %ecx
Ltmp841:
	jmp	LBB16_11
Ltmp842:
LBB16_10:
	##DEBUG_VALUE: luaV_finishOp:ci <- %R15
	##DEBUG_VALUE: luaV_finishOp:inst <- %EBX
	##DEBUG_VALUE: res <- %ECX
	.loc	1 945 24                ## /Users/dylan/github/ravi/src/lvm.c:945:24
	xorl	$128, %edx
	movw	%dx, 66(%r15)
Ltmp843:
LBB16_11:
	##DEBUG_VALUE: luaV_finishOp:ci <- %R15
	##DEBUG_VALUE: luaV_finishOp:inst <- %EBX
	.loc	1 949 18                ## /Users/dylan/github/ravi/src/lvm.c:949:18
	shrl	$8, %ebx
Ltmp844:
	andl	$127, %ebx
	.loc	1 949 15 is_stmt 0      ## /Users/dylan/github/ravi/src/lvm.c:949:15
	cmpl	%ebx, %ecx
	je	LBB16_18
Ltmp845:
## BB#12:
	##DEBUG_VALUE: luaV_finishOp:ci <- %R15
	.loc	1 950 24 is_stmt 1      ## /Users/dylan/github/ravi/src/lvm.c:950:24
	addq	$4, %rax
	movq	%rax, 40(%r15)
	jmp	LBB16_18
Ltmp846:
Lfunc_end16:
	.cfi_endproc
	.align	2, 0x90
L16_0_set_3 = LBB16_3-LJTI16_0
L16_0_set_18 = LBB16_18-LJTI16_0
L16_0_set_13 = LBB16_13-LJTI16_0
L16_0_set_4 = LBB16_4-LJTI16_0
L16_0_set_16 = LBB16_16-LJTI16_0
L16_0_set_17 = LBB16_17-LJTI16_0
LJTI16_0:
	.long	L16_0_set_3
	.long	L16_0_set_3
	.long	L16_0_set_18
	.long	L16_0_set_18
	.long	L16_0_set_18
	.long	L16_0_set_18
	.long	L16_0_set_3
	.long	L16_0_set_3
	.long	L16_0_set_3
	.long	L16_0_set_3
	.long	L16_0_set_3
	.long	L16_0_set_3
	.long	L16_0_set_3
	.long	L16_0_set_3
	.long	L16_0_set_3
	.long	L16_0_set_3
	.long	L16_0_set_3
	.long	L16_0_set_3
	.long	L16_0_set_3
	.long	L16_0_set_3
	.long	L16_0_set_3
	.long	L16_0_set_18
	.long	L16_0_set_3
	.long	L16_0_set_13
	.long	L16_0_set_18
	.long	L16_0_set_4
	.long	L16_0_set_4
	.long	L16_0_set_4
	.long	L16_0_set_18
	.long	L16_0_set_18
	.long	L16_0_set_16
	.long	L16_0_set_18
	.long	L16_0_set_18
	.long	L16_0_set_18
	.long	L16_0_set_18
	.long	L16_0_set_17

	.globl	_asvm_compatible
	.align	4, 0x90
_asvm_compatible:                       ## @asvm_compatible
Lfunc_begin17:
	.loc	1 1138 0                ## /Users/dylan/github/ravi/src/lvm.c:1138:0
	.cfi_startproc
## BB#0:
	pushq	%rbp
Ltmp847:
	.cfi_def_cfa_offset 16
Ltmp848:
	.cfi_offset %rbp, -16
	movq	%rsp, %rbp
Ltmp849:
	.cfi_def_cfa_register %rbp
	##DEBUG_VALUE: asvm_compatible:p <- %RDI
Ltmp850:
	##DEBUG_VALUE: i <- 0
	.loc	1 1141 21 prologue_end  ## /Users/dylan/github/ravi/src/lvm.c:1141:21
	movslq	24(%rdi), %rcx
	.loc	1 1141 26 is_stmt 0     ## /Users/dylan/github/ravi/src/lvm.c:1141:26
	testq	%rcx, %rcx
	movl	$1, %eax
	jle	LBB17_6
Ltmp851:
## BB#1:                                ## %.lr.ph
	##DEBUG_VALUE: asvm_compatible:p <- %RDI
	##DEBUG_VALUE: i <- 0
	.loc	1 1142 14 is_stmt 1     ## /Users/dylan/github/ravi/src/lvm.c:1142:14
	movq	56(%rdi), %rdx
	xorl	%esi, %esi
Ltmp852:
	.align	4, 0x90
LBB17_2:                                ## =>This Inner Loop Header: Depth=1
	##DEBUG_VALUE: i <- 0
	movzbl	(%rdx,%rsi,4), %edi
	.loc	1 1143 9                ## /Users/dylan/github/ravi/src/lvm.c:1143:9
	cmpl	$38, %edi
	je	LBB17_5
Ltmp853:
## BB#3:                                ##   in Loop: Header=BB17_2 Depth=1
	cmpl	$1, %edi
	jne	LBB17_4
LBB17_5:                                ##   in Loop: Header=BB17_2 Depth=1
	##DEBUG_VALUE: i <- 0
	.loc	1 1141 3                ## /Users/dylan/github/ravi/src/lvm.c:1141:3
	incq	%rsi
	.loc	1 1141 21 is_stmt 0     ## /Users/dylan/github/ravi/src/lvm.c:1141:21
Ltmp854:
	cmpq	%rcx, %rsi
	jl	LBB17_2
Ltmp855:
LBB17_6:                                ## %._crit_edge
	.loc	1 1146 1 is_stmt 1      ## /Users/dylan/github/ravi/src/lvm.c:1146:1
	popq	%rbp
	retq
LBB17_4:
	xorl	%eax, %eax
	popq	%rbp
	retq
Ltmp856:
Lfunc_end17:
	.cfi_endproc

	.section	__TEXT,__literal8,8byte_literals
	.align	3
LCPI18_0:
	.quad	-4332462841530417152    ## double -9.2233720368547758E+18
LCPI18_1:
	.quad	4890909195324358656     ## double 9.2233720368547758E+18
	.section	__TEXT,__literal16,16byte_literals
	.align	4
LCPI18_2:
	.quad	-9223372036854775808    ## 0x8000000000000000
	.quad	-9223372036854775808    ## 0x8000000000000000
	.section	__TEXT,__text,regular,pure_instructions
	.globl	_luaV_execute
	.align	4, 0x90
_luaV_execute:                          ## @luaV_execute
Lfunc_begin18:
	.loc	1 1149 0                ## /Users/dylan/github/ravi/src/lvm.c:1149:0
	.cfi_startproc
## BB#0:
	pushq	%rbp
Ltmp857:
	.cfi_def_cfa_offset 16
Ltmp858:
	.cfi_offset %rbp, -16
	movq	%rsp, %rbp
Ltmp859:
	.cfi_def_cfa_register %rbp
	pushq	%r15
	pushq	%r14
	pushq	%r13
	pushq	%r12
	pushq	%rbx
	subq	$120, %rsp
Ltmp860:
	.cfi_offset %rbx, -56
Ltmp861:
	.cfi_offset %r12, -48
Ltmp862:
	.cfi_offset %r13, -40
Ltmp863:
	.cfi_offset %r14, -32
Ltmp864:
	.cfi_offset %r15, -24
	##DEBUG_VALUE: luaV_execute:L <- %RDI
	movq	%rdi, %r12
Ltmp865:
	##DEBUG_VALUE: luaV_execute:L <- %R12
	.loc	1 1272 21 prologue_end  ## /Users/dylan/github/ravi/src/lvm.c:1272:21
	movq	%r12, -80(%rbp)         ## 8-byte Spill
	movq	32(%r12), %r15
Ltmp866:
	##DEBUG_VALUE: luaV_execute:ci <- %R15
	.loc	1 1278 18               ## /Users/dylan/github/ravi/src/lvm.c:1278:18
	orw	$8, 66(%r15)
	.loc	1 1302 5                ## /Users/dylan/github/ravi/src/lvm.c:1302:5
Ltmp867:
	leaq	_luaV_execute.dispatch_table(%rip), %r8
	jmp	LBB18_1
Ltmp868:
	.align	4, 0x90
LBB18_799:                              ##   in Loop: Header=BB18_1 Depth=1
	##DEBUG_VALUE: luaV_execute:L <- %R12
	##DEBUG_VALUE: luaV_execute:ci <- %R15
	.loc	1 1761 31               ## /Users/dylan/github/ravi/src/lvm.c:1761:31
	movq	8(%r15), %rax
	.loc	1 1761 25 is_stmt 0     ## /Users/dylan/github/ravi/src/lvm.c:1761:25
	movq	%rax, 16(%r12)
Ltmp869:
LBB18_1:                                ## %.thread717
                                        ## =>This Loop Header: Depth=1
                                        ##     Child Loop BB18_4 Depth 2
                                        ##     Child Loop BB18_10 Depth 2
                                        ##     Child Loop BB18_11 Depth 2
                                        ##     Child Loop BB18_12 Depth 2
                                        ##     Child Loop BB18_13 Depth 2
                                        ##     Child Loop BB18_14 Depth 2
                                        ##       Child Loop BB18_16 Depth 3
                                        ##       Child Loop BB18_19 Depth 3
                                        ##     Child Loop BB18_21 Depth 2
                                        ##     Child Loop BB18_22 Depth 2
                                        ##     Child Loop BB18_43 Depth 2
                                        ##     Child Loop BB18_62 Depth 2
                                        ##       Child Loop BB18_106 Depth 3
                                        ##     Child Loop BB18_123 Depth 2
                                        ##     Child Loop BB18_127 Depth 2
                                        ##       Child Loop BB18_169 Depth 3
                                        ##     Child Loop BB18_256 Depth 2
                                        ##     Child Loop BB18_272 Depth 2
                                        ##     Child Loop BB18_276 Depth 2
                                        ##     Child Loop BB18_306 Depth 2
                                        ##     Child Loop BB18_336 Depth 2
                                        ##     Child Loop BB18_580 Depth 2
                                        ##     Child Loop BB18_654 Depth 2
                                        ##     Child Loop BB18_366 Depth 2
                                        ##     Child Loop BB18_616 Depth 2
                                        ##     Child Loop BB18_394 Depth 2
                                        ##       Child Loop BB18_397 Depth 3
                                        ##       Child Loop BB18_414 Depth 3
                                        ##     Child Loop BB18_430 Depth 2
                                        ##       Child Loop BB18_433 Depth 3
                                        ##       Child Loop BB18_450 Depth 3
                                        ##     Child Loop BB18_466 Depth 2
                                        ##       Child Loop BB18_469 Depth 3
                                        ##       Child Loop BB18_486 Depth 3
                                        ##     Child Loop BB18_502 Depth 2
                                        ##       Child Loop BB18_505 Depth 3
                                        ##       Child Loop BB18_522 Depth 3
                                        ##     Child Loop BB18_541 Depth 2
                                        ##       Child Loop BB18_544 Depth 3
                                        ##       Child Loop BB18_561 Depth 3
                                        ##     Child Loop BB18_684 Depth 2
                                        ##     Child Loop BB18_698 Depth 2
                                        ##       Child Loop BB18_701 Depth 3
                                        ##     Child Loop BB18_716 Depth 2
                                        ##     Child Loop BB18_721 Depth 2
                                        ##     Child Loop BB18_722 Depth 2
                                        ##     Child Loop BB18_726 Depth 2
                                        ##     Child Loop BB18_729 Depth 2
                                        ##     Child Loop BB18_735 Depth 2
                                        ##     Child Loop BB18_744 Depth 2
                                        ##     Child Loop BB18_753 Depth 2
                                        ##     Child Loop BB18_764 Depth 2
                                        ##     Child Loop BB18_775 Depth 2
                                        ##     Child Loop BB18_783 Depth 2
                                        ##     Child Loop BB18_800 Depth 2
                                        ##     Child Loop BB18_810 Depth 2
                                        ##     Child Loop BB18_858 Depth 2
                                        ##     Child Loop BB18_861 Depth 2
                                        ##       Child Loop BB18_878 Depth 3
                                        ##         Child Loop BB18_884 Depth 4
                                        ##       Child Loop BB18_871 Depth 3
                                        ##     Child Loop BB18_924 Depth 2
                                        ##       Child Loop BB18_928 Depth 3
                                        ##       Child Loop BB18_935 Depth 3
                                        ##     Child Loop BB18_946 Depth 2
                                        ##       Child Loop BB18_954 Depth 3
                                        ##       Child Loop BB18_958 Depth 3
                                        ##       Child Loop BB18_961 Depth 3
                                        ##     Child Loop BB18_963 Depth 2
                                        ##     Child Loop BB18_1014 Depth 2
                                        ##     Child Loop BB18_1017 Depth 2
                                        ##     Child Loop BB18_1175 Depth 2
                                        ##     Child Loop BB18_1176 Depth 2
                                        ##     Child Loop BB18_1177 Depth 2
                                        ##     Child Loop BB18_1178 Depth 2
                                        ##     Child Loop BB18_1179 Depth 2
                                        ##     Child Loop BB18_1180 Depth 2
                                        ##     Child Loop BB18_1181 Depth 2
                                        ##     Child Loop BB18_1182 Depth 2
                                        ##     Child Loop BB18_1183 Depth 2
                                        ##     Child Loop BB18_1184 Depth 2
                                        ##     Child Loop BB18_1185 Depth 2
                                        ##     Child Loop BB18_1186 Depth 2
                                        ##     Child Loop BB18_1187 Depth 2
                                        ##     Child Loop BB18_1188 Depth 2
                                        ##     Child Loop BB18_1189 Depth 2
                                        ##     Child Loop BB18_1190 Depth 2
                                        ##     Child Loop BB18_1191 Depth 2
                                        ##     Child Loop BB18_1192 Depth 2
                                        ##     Child Loop BB18_1232 Depth 2
                                        ##       Child Loop BB18_1235 Depth 3
                                        ##     Child Loop BB18_1251 Depth 2
                                        ##     Child Loop BB18_1269 Depth 2
                                        ##     Child Loop BB18_1272 Depth 2
                                        ##     Child Loop BB18_1266 Depth 2
                                        ##     Child Loop BB18_1275 Depth 2
                                        ##     Child Loop BB18_1279 Depth 2
                                        ##     Child Loop BB18_1283 Depth 2
                                        ##       Child Loop BB18_1292 Depth 3
                                        ##     Child Loop BB18_1193 Depth 2
                                        ##       Child Loop BB18_1196 Depth 3
                                        ##     Child Loop BB18_1211 Depth 2
                                        ##     Child Loop BB18_1226 Depth 2
                                        ##     Child Loop BB18_1228 Depth 2
                                        ##     Child Loop BB18_1230 Depth 2
                                        ##     Child Loop BB18_1067 Depth 2
                                        ##     Child Loop BB18_1069 Depth 2
                                        ##     Child Loop BB18_1071 Depth 2
                                        ##       Child Loop BB18_1080 Depth 3
                                        ##     Child Loop BB18_1100 Depth 2
                                        ##     Child Loop BB18_1097 Depth 2
                                        ##     Child Loop BB18_1120 Depth 2
                                        ##     Child Loop BB18_1006 Depth 2
                                        ##     Child Loop BB18_1035 Depth 2
                                        ##       Child Loop BB18_1037 Depth 3
                                        ##     Child Loop BB18_1011 Depth 2
                                        ##     Child Loop BB18_241 Depth 2
                                        ##       Child Loop BB18_243 Depth 3
                                        ##     Child Loop BB18_1123 Depth 2
                                        ##       Child Loop BB18_1126 Depth 3
                                        ##     Child Loop BB18_1142 Depth 2
                                        ##     Child Loop BB18_1157 Depth 2
                                        ##     Child Loop BB18_1163 Depth 2
                                        ##     Child Loop BB18_1169 Depth 2
                                        ##     Child Loop BB18_964 Depth 2
                                        ##     Child Loop BB18_965 Depth 2
                                        ##     Child Loop BB18_966 Depth 2
                                        ##     Child Loop BB18_967 Depth 2
                                        ##     Child Loop BB18_971 Depth 2
                                        ##     Child Loop BB18_975 Depth 2
                                        ##     Child Loop BB18_976 Depth 2
                                        ##     Child Loop BB18_981 Depth 2
                                        ##     Child Loop BB18_986 Depth 2
                                        ##     Child Loop BB18_991 Depth 2
                                        ##     Child Loop BB18_996 Depth 2
                                        ##     Child Loop BB18_1001 Depth 2
                                        ##     Child Loop BB18_1057 Depth 2
                                        ##       Child Loop BB18_1060 Depth 3
                                        ##     Child Loop BB18_261 Depth 2
                                        ##       Child Loop BB18_263 Depth 3
                                        ##     Child Loop BB18_1046 Depth 2
                                        ##       Child Loop BB18_1048 Depth 3
                                        ##     Child Loop BB18_1020 Depth 2
                                        ##     Child Loop BB18_186 Depth 2
                                        ##       Child Loop BB18_223 Depth 3
                                        ##     Child Loop BB18_790 Depth 2
	##DEBUG_VALUE: luaV_execute:L <- %R12
	.loc	1 1281 8 is_stmt 1      ## /Users/dylan/github/ravi/src/lvm.c:1281:8
	movq	(%r15), %rax
	movq	(%rax), %rax
Ltmp870:
	##DEBUG_VALUE: luaV_execute:cl <- %RAX
	.loc	1 1289 11               ## /Users/dylan/github/ravi/src/lvm.c:1289:11
	movq	%rax, -104(%rbp)        ## 8-byte Spill
	movq	24(%rax), %rax
Ltmp871:
	##DEBUG_VALUE: asvm_compatible:p <- %RAX
	##DEBUG_VALUE: luaV_execute:cl <- [%RBP+-104]
	.loc	1 1141 21               ## /Users/dylan/github/ravi/src/lvm.c:1141:21
	movslq	24(%rax), %rcx
Ltmp872:
	.loc	1 1284 14               ## /Users/dylan/github/ravi/src/lvm.c:1284:14
	cmpq	$5, %rcx
	jg	LBB18_9
Ltmp873:
## BB#2:                                ##   in Loop: Header=BB18_1 Depth=1
	##DEBUG_VALUE: luaV_execute:L <- %R12
	##DEBUG_VALUE: luaV_execute:cl <- [%RBP+-104]
	##DEBUG_VALUE: asvm_compatible:p <- %RAX
	##DEBUG_VALUE: i <- 0
	.loc	1 1141 3                ## /Users/dylan/github/ravi/src/lvm.c:1141:3
	testl	%ecx, %ecx
	jle	LBB18_7
Ltmp874:
## BB#3:                                ## %.lr.ph.i
                                        ##   in Loop: Header=BB18_1 Depth=1
	##DEBUG_VALUE: luaV_execute:L <- %R12
	##DEBUG_VALUE: luaV_execute:cl <- [%RBP+-104]
	##DEBUG_VALUE: asvm_compatible:p <- %RAX
	##DEBUG_VALUE: i <- 0
	.loc	1 1142 14               ## /Users/dylan/github/ravi/src/lvm.c:1142:14
	movq	56(%rax), %rdx
	xorl	%esi, %esi
Ltmp875:
	.align	4, 0x90
LBB18_4:                                ##   Parent Loop BB18_1 Depth=1
                                        ## =>  This Inner Loop Header: Depth=2
	##DEBUG_VALUE: luaV_execute:L <- %R12
	##DEBUG_VALUE: luaV_execute:cl <- [%RBP+-104]
	##DEBUG_VALUE: asvm_compatible:p <- %RAX
	##DEBUG_VALUE: i <- 0
	movzbl	(%rdx,%rsi,4), %edi
	.loc	1 1143 9                ## /Users/dylan/github/ravi/src/lvm.c:1143:9
	cmpl	$38, %edi
	je	LBB18_6
Ltmp876:
## BB#5:                                ##   in Loop: Header=BB18_4 Depth=2
	##DEBUG_VALUE: luaV_execute:L <- %R12
	##DEBUG_VALUE: luaV_execute:cl <- [%RBP+-104]
	cmpl	$1, %edi
	jne	LBB18_9
Ltmp877:
LBB18_6:                                ##   in Loop: Header=BB18_4 Depth=2
	##DEBUG_VALUE: luaV_execute:L <- %R12
	##DEBUG_VALUE: luaV_execute:cl <- [%RBP+-104]
	##DEBUG_VALUE: asvm_compatible:p <- %RAX
	##DEBUG_VALUE: i <- 0
	.loc	1 1141 3                ## /Users/dylan/github/ravi/src/lvm.c:1141:3
	incq	%rsi
	.loc	1 1141 21 is_stmt 0     ## /Users/dylan/github/ravi/src/lvm.c:1141:21
Ltmp878:
	cmpq	%rcx, %rsi
	jl	LBB18_4
	jmp	LBB18_7
Ltmp879:
	.align	4, 0x90
LBB18_9:                                ## %asvm_compatible.exit
                                        ##   in Loop: Header=BB18_1 Depth=1
	##DEBUG_VALUE: luaV_execute:L <- %R12
	##DEBUG_VALUE: luaV_execute:cl <- [%RBP+-104]
	.loc	1 1289 14 is_stmt 1     ## /Users/dylan/github/ravi/src/lvm.c:1289:14
	movq	48(%rax), %r10
Ltmp880:
	##DEBUG_VALUE: luaV_execute:k <- %R10
	.loc	1 1291 18               ## /Users/dylan/github/ravi/src/lvm.c:1291:18
	movq	%r10, -96(%rbp)         ## 8-byte Spill
	movq	32(%r15), %r9
Ltmp881:
	##DEBUG_VALUE: luaV_execute:base <- %R9
	.loc	1 1292 16               ## /Users/dylan/github/ravi/src/lvm.c:1292:16
	movq	40(%r15), %r11
Ltmp882:
	##DEBUG_VALUE: luaV_execute:pc <- %R11
	movq	%r15, -88(%rbp)         ## 8-byte Spill
	.loc	1 1302 5                ## /Users/dylan/github/ravi/src/lvm.c:1302:5
Ltmp883:
	movl	(%r11), %r13d
	addq	$4, %r11
Ltmp884:
	movzbl	%r13b, %eax
Ltmp885:
	##DEBUG_VALUE: op <- %EAX
	movl	%r13d, %r15d
	shrl	$8, %r15d
	andl	$127, %r15d
	shlq	$4, %r15
	addq	%r9, %r15
Ltmp886:
	##DEBUG_VALUE: ra <- %R15
	movzbl	%r13b, %ecx
	leaq	(%r8,%rcx,8), %rcx
	jmpq	*(%rcx)
Ltmp887:
	.align	4, 0x90
Ltmp888:                                ## Block address taken
LBB18_10:                               ##   Parent Loop BB18_1 Depth=1
                                        ## =>  This Inner Loop Header: Depth=2
	##DEBUG_VALUE: luaV_execute:L <- %R12
	##DEBUG_VALUE: luaV_execute:cl <- [%RBP+-104]
	##DEBUG_VALUE: luaV_execute:k <- %R10
	.loc	1 1305 9                ## /Users/dylan/github/ravi/src/lvm.c:1305:9    OP_MOVE
	shrl	$24, %r13d
	shlq	$4, %r13
	movq	(%r9,%r13), %rax
	movq	8(%r9,%r13), %rcx
	movq	%rcx, 8(%r15)
	movq	%rax, (%r15)
Ltmp889:
	##DEBUG_VALUE: luaV_execute:pc <- %R11
	.loc	1 1306 9                ## /Users/dylan/github/ravi/src/lvm.c:1306:9
	movl	(%r11), %r13d
	addq	$4, %r11
Ltmp890:
	movzbl	%r13b, %eax
Ltmp891:
	##DEBUG_VALUE: op <- %EAX
	movl	%r13d, %r15d
	shrl	$8, %r15d
	andl	$127, %r15d
	shlq	$4, %r15
	addq	%r9, %r15
Ltmp892:
	##DEBUG_VALUE: ra <- %R15
	movzbl	%r13b, %ecx
	leaq	(%r8,%rcx,8), %rcx
	jmpq	*(%rcx)
Ltmp893:
	.align	4, 0x90
Ltmp894:                                ## Block address taken
LBB18_11:                               ##   Parent Loop BB18_1 Depth=1
                                        ## =>  This Inner Loop Header: Depth=2
	##DEBUG_VALUE: luaV_execute:L <- %R12
	##DEBUG_VALUE: luaV_execute:cl <- [%RBP+-104]
	##DEBUG_VALUE: luaV_execute:k <- %R10
	.loc	1 1309 26               ## /Users/dylan/github/ravi/src/lvm.c:1309:26   OP_LOADK
	shrl	$16, %r13d
	.loc	1 1309 24 is_stmt 0     ## /Users/dylan/github/ravi/src/lvm.c:1309:24
	shlq	$4, %r13
	.loc	1 1310 9 is_stmt 1      ## /Users/dylan/github/ravi/src/lvm.c:1310:9
Ltmp895:
	movq	(%r10,%r13), %rax
	movq	8(%r10,%r13), %rcx
	movq	%rcx, 8(%r15)
	movq	%rax, (%r15)
Ltmp896:
	##DEBUG_VALUE: luaV_execute:pc <- %R11
	.loc	1 1311 9                ## /Users/dylan/github/ravi/src/lvm.c:1311:9
	movl	(%r11), %r13d
	addq	$4, %r11
Ltmp897:
	movzbl	%r13b, %eax
Ltmp898:
	##DEBUG_VALUE: op <- %EAX
	movl	%r13d, %r15d
	shrl	$8, %r15d
	andl	$127, %r15d
	shlq	$4, %r15
	addq	%r9, %r15
Ltmp899:
	##DEBUG_VALUE: ra <- %R15
	movzbl	%r13b, %ecx
	leaq	(%r8,%rcx,8), %rcx
	jmpq	*(%rcx)
Ltmp900:
	.align	4, 0x90
Ltmp901:                                ## Block address taken
LBB18_12:                               ##   Parent Loop BB18_1 Depth=1
                                        ## =>  This Inner Loop Header: Depth=2
	##DEBUG_VALUE: luaV_execute:L <- %R12
	##DEBUG_VALUE: luaV_execute:cl <- [%RBP+-104]
	##DEBUG_VALUE: luaV_execute:k <- %R10
	.loc	1 1316 18               ## /Users/dylan/github/ravi/src/lvm.c:1316:18   OP_LOADKX
	movl	(%r11), %eax
	shrl	$8, %eax
	.loc	1 1316 16 is_stmt 0     ## /Users/dylan/github/ravi/src/lvm.c:1316:16
	shlq	$4, %rax
	.loc	1 1317 9 is_stmt 1      ## /Users/dylan/github/ravi/src/lvm.c:1317:9
Ltmp902:
	movq	(%r10,%rax), %rcx
	movq	8(%r10,%rax), %rax
	movq	%rax, 8(%r15)
	movq	%rcx, (%r15)
Ltmp903:
	##DEBUG_VALUE: luaV_execute:pc <- %R11
	.loc	1 1318 9                ## /Users/dylan/github/ravi/src/lvm.c:1318:9
	movl	4(%r11), %r13d
	addq	$8, %r11
Ltmp904:
	movzbl	%r13b, %eax
Ltmp905:
	##DEBUG_VALUE: op <- %EAX
	movl	%r13d, %r15d
	shrl	$8, %r15d
	andl	$127, %r15d
	shlq	$4, %r15
	addq	%r9, %r15
Ltmp906:
	##DEBUG_VALUE: ra <- %R15
	movzbl	%r13b, %ecx
	leaq	(%r8,%rcx,8), %rcx
	jmpq	*(%rcx)
Ltmp907:
	.align	4, 0x90
Ltmp908:                                ## Block address taken
LBB18_13:                               ##   Parent Loop BB18_1 Depth=1
                                        ## =>  This Inner Loop Header: Depth=2
	##DEBUG_VALUE: luaV_execute:L <- %R12
	##DEBUG_VALUE: luaV_execute:cl <- [%RBP+-104]
	##DEBUG_VALUE: luaV_execute:k <- %R10
	.loc	1 1321 9                ## /Users/dylan/github/ravi/src/lvm.c:1321:9   OP_LOADBOOL
	movl	%r13d, %eax
	shrl	$24, %eax
	movl	%eax, (%r15)
	movl	$1, 8(%r15)
Ltmp909:
	.loc	1 1322 28               ## /Users/dylan/github/ravi/src/lvm.c:1322:28
	leaq	4(%r11), %rcx
Ltmp910:
	##DEBUG_VALUE: luaV_execute:pc <- %RCX
	.loc	1 1322 13 is_stmt 0     ## /Users/dylan/github/ravi/src/lvm.c:1322:13
	testl	$16711680, %r13d        ## imm = 0xFF0000
Ltmp911:
	.loc	1 1322 13               ## /Users/dylan/github/ravi/src/lvm.c:1322:13
	cmoveq	%r11, %rcx
Ltmp912:
	.loc	1 1323 9 is_stmt 1      ## /Users/dylan/github/ravi/src/lvm.c:1323:9
	movl	(%rcx), %r13d
	addq	$4, %rcx
	movzbl	%r13b, %eax
Ltmp913:
	##DEBUG_VALUE: op <- %EAX
	movl	%r13d, %r15d
	shrl	$8, %r15d
	andl	$127, %r15d
	shlq	$4, %r15
	addq	%r9, %r15
Ltmp914:
	##DEBUG_VALUE: ra <- %R15
	movzbl	%r13b, %edx
	leaq	(%r8,%rdx,8), %rdx
	movq	%rcx, %r11
	jmpq	*(%rdx)
Ltmp915:
	.align	4, 0x90
Ltmp916:                                ## Block address taken
LBB18_14:                               ##   Parent Loop BB18_1 Depth=1
                                        ## =>  This Loop Header: Depth=2
                                        ##       Child Loop BB18_16 Depth 3
                                        ##       Child Loop BB18_19 Depth 3
	##DEBUG_VALUE: luaV_execute:L <- %R12
	##DEBUG_VALUE: luaV_execute:cl <- [%RBP+-104]
	##DEBUG_VALUE: luaV_execute:k <- %R10
	.loc	1 1326 17               ## /Users/dylan/github/ravi/src/lvm.c:1326:17   OP_LOADNIL
	movl	%r13d, %eax
	shrl	$24, %eax
Ltmp917:
	##DEBUG_VALUE: b <- %EAX
	.loc	1 1327 9                ## /Users/dylan/github/ravi/src/lvm.c:1327:9
	leal	1(%rax), %ecx
	testb	$7, %cl
	je	LBB18_17
Ltmp918:
## BB#15:                               ## %.preheader7354
                                        ##   in Loop: Header=BB18_14 Depth=2
	##DEBUG_VALUE: luaV_execute:L <- %R12
	##DEBUG_VALUE: luaV_execute:cl <- [%RBP+-104]
	##DEBUG_VALUE: luaV_execute:k <- %R10
	##DEBUG_VALUE: b <- %EAX
	.loc	1 1328 11               ## /Users/dylan/github/ravi/src/lvm.c:1328:11
	movl	%r13d, %ecx
	shrl	$24, %ecx
	incl	%ecx
	andl	$7, %ecx
	negl	%ecx
Ltmp919:
	.align	4, 0x90
LBB18_16:                               ##   Parent Loop BB18_1 Depth=1
                                        ##     Parent Loop BB18_14 Depth=2
                                        ## =>    This Inner Loop Header: Depth=3
	##DEBUG_VALUE: luaV_execute:L <- %R12
	##DEBUG_VALUE: luaV_execute:cl <- [%RBP+-104]
	##DEBUG_VALUE: luaV_execute:k <- %R10
	##DEBUG_VALUE: ra <- %R15
	movl	$0, 8(%r15)
	addq	$16, %r15
Ltmp920:
	.loc	1 1329 19               ## /Users/dylan/github/ravi/src/lvm.c:1329:19
	decl	%eax
Ltmp921:
	##DEBUG_VALUE: b <- %EAX
	.loc	1 1329 9 is_stmt 0      ## /Users/dylan/github/ravi/src/lvm.c:1329:9
	incl	%ecx
	jne	LBB18_16
Ltmp922:
LBB18_17:                               ## %.split
                                        ##   in Loop: Header=BB18_14 Depth=2
	##DEBUG_VALUE: luaV_execute:L <- %R12
	##DEBUG_VALUE: luaV_execute:cl <- [%RBP+-104]
	##DEBUG_VALUE: luaV_execute:k <- %R10
	.loc	1 1327 9 is_stmt 1      ## /Users/dylan/github/ravi/src/lvm.c:1327:9
	cmpl	$117440512, %r13d       ## imm = 0x7000000
	jb	LBB18_20
Ltmp923:
## BB#18:                               ## %.split.split
                                        ##   in Loop: Header=BB18_14 Depth=2
	##DEBUG_VALUE: luaV_execute:L <- %R12
	##DEBUG_VALUE: luaV_execute:cl <- [%RBP+-104]
	##DEBUG_VALUE: luaV_execute:k <- %R10
	notl	%eax
	addq	$120, %r15
Ltmp924:
	.align	4, 0x90
LBB18_19:                               ##   Parent Loop BB18_1 Depth=1
                                        ##     Parent Loop BB18_14 Depth=2
                                        ## =>    This Inner Loop Header: Depth=3
	##DEBUG_VALUE: luaV_execute:L <- %R12
	##DEBUG_VALUE: luaV_execute:cl <- [%RBP+-104]
	##DEBUG_VALUE: luaV_execute:k <- %R10
	.loc	1 1328 11               ## /Users/dylan/github/ravi/src/lvm.c:1328:11
	movl	$0, -112(%r15)
	movl	$0, -96(%r15)
	movl	$0, -80(%r15)
	movl	$0, -64(%r15)
	movl	$0, -48(%r15)
	movl	$0, -32(%r15)
	movl	$0, -16(%r15)
	movl	$0, (%r15)
	.loc	1 1329 9                ## /Users/dylan/github/ravi/src/lvm.c:1329:9
	subq	$-128, %r15
	addl	$8, %eax
	jne	LBB18_19
Ltmp925:
LBB18_20:                               ##   in Loop: Header=BB18_14 Depth=2
	##DEBUG_VALUE: luaV_execute:L <- %R12
	##DEBUG_VALUE: luaV_execute:cl <- [%RBP+-104]
	##DEBUG_VALUE: luaV_execute:k <- %R10
	##DEBUG_VALUE: luaV_execute:pc <- %R11
	.loc	1 1330 9                ## /Users/dylan/github/ravi/src/lvm.c:1330:9
	movl	(%r11), %r13d
	addq	$4, %r11
Ltmp926:
	movzbl	%r13b, %eax
Ltmp927:
	##DEBUG_VALUE: op <- %EAX
	movl	%r13d, %r15d
	shrl	$8, %r15d
	andl	$127, %r15d
	shlq	$4, %r15
	addq	%r9, %r15
Ltmp928:
	##DEBUG_VALUE: ra <- %R15
	movzbl	%r13b, %ecx
	leaq	(%r8,%rcx,8), %rcx
	jmpq	*(%rcx)
Ltmp929:
	.align	4, 0x90
Ltmp930:                                ## Block address taken
LBB18_21:                               ##   Parent Loop BB18_1 Depth=1
                                        ## =>  This Inner Loop Header: Depth=2
	##DEBUG_VALUE: luaV_execute:L <- %R12
	##DEBUG_VALUE: luaV_execute:cl <- [%RBP+-104]
	##DEBUG_VALUE: luaV_execute:k <- %R10
	.loc	1 1333 17               ## /Users/dylan/github/ravi/src/lvm.c:1333:17    OP_GETUPVAL
	shrl	$24, %r13d
Ltmp931:
	##DEBUG_VALUE: b <- %R13D
	.loc	1 1334 9                ## /Users/dylan/github/ravi/src/lvm.c:1334:9
	movq	-104(%rbp), %rax        ## 8-byte Reload
	movq	32(%rax,%r13,8), %rax
	movq	(%rax), %rax
	movq	(%rax), %rcx
	movq	8(%rax), %rax
	movq	%rax, 8(%r15)
	movq	%rcx, (%r15)
Ltmp932:
	##DEBUG_VALUE: luaV_execute:pc <- %R11
	.loc	1 1335 9                ## /Users/dylan/github/ravi/src/lvm.c:1335:9
	movl	(%r11), %r13d
Ltmp933:
	addq	$4, %r11
Ltmp934:
	movzbl	%r13b, %eax
Ltmp935:
	##DEBUG_VALUE: op <- %EAX
	movl	%r13d, %r15d
	shrl	$8, %r15d
	andl	$127, %r15d
	shlq	$4, %r15
	addq	%r9, %r15
Ltmp936:
	##DEBUG_VALUE: ra <- %R15
	movzbl	%r13b, %ecx
	leaq	(%r8,%rcx,8), %rcx
	jmpq	*(%rcx)
Ltmp937:
	.align	4, 0x90
Ltmp938:                                ## Block address taken
LBB18_22:                               ##   Parent Loop BB18_1 Depth=1
                                        ## =>  This Inner Loop Header: Depth=2
	##DEBUG_VALUE: luaV_execute:L <- %R12
	##DEBUG_VALUE: luaV_execute:cl <- [%RBP+-104]
	##DEBUG_VALUE: luaV_execute:k <- %R10
	movq	%r10, %rdx
Ltmp939:
	##DEBUG_VALUE: luaV_execute:k <- %RDX
	.loc	1 1338 36               ## /Users/dylan/github/ravi/src/lvm.c:1338:36    OP_GETTABUP
	movl	%r13d, %eax
	shrl	$24, %eax
	.loc	1 1338 25 is_stmt 0     ## /Users/dylan/github/ravi/src/lvm.c:1338:25
	movq	-104(%rbp), %rcx        ## 8-byte Reload
	movq	32(%rcx,%rax,8), %rax
	.loc	1 1338 50               ## /Users/dylan/github/ravi/src/lvm.c:1338:50
	movq	(%rax), %r10
Ltmp940:
	##DEBUG_VALUE: upval <- %R10
	.loc	1 1339 22 is_stmt 1     ## /Users/dylan/github/ravi/src/lvm.c:1339:22
	shrl	$16, %r13d
	movl	%r13d, %eax
	andl	$127, %eax
	shlq	$4, %rax
	addq	%rdx, %rax
Ltmp941:
	##DEBUG_VALUE: luaV_execute:k <- [%RBP+-96]
	movzbl	%r13b, %ecx
	movq	%rcx, %rbx
	shlq	$4, %rbx
	addq	%r9, %rbx
	testb	%cl, %cl
	cmovsq	%rax, %rbx
Ltmp942:
	##DEBUG_VALUE: rc <- %RBX
	.loc	1 1340 9                ## /Users/dylan/github/ravi/src/lvm.c:1340:9
	movl	8(%r10), %eax
Ltmp943:
	.loc	1 1340 9 is_stmt 0      ## /Users/dylan/github/ravi/src/lvm.c:1340:9
	cmpl	$69, %eax
	jne	LBB18_23
Ltmp944:
## BB#28:                               ##   in Loop: Header=BB18_22 Depth=2
	##DEBUG_VALUE: luaV_execute:L <- %R12
	##DEBUG_VALUE: luaV_execute:cl <- [%RBP+-104]
	##DEBUG_VALUE: luaV_execute:k <- [%RBP+-96]
	##DEBUG_VALUE: upval <- %R10
	##DEBUG_VALUE: rc <- %RBX
	movq	%r11, %r13
	.loc	1 1340 9                ## /Users/dylan/github/ravi/src/lvm.c:1340:9
Ltmp945:
	cmpl	$19, 8(%rbx)
	jne	LBB18_32
Ltmp946:
## BB#29:                               ##   in Loop: Header=BB18_22 Depth=2
	##DEBUG_VALUE: luaV_execute:L <- %R12
	##DEBUG_VALUE: luaV_execute:cl <- [%RBP+-104]
	##DEBUG_VALUE: luaV_execute:k <- [%RBP+-96]
	##DEBUG_VALUE: upval <- %R10
	##DEBUG_VALUE: rc <- %RBX
	.loc	1 1340 9                ## /Users/dylan/github/ravi/src/lvm.c:1340:9
	movq	(%rbx), %rsi
Ltmp947:
	##DEBUG_VALUE: idx <- %RSI
	movq	(%r10), %rdi
Ltmp948:
	##DEBUG_VALUE: h <- %RDI
	movq	%r10, -112(%rbp)        ## 8-byte Spill
Ltmp949:
	##DEBUG_VALUE: upval <- [%RBP+-112]
	.loc	1 1340 9                ## /Users/dylan/github/ravi/src/lvm.c:1340:9
	leaq	-1(%rsi), %rax
	movl	12(%rdi), %ecx
Ltmp950:
	.loc	1 1340 9                ## /Users/dylan/github/ravi/src/lvm.c:1340:9
	cmpq	%rcx, %rax
	movq	%r13, %r11
	jae	LBB18_31
Ltmp951:
## BB#30:                               ##   in Loop: Header=BB18_22 Depth=2
	##DEBUG_VALUE: luaV_execute:L <- %R12
	##DEBUG_VALUE: luaV_execute:cl <- [%RBP+-104]
	##DEBUG_VALUE: luaV_execute:k <- [%RBP+-96]
	##DEBUG_VALUE: upval <- [%RBP+-112]
	##DEBUG_VALUE: rc <- %RBX
	##DEBUG_VALUE: h <- %RDI
	.loc	1 1340 9                ## /Users/dylan/github/ravi/src/lvm.c:1340:9
	shlq	$4, %rax
	addq	16(%rdi), %rax
Ltmp952:
	##DEBUG_VALUE: aux <- %RAX
	jmp	LBB18_34
Ltmp953:
	.align	4, 0x90
LBB18_32:                               ##   in Loop: Header=BB18_22 Depth=2
	##DEBUG_VALUE: luaV_execute:L <- %R12
	##DEBUG_VALUE: luaV_execute:cl <- [%RBP+-104]
	##DEBUG_VALUE: luaV_execute:k <- [%RBP+-96]
	##DEBUG_VALUE: upval <- %R10
	##DEBUG_VALUE: rc <- %RBX
	.loc	1 1340 9                ## /Users/dylan/github/ravi/src/lvm.c:1340:9
	movq	(%r10), %rdi
	movq	%r10, -112(%rbp)        ## 8-byte Spill
Ltmp954:
	##DEBUG_VALUE: upval <- [%RBP+-112]
	movq	%rbx, %rsi
	movq	%r9, %r14
	callq	_luaH_get
	movq	%r14, %r9
Ltmp955:
LBB18_33:                               ##   in Loop: Header=BB18_22 Depth=2
	##DEBUG_VALUE: aux <- %RAX
	movq	%r13, %r11
Ltmp956:
LBB18_34:                               ##   in Loop: Header=BB18_22 Depth=2
	##DEBUG_VALUE: luaV_execute:L <- %R12
	##DEBUG_VALUE: luaV_execute:cl <- [%RBP+-104]
	##DEBUG_VALUE: luaV_execute:k <- [%RBP+-96]
	##DEBUG_VALUE: upval <- [%RBP+-112]
	##DEBUG_VALUE: rc <- %RBX
	.loc	1 1340 9                ## /Users/dylan/github/ravi/src/lvm.c:1340:9
	cmpl	$0, 8(%rax)
Ltmp957:
	.loc	1 1340 9                ## /Users/dylan/github/ravi/src/lvm.c:1340:9
	je	LBB18_36
Ltmp958:
## BB#35:                               ##   in Loop: Header=BB18_22 Depth=2
	##DEBUG_VALUE: luaV_execute:L <- %R12
	##DEBUG_VALUE: luaV_execute:cl <- [%RBP+-104]
	##DEBUG_VALUE: luaV_execute:k <- [%RBP+-96]
	.loc	1 1340 9                ## /Users/dylan/github/ravi/src/lvm.c:1340:9
	movq	(%rax), %rcx
	movq	8(%rax), %rax
	movq	%rax, 8(%r15)
	movq	%rcx, (%r15)
Ltmp959:
	##DEBUG_VALUE: luaV_execute:pc <- %R11
	.loc	1 1341 9 is_stmt 1      ## /Users/dylan/github/ravi/src/lvm.c:1341:9
	movl	(%r11), %r13d
	addq	$4, %r11
Ltmp960:
	movzbl	%r13b, %eax
Ltmp961:
	##DEBUG_VALUE: op <- %EAX
	movl	%r13d, %r15d
	shrl	$8, %r15d
	andl	$127, %r15d
	shlq	$4, %r15
	addq	%r9, %r15
Ltmp962:
	##DEBUG_VALUE: ra <- %R15
	movzbl	%r13b, %ecx
Ltmp963:
	.loc	1 1302 5                ## /Users/dylan/github/ravi/src/lvm.c:1302:5
	leaq	_luaV_execute.dispatch_table(%rip), %rdx
	movq	%rdx, %r8
Ltmp964:
	.loc	1 1341 9                ## /Users/dylan/github/ravi/src/lvm.c:1341:9
	leaq	(%r8,%rcx,8), %rcx
	movq	-96(%rbp), %r10         ## 8-byte Reload
Ltmp965:
	##DEBUG_VALUE: luaV_execute:k <- %R10
	jmpq	*(%rcx)
Ltmp966:
LBB18_23:                               ##   in Loop: Header=BB18_22 Depth=2
	##DEBUG_VALUE: luaV_execute:L <- %R12
	##DEBUG_VALUE: luaV_execute:cl <- [%RBP+-104]
	##DEBUG_VALUE: luaV_execute:k <- [%RBP+-96]
	cmpl	$101, %eax
	jne	LBB18_24
Ltmp967:
## BB#37:                               ##   in Loop: Header=BB18_22 Depth=2
	##DEBUG_VALUE: luaV_execute:L <- %R12
	##DEBUG_VALUE: luaV_execute:cl <- [%RBP+-104]
	##DEBUG_VALUE: luaV_execute:k <- [%RBP+-96]
	.loc	1 1340 9                ## /Users/dylan/github/ravi/src/lvm.c:1340:9
	cmpl	$19, 8(%rbx)
	jne	LBB18_1299
Ltmp968:
## BB#38:                               ##   in Loop: Header=BB18_22 Depth=2
	##DEBUG_VALUE: luaV_execute:L <- %R12
	##DEBUG_VALUE: luaV_execute:cl <- [%RBP+-104]
	##DEBUG_VALUE: luaV_execute:k <- [%RBP+-96]
	.loc	1 1340 9 is_stmt 0      ## /Users/dylan/github/ravi/src/lvm.c:1340:9
	movq	(%r10), %rcx
Ltmp969:
	##DEBUG_VALUE: h <- %RCX
	.loc	1 1340 9                ## /Users/dylan/github/ravi/src/lvm.c:1340:9
	movq	(%rbx), %rax
Ltmp970:
	##DEBUG_VALUE: ukey <- %EAX
	cmpl	64(%rcx), %eax
	jae	LBB18_40
Ltmp971:
## BB#39:                               ##   in Loop: Header=BB18_22 Depth=2
	##DEBUG_VALUE: luaV_execute:L <- %R12
	##DEBUG_VALUE: luaV_execute:cl <- [%RBP+-104]
	##DEBUG_VALUE: luaV_execute:k <- [%RBP+-96]
	##DEBUG_VALUE: h <- %RCX
	##DEBUG_VALUE: ukey <- %EAX
	movq	56(%rcx), %rcx
Ltmp972:
	##DEBUG_VALUE: data <- %RCX
	.loc	1 1340 9                ## /Users/dylan/github/ravi/src/lvm.c:1340:9
	movl	%eax, %eax
Ltmp973:
	movq	(%rcx,%rax,8), %rax
	movq	%rax, (%r15)
	movl	$3, 8(%r15)
Ltmp974:
	##DEBUG_VALUE: luaV_execute:pc <- %R11
	.loc	1 1341 9 is_stmt 1      ## /Users/dylan/github/ravi/src/lvm.c:1341:9
	movl	(%r11), %r13d
	addq	$4, %r11
Ltmp975:
	movzbl	%r13b, %eax
Ltmp976:
	##DEBUG_VALUE: op <- %EAX
	movl	%r13d, %r15d
	shrl	$8, %r15d
	andl	$127, %r15d
	shlq	$4, %r15
	addq	%r9, %r15
Ltmp977:
	##DEBUG_VALUE: ra <- %R15
	movzbl	%r13b, %ecx
Ltmp978:
	.loc	1 1302 5                ## /Users/dylan/github/ravi/src/lvm.c:1302:5
	leaq	_luaV_execute.dispatch_table(%rip), %rdx
	movq	%rdx, %r8
Ltmp979:
	.loc	1 1341 9                ## /Users/dylan/github/ravi/src/lvm.c:1341:9
	leaq	(%r8,%rcx,8), %rcx
	movq	-96(%rbp), %r10         ## 8-byte Reload
Ltmp980:
	##DEBUG_VALUE: luaV_execute:k <- %R10
	jmpq	*(%rcx)
Ltmp981:
LBB18_36:                               ##   in Loop: Header=BB18_22 Depth=2
	##DEBUG_VALUE: luaV_execute:L <- %R12
	##DEBUG_VALUE: luaV_execute:cl <- [%RBP+-104]
	##DEBUG_VALUE: luaV_execute:k <- [%RBP+-96]
	##DEBUG_VALUE: upval <- [%RBP+-112]
	##DEBUG_VALUE: rc <- %RBX
	movq	-88(%rbp), %r13         ## 8-byte Reload
	.loc	1 1340 9                ## /Users/dylan/github/ravi/src/lvm.c:1340:9
Ltmp982:
	movq	%r11, 40(%r13)
	.loc	1 1340 9 is_stmt 0      ## /Users/dylan/github/ravi/src/lvm.c:1340:9
Ltmp983:
	movq	%r12, %rdi
	movq	-112(%rbp), %rsi        ## 8-byte Reload
	movq	%rbx, %rdx
	movq	%r15, %rcx
	movq	%rax, %r8
	movq	%r11, %rbx
Ltmp984:
	callq	_luaV_finishget
	movq	%rbx, %r11
Ltmp985:
	.loc	1 1340 9                ## /Users/dylan/github/ravi/src/lvm.c:1340:9
	movq	32(%r13), %r9
Ltmp986:
	##DEBUG_VALUE: luaV_execute:pc <- %R11
	.loc	1 1341 9 is_stmt 1      ## /Users/dylan/github/ravi/src/lvm.c:1341:9
	movl	(%r11), %r13d
Ltmp987:
	##DEBUG_VALUE: luaV_execute:base <- %R9
	addq	$4, %r11
Ltmp988:
	movzbl	%r13b, %eax
Ltmp989:
	##DEBUG_VALUE: op <- %EAX
	movl	%r13d, %r15d
	shrl	$8, %r15d
	andl	$127, %r15d
	shlq	$4, %r15
	addq	%r9, %r15
Ltmp990:
	##DEBUG_VALUE: ra <- %R15
	movzbl	%r13b, %ecx
Ltmp991:
	.loc	1 1302 5                ## /Users/dylan/github/ravi/src/lvm.c:1302:5
	leaq	_luaV_execute.dispatch_table(%rip), %rdx
	movq	%rdx, %r8
Ltmp992:
	.loc	1 1341 9                ## /Users/dylan/github/ravi/src/lvm.c:1341:9
	leaq	(%r8,%rcx,8), %rcx
	movq	-96(%rbp), %r10         ## 8-byte Reload
Ltmp993:
	##DEBUG_VALUE: luaV_execute:k <- %R10
	jmpq	*(%rcx)
Ltmp994:
LBB18_24:                               ##   in Loop: Header=BB18_22 Depth=2
	##DEBUG_VALUE: luaV_execute:L <- %R12
	##DEBUG_VALUE: luaV_execute:cl <- [%RBP+-104]
	##DEBUG_VALUE: luaV_execute:k <- [%RBP+-96]
	cmpl	$85, %eax
	jne	LBB18_42
Ltmp995:
## BB#25:                               ##   in Loop: Header=BB18_22 Depth=2
	##DEBUG_VALUE: luaV_execute:L <- %R12
	##DEBUG_VALUE: luaV_execute:cl <- [%RBP+-104]
	##DEBUG_VALUE: luaV_execute:k <- [%RBP+-96]
	.loc	1 1340 9                ## /Users/dylan/github/ravi/src/lvm.c:1340:9
	cmpl	$19, 8(%rbx)
	jne	LBB18_1299
Ltmp996:
## BB#26:                               ##   in Loop: Header=BB18_22 Depth=2
	##DEBUG_VALUE: luaV_execute:L <- %R12
	##DEBUG_VALUE: luaV_execute:cl <- [%RBP+-104]
	##DEBUG_VALUE: luaV_execute:k <- [%RBP+-96]
	.loc	1 1340 9 is_stmt 0      ## /Users/dylan/github/ravi/src/lvm.c:1340:9
	movq	(%r10), %rcx
Ltmp997:
	##DEBUG_VALUE: h <- %RCX
	.loc	1 1340 9                ## /Users/dylan/github/ravi/src/lvm.c:1340:9
	movq	(%rbx), %rax
Ltmp998:
	##DEBUG_VALUE: ukey <- %EAX
	cmpl	64(%rcx), %eax
	jae	LBB18_40
Ltmp999:
## BB#27:                               ##   in Loop: Header=BB18_22 Depth=2
	##DEBUG_VALUE: luaV_execute:L <- %R12
	##DEBUG_VALUE: luaV_execute:cl <- [%RBP+-104]
	##DEBUG_VALUE: luaV_execute:k <- [%RBP+-96]
	##DEBUG_VALUE: h <- %RCX
	##DEBUG_VALUE: ukey <- %EAX
	movq	56(%rcx), %rcx
Ltmp1000:
	##DEBUG_VALUE: data <- %RCX
	.loc	1 1340 9                ## /Users/dylan/github/ravi/src/lvm.c:1340:9
	movl	%eax, %eax
Ltmp1001:
	movq	(%rcx,%rax,8), %rax
	movq	%rax, (%r15)
	movl	$19, 8(%r15)
Ltmp1002:
	##DEBUG_VALUE: luaV_execute:pc <- %R11
	.loc	1 1341 9 is_stmt 1      ## /Users/dylan/github/ravi/src/lvm.c:1341:9
	movl	(%r11), %r13d
	addq	$4, %r11
Ltmp1003:
	movzbl	%r13b, %eax
Ltmp1004:
	##DEBUG_VALUE: op <- %EAX
	movl	%r13d, %r15d
	shrl	$8, %r15d
	andl	$127, %r15d
	shlq	$4, %r15
	addq	%r9, %r15
Ltmp1005:
	##DEBUG_VALUE: ra <- %R15
	movzbl	%r13b, %ecx
Ltmp1006:
	.loc	1 1302 5                ## /Users/dylan/github/ravi/src/lvm.c:1302:5
	leaq	_luaV_execute.dispatch_table(%rip), %rdx
	movq	%rdx, %r8
Ltmp1007:
	.loc	1 1341 9                ## /Users/dylan/github/ravi/src/lvm.c:1341:9
	leaq	(%r8,%rcx,8), %rcx
	movq	-96(%rbp), %r10         ## 8-byte Reload
Ltmp1008:
	##DEBUG_VALUE: luaV_execute:k <- %R10
	jmpq	*(%rcx)
Ltmp1009:
LBB18_31:                               ##   in Loop: Header=BB18_22 Depth=2
	##DEBUG_VALUE: luaV_execute:L <- %R12
	##DEBUG_VALUE: luaV_execute:cl <- [%RBP+-104]
	##DEBUG_VALUE: luaV_execute:k <- [%RBP+-96]
	##DEBUG_VALUE: upval <- [%RBP+-112]
	##DEBUG_VALUE: rc <- %RBX
	##DEBUG_VALUE: idx <- %RSI
	##DEBUG_VALUE: h <- %RDI
	movq	%r11, %r13
	movq	%r12, %r14
Ltmp1010:
	##DEBUG_VALUE: luaV_execute:L <- %R14
	movq	%r9, %r12
	.loc	1 1340 9                ## /Users/dylan/github/ravi/src/lvm.c:1340:9
Ltmp1011:
	callq	_luaH_getint
	movq	%r12, %r9
	movq	%r14, %r12
	jmp	LBB18_33
Ltmp1012:
LBB18_42:                               ##   in Loop: Header=BB18_22 Depth=2
	##DEBUG_VALUE: luaV_execute:L <- %R12
	##DEBUG_VALUE: luaV_execute:cl <- [%RBP+-104]
	##DEBUG_VALUE: luaV_execute:k <- [%RBP+-96]
	movq	-88(%rbp), %r13         ## 8-byte Reload
	.loc	1 1340 9 is_stmt 0      ## /Users/dylan/github/ravi/src/lvm.c:1340:9
Ltmp1013:
	movq	%r11, 40(%r13)
	xorl	%r8d, %r8d
	.loc	1 1340 9                ## /Users/dylan/github/ravi/src/lvm.c:1340:9
Ltmp1014:
	movq	%r12, %rdi
	movq	%r10, %rsi
	movq	%rbx, %rdx
	movq	%r15, %rcx
	movq	%r11, %rbx
	callq	_luaV_finishget
	movq	%rbx, %r11
Ltmp1015:
	.loc	1 1340 9                ## /Users/dylan/github/ravi/src/lvm.c:1340:9
	movq	32(%r13), %r9
Ltmp1016:
	##DEBUG_VALUE: luaV_execute:pc <- %R11
	.loc	1 1341 9 is_stmt 1      ## /Users/dylan/github/ravi/src/lvm.c:1341:9
	movl	(%r11), %r13d
Ltmp1017:
	##DEBUG_VALUE: luaV_execute:base <- %R9
	addq	$4, %r11
Ltmp1018:
	movzbl	%r13b, %eax
Ltmp1019:
	##DEBUG_VALUE: op <- %EAX
	movl	%r13d, %r15d
	shrl	$8, %r15d
	andl	$127, %r15d
	shlq	$4, %r15
	addq	%r9, %r15
Ltmp1020:
	##DEBUG_VALUE: ra <- %R15
	movzbl	%r13b, %ecx
Ltmp1021:
	.loc	1 1302 5                ## /Users/dylan/github/ravi/src/lvm.c:1302:5
	leaq	_luaV_execute.dispatch_table(%rip), %rdx
	movq	%rdx, %r8
Ltmp1022:
	.loc	1 1341 9                ## /Users/dylan/github/ravi/src/lvm.c:1341:9
	leaq	(%r8,%rcx,8), %rcx
	movq	-96(%rbp), %r10         ## 8-byte Reload
Ltmp1023:
	##DEBUG_VALUE: luaV_execute:k <- %R10
	jmpq	*(%rcx)
Ltmp1024:
	.align	4, 0x90
Ltmp1025:                               ## Block address taken
LBB18_43:                               ##   Parent Loop BB18_1 Depth=1
                                        ## =>  This Inner Loop Header: Depth=2
	##DEBUG_VALUE: luaV_execute:L <- %R12
	##DEBUG_VALUE: luaV_execute:cl <- [%RBP+-104]
	##DEBUG_VALUE: luaV_execute:k <- %R10
	movq	%r10, %rdx
Ltmp1026:
	##DEBUG_VALUE: luaV_execute:k <- %RDX
	.loc	1 1344 20               ## /Users/dylan/github/ravi/src/lvm.c:1344:20    OP_GETTABLE
	movl	%r13d, %eax
	shrl	$24, %eax
	shlq	$4, %rax
	leaq	(%r9,%rax), %r10
Ltmp1027:
	##DEBUG_VALUE: rb <- %R10
	.loc	1 1345 22               ## /Users/dylan/github/ravi/src/lvm.c:1345:22
	shrl	$16, %r13d
	movl	%r13d, %ecx
	andl	$127, %ecx
	shlq	$4, %rcx
	addq	%rdx, %rcx
Ltmp1028:
	##DEBUG_VALUE: luaV_execute:k <- [%RBP+-96]
	movzbl	%r13b, %edx
	movq	%rdx, %rbx
	shlq	$4, %rbx
	addq	%r9, %rbx
	testb	%dl, %dl
	cmovsq	%rcx, %rbx
Ltmp1029:
	##DEBUG_VALUE: rc <- %RBX
	.loc	1 1346 9                ## /Users/dylan/github/ravi/src/lvm.c:1346:9
	movl	8(%r9,%rax), %eax
Ltmp1030:
	.loc	1 1346 9 is_stmt 0      ## /Users/dylan/github/ravi/src/lvm.c:1346:9
	cmpl	$69, %eax
	jne	LBB18_44
Ltmp1031:
## BB#49:                               ##   in Loop: Header=BB18_43 Depth=2
	##DEBUG_VALUE: luaV_execute:L <- %R12
	##DEBUG_VALUE: luaV_execute:cl <- [%RBP+-104]
	##DEBUG_VALUE: luaV_execute:k <- [%RBP+-96]
	##DEBUG_VALUE: rb <- %R10
	##DEBUG_VALUE: rc <- %RBX
	movq	%r11, %r13
	.loc	1 1346 9                ## /Users/dylan/github/ravi/src/lvm.c:1346:9
Ltmp1032:
	cmpl	$19, 8(%rbx)
	jne	LBB18_53
Ltmp1033:
## BB#50:                               ##   in Loop: Header=BB18_43 Depth=2
	##DEBUG_VALUE: luaV_execute:L <- %R12
	##DEBUG_VALUE: luaV_execute:cl <- [%RBP+-104]
	##DEBUG_VALUE: luaV_execute:k <- [%RBP+-96]
	##DEBUG_VALUE: rb <- %R10
	##DEBUG_VALUE: rc <- %RBX
	.loc	1 1346 9                ## /Users/dylan/github/ravi/src/lvm.c:1346:9
	movq	(%rbx), %rsi
Ltmp1034:
	##DEBUG_VALUE: idx <- %RSI
	movq	(%r10), %rdi
Ltmp1035:
	##DEBUG_VALUE: h <- %RDI
	movq	%r10, -112(%rbp)        ## 8-byte Spill
Ltmp1036:
	##DEBUG_VALUE: rb <- [%RBP+-112]
	.loc	1 1346 9                ## /Users/dylan/github/ravi/src/lvm.c:1346:9
	leaq	-1(%rsi), %rax
	movl	12(%rdi), %ecx
Ltmp1037:
	.loc	1 1346 9                ## /Users/dylan/github/ravi/src/lvm.c:1346:9
	cmpq	%rcx, %rax
	movq	%r13, %r11
	jae	LBB18_52
Ltmp1038:
## BB#51:                               ##   in Loop: Header=BB18_43 Depth=2
	##DEBUG_VALUE: luaV_execute:L <- %R12
	##DEBUG_VALUE: luaV_execute:cl <- [%RBP+-104]
	##DEBUG_VALUE: luaV_execute:k <- [%RBP+-96]
	##DEBUG_VALUE: rb <- [%RBP+-112]
	##DEBUG_VALUE: rc <- %RBX
	##DEBUG_VALUE: h <- %RDI
	.loc	1 1346 9                ## /Users/dylan/github/ravi/src/lvm.c:1346:9
	shlq	$4, %rax
	addq	16(%rdi), %rax
Ltmp1039:
	##DEBUG_VALUE: aux <- %RAX
	jmp	LBB18_55
Ltmp1040:
	.align	4, 0x90
LBB18_53:                               ##   in Loop: Header=BB18_43 Depth=2
	##DEBUG_VALUE: luaV_execute:L <- %R12
	##DEBUG_VALUE: luaV_execute:cl <- [%RBP+-104]
	##DEBUG_VALUE: luaV_execute:k <- [%RBP+-96]
	##DEBUG_VALUE: rb <- %R10
	##DEBUG_VALUE: rc <- %RBX
	.loc	1 1346 9                ## /Users/dylan/github/ravi/src/lvm.c:1346:9
	movq	(%r10), %rdi
	movq	%r10, -112(%rbp)        ## 8-byte Spill
Ltmp1041:
	##DEBUG_VALUE: rb <- [%RBP+-112]
	movq	%rbx, %rsi
	movq	%r9, %r14
	callq	_luaH_get
	movq	%r14, %r9
Ltmp1042:
LBB18_54:                               ##   in Loop: Header=BB18_43 Depth=2
	##DEBUG_VALUE: aux <- %RAX
	movq	%r13, %r11
Ltmp1043:
LBB18_55:                               ##   in Loop: Header=BB18_43 Depth=2
	##DEBUG_VALUE: luaV_execute:L <- %R12
	##DEBUG_VALUE: luaV_execute:cl <- [%RBP+-104]
	##DEBUG_VALUE: luaV_execute:k <- [%RBP+-96]
	##DEBUG_VALUE: rb <- [%RBP+-112]
	##DEBUG_VALUE: rc <- %RBX
	.loc	1 1346 9                ## /Users/dylan/github/ravi/src/lvm.c:1346:9
	cmpl	$0, 8(%rax)
Ltmp1044:
	.loc	1 1346 9                ## /Users/dylan/github/ravi/src/lvm.c:1346:9
	je	LBB18_57
Ltmp1045:
## BB#56:                               ##   in Loop: Header=BB18_43 Depth=2
	##DEBUG_VALUE: luaV_execute:L <- %R12
	##DEBUG_VALUE: luaV_execute:cl <- [%RBP+-104]
	##DEBUG_VALUE: luaV_execute:k <- [%RBP+-96]
	.loc	1 1346 9                ## /Users/dylan/github/ravi/src/lvm.c:1346:9
	movq	(%rax), %rcx
	movq	8(%rax), %rax
	movq	%rax, 8(%r15)
	movq	%rcx, (%r15)
Ltmp1046:
	##DEBUG_VALUE: luaV_execute:pc <- %R11
	.loc	1 1347 9 is_stmt 1      ## /Users/dylan/github/ravi/src/lvm.c:1347:9
	movl	(%r11), %r13d
	addq	$4, %r11
Ltmp1047:
	movzbl	%r13b, %eax
Ltmp1048:
	##DEBUG_VALUE: op <- %EAX
	movl	%r13d, %r15d
	shrl	$8, %r15d
	andl	$127, %r15d
	shlq	$4, %r15
	addq	%r9, %r15
Ltmp1049:
	##DEBUG_VALUE: ra <- %R15
	movzbl	%r13b, %ecx
Ltmp1050:
	.loc	1 1302 5                ## /Users/dylan/github/ravi/src/lvm.c:1302:5
	leaq	_luaV_execute.dispatch_table(%rip), %rdx
	movq	%rdx, %r8
Ltmp1051:
	.loc	1 1347 9                ## /Users/dylan/github/ravi/src/lvm.c:1347:9
	leaq	(%r8,%rcx,8), %rcx
	movq	-96(%rbp), %r10         ## 8-byte Reload
Ltmp1052:
	##DEBUG_VALUE: luaV_execute:k <- %R10
	jmpq	*(%rcx)
Ltmp1053:
LBB18_44:                               ##   in Loop: Header=BB18_43 Depth=2
	##DEBUG_VALUE: luaV_execute:L <- %R12
	##DEBUG_VALUE: luaV_execute:cl <- [%RBP+-104]
	##DEBUG_VALUE: luaV_execute:k <- [%RBP+-96]
	cmpl	$101, %eax
	jne	LBB18_45
Ltmp1054:
## BB#58:                               ##   in Loop: Header=BB18_43 Depth=2
	##DEBUG_VALUE: luaV_execute:L <- %R12
	##DEBUG_VALUE: luaV_execute:cl <- [%RBP+-104]
	##DEBUG_VALUE: luaV_execute:k <- [%RBP+-96]
	.loc	1 1346 9                ## /Users/dylan/github/ravi/src/lvm.c:1346:9
	cmpl	$19, 8(%rbx)
	jne	LBB18_1299
Ltmp1055:
## BB#59:                               ##   in Loop: Header=BB18_43 Depth=2
	##DEBUG_VALUE: luaV_execute:L <- %R12
	##DEBUG_VALUE: luaV_execute:cl <- [%RBP+-104]
	##DEBUG_VALUE: luaV_execute:k <- [%RBP+-96]
	.loc	1 1346 9 is_stmt 0      ## /Users/dylan/github/ravi/src/lvm.c:1346:9
	movq	(%r10), %rcx
Ltmp1056:
	##DEBUG_VALUE: h <- %RCX
	.loc	1 1346 9                ## /Users/dylan/github/ravi/src/lvm.c:1346:9
	movq	(%rbx), %rax
Ltmp1057:
	##DEBUG_VALUE: ukey <- %EAX
	cmpl	64(%rcx), %eax
	jae	LBB18_40
Ltmp1058:
## BB#60:                               ##   in Loop: Header=BB18_43 Depth=2
	##DEBUG_VALUE: luaV_execute:L <- %R12
	##DEBUG_VALUE: luaV_execute:cl <- [%RBP+-104]
	##DEBUG_VALUE: luaV_execute:k <- [%RBP+-96]
	##DEBUG_VALUE: h <- %RCX
	##DEBUG_VALUE: ukey <- %EAX
	movq	56(%rcx), %rcx
Ltmp1059:
	##DEBUG_VALUE: data <- %RCX
	.loc	1 1346 9                ## /Users/dylan/github/ravi/src/lvm.c:1346:9
	movl	%eax, %eax
Ltmp1060:
	movq	(%rcx,%rax,8), %rax
	movq	%rax, (%r15)
	movl	$3, 8(%r15)
Ltmp1061:
	##DEBUG_VALUE: luaV_execute:pc <- %R11
	.loc	1 1347 9 is_stmt 1      ## /Users/dylan/github/ravi/src/lvm.c:1347:9
	movl	(%r11), %r13d
	addq	$4, %r11
Ltmp1062:
	movzbl	%r13b, %eax
Ltmp1063:
	##DEBUG_VALUE: op <- %EAX
	movl	%r13d, %r15d
	shrl	$8, %r15d
	andl	$127, %r15d
	shlq	$4, %r15
	addq	%r9, %r15
Ltmp1064:
	##DEBUG_VALUE: ra <- %R15
	movzbl	%r13b, %ecx
Ltmp1065:
	.loc	1 1302 5                ## /Users/dylan/github/ravi/src/lvm.c:1302:5
	leaq	_luaV_execute.dispatch_table(%rip), %rdx
	movq	%rdx, %r8
Ltmp1066:
	.loc	1 1347 9                ## /Users/dylan/github/ravi/src/lvm.c:1347:9
	leaq	(%r8,%rcx,8), %rcx
	movq	-96(%rbp), %r10         ## 8-byte Reload
Ltmp1067:
	##DEBUG_VALUE: luaV_execute:k <- %R10
	jmpq	*(%rcx)
Ltmp1068:
LBB18_57:                               ##   in Loop: Header=BB18_43 Depth=2
	##DEBUG_VALUE: luaV_execute:L <- %R12
	##DEBUG_VALUE: luaV_execute:cl <- [%RBP+-104]
	##DEBUG_VALUE: luaV_execute:k <- [%RBP+-96]
	##DEBUG_VALUE: rb <- [%RBP+-112]
	##DEBUG_VALUE: rc <- %RBX
	movq	-88(%rbp), %r13         ## 8-byte Reload
	.loc	1 1346 9                ## /Users/dylan/github/ravi/src/lvm.c:1346:9
Ltmp1069:
	movq	%r11, 40(%r13)
	.loc	1 1346 9 is_stmt 0      ## /Users/dylan/github/ravi/src/lvm.c:1346:9
Ltmp1070:
	movq	%r12, %rdi
	movq	-112(%rbp), %rsi        ## 8-byte Reload
	movq	%rbx, %rdx
	movq	%r15, %rcx
	movq	%rax, %r8
	movq	%r11, %rbx
Ltmp1071:
	callq	_luaV_finishget
	movq	%rbx, %r11
Ltmp1072:
	.loc	1 1346 9                ## /Users/dylan/github/ravi/src/lvm.c:1346:9
	movq	32(%r13), %r9
Ltmp1073:
	##DEBUG_VALUE: luaV_execute:pc <- %R11
	.loc	1 1347 9 is_stmt 1      ## /Users/dylan/github/ravi/src/lvm.c:1347:9
	movl	(%r11), %r13d
Ltmp1074:
	##DEBUG_VALUE: luaV_execute:base <- %R9
	addq	$4, %r11
Ltmp1075:
	movzbl	%r13b, %eax
Ltmp1076:
	##DEBUG_VALUE: op <- %EAX
	movl	%r13d, %r15d
	shrl	$8, %r15d
	andl	$127, %r15d
	shlq	$4, %r15
	addq	%r9, %r15
Ltmp1077:
	##DEBUG_VALUE: ra <- %R15
	movzbl	%r13b, %ecx
Ltmp1078:
	.loc	1 1302 5                ## /Users/dylan/github/ravi/src/lvm.c:1302:5
	leaq	_luaV_execute.dispatch_table(%rip), %rdx
	movq	%rdx, %r8
Ltmp1079:
	.loc	1 1347 9                ## /Users/dylan/github/ravi/src/lvm.c:1347:9
	leaq	(%r8,%rcx,8), %rcx
	movq	-96(%rbp), %r10         ## 8-byte Reload
Ltmp1080:
	##DEBUG_VALUE: luaV_execute:k <- %R10
	jmpq	*(%rcx)
Ltmp1081:
LBB18_45:                               ##   in Loop: Header=BB18_43 Depth=2
	##DEBUG_VALUE: luaV_execute:L <- %R12
	##DEBUG_VALUE: luaV_execute:cl <- [%RBP+-104]
	##DEBUG_VALUE: luaV_execute:k <- [%RBP+-96]
	cmpl	$85, %eax
	jne	LBB18_61
Ltmp1082:
## BB#46:                               ##   in Loop: Header=BB18_43 Depth=2
	##DEBUG_VALUE: luaV_execute:L <- %R12
	##DEBUG_VALUE: luaV_execute:cl <- [%RBP+-104]
	##DEBUG_VALUE: luaV_execute:k <- [%RBP+-96]
	.loc	1 1346 9                ## /Users/dylan/github/ravi/src/lvm.c:1346:9
	cmpl	$19, 8(%rbx)
	jne	LBB18_1299
Ltmp1083:
## BB#47:                               ##   in Loop: Header=BB18_43 Depth=2
	##DEBUG_VALUE: luaV_execute:L <- %R12
	##DEBUG_VALUE: luaV_execute:cl <- [%RBP+-104]
	##DEBUG_VALUE: luaV_execute:k <- [%RBP+-96]
	.loc	1 1346 9 is_stmt 0      ## /Users/dylan/github/ravi/src/lvm.c:1346:9
	movq	(%r10), %rcx
Ltmp1084:
	##DEBUG_VALUE: h <- %RCX
	.loc	1 1346 9                ## /Users/dylan/github/ravi/src/lvm.c:1346:9
	movq	(%rbx), %rax
Ltmp1085:
	##DEBUG_VALUE: ukey <- %EAX
	cmpl	64(%rcx), %eax
	jae	LBB18_40
Ltmp1086:
## BB#48:                               ##   in Loop: Header=BB18_43 Depth=2
	##DEBUG_VALUE: luaV_execute:L <- %R12
	##DEBUG_VALUE: luaV_execute:cl <- [%RBP+-104]
	##DEBUG_VALUE: luaV_execute:k <- [%RBP+-96]
	##DEBUG_VALUE: h <- %RCX
	##DEBUG_VALUE: ukey <- %EAX
	movq	56(%rcx), %rcx
Ltmp1087:
	##DEBUG_VALUE: data <- %RCX
	.loc	1 1346 9                ## /Users/dylan/github/ravi/src/lvm.c:1346:9
	movl	%eax, %eax
Ltmp1088:
	movq	(%rcx,%rax,8), %rax
	movq	%rax, (%r15)
	movl	$19, 8(%r15)
Ltmp1089:
	##DEBUG_VALUE: luaV_execute:pc <- %R11
	.loc	1 1347 9 is_stmt 1      ## /Users/dylan/github/ravi/src/lvm.c:1347:9
	movl	(%r11), %r13d
	addq	$4, %r11
Ltmp1090:
	movzbl	%r13b, %eax
Ltmp1091:
	##DEBUG_VALUE: op <- %EAX
	movl	%r13d, %r15d
	shrl	$8, %r15d
	andl	$127, %r15d
	shlq	$4, %r15
	addq	%r9, %r15
Ltmp1092:
	##DEBUG_VALUE: ra <- %R15
	movzbl	%r13b, %ecx
Ltmp1093:
	.loc	1 1302 5                ## /Users/dylan/github/ravi/src/lvm.c:1302:5
	leaq	_luaV_execute.dispatch_table(%rip), %rdx
	movq	%rdx, %r8
Ltmp1094:
	.loc	1 1347 9                ## /Users/dylan/github/ravi/src/lvm.c:1347:9
	leaq	(%r8,%rcx,8), %rcx
	movq	-96(%rbp), %r10         ## 8-byte Reload
Ltmp1095:
	##DEBUG_VALUE: luaV_execute:k <- %R10
	jmpq	*(%rcx)
Ltmp1096:
LBB18_52:                               ##   in Loop: Header=BB18_43 Depth=2
	##DEBUG_VALUE: luaV_execute:L <- %R12
	##DEBUG_VALUE: luaV_execute:cl <- [%RBP+-104]
	##DEBUG_VALUE: luaV_execute:k <- [%RBP+-96]
	##DEBUG_VALUE: rb <- [%RBP+-112]
	##DEBUG_VALUE: rc <- %RBX
	##DEBUG_VALUE: idx <- %RSI
	##DEBUG_VALUE: h <- %RDI
	movq	%r11, %r13
	movq	%r12, %r14
Ltmp1097:
	##DEBUG_VALUE: luaV_execute:L <- %R14
	movq	%r9, %r12
	.loc	1 1346 9                ## /Users/dylan/github/ravi/src/lvm.c:1346:9
Ltmp1098:
	callq	_luaH_getint
	movq	%r12, %r9
	movq	%r14, %r12
	jmp	LBB18_54
Ltmp1099:
LBB18_61:                               ##   in Loop: Header=BB18_43 Depth=2
	##DEBUG_VALUE: luaV_execute:L <- %R12
	##DEBUG_VALUE: luaV_execute:cl <- [%RBP+-104]
	##DEBUG_VALUE: luaV_execute:k <- [%RBP+-96]
	movq	-88(%rbp), %r13         ## 8-byte Reload
	.loc	1 1346 9 is_stmt 0      ## /Users/dylan/github/ravi/src/lvm.c:1346:9
Ltmp1100:
	movq	%r11, 40(%r13)
	xorl	%r8d, %r8d
	.loc	1 1346 9                ## /Users/dylan/github/ravi/src/lvm.c:1346:9
Ltmp1101:
	movq	%r12, %rdi
	movq	%r10, %rsi
	movq	%rbx, %rdx
	movq	%r15, %rcx
	movq	%r11, %rbx
	callq	_luaV_finishget
	movq	%rbx, %r11
Ltmp1102:
	.loc	1 1346 9                ## /Users/dylan/github/ravi/src/lvm.c:1346:9
	movq	32(%r13), %r9
Ltmp1103:
	##DEBUG_VALUE: luaV_execute:pc <- %R11
	.loc	1 1347 9 is_stmt 1      ## /Users/dylan/github/ravi/src/lvm.c:1347:9
	movl	(%r11), %r13d
Ltmp1104:
	##DEBUG_VALUE: luaV_execute:base <- %R9
	addq	$4, %r11
Ltmp1105:
	movzbl	%r13b, %eax
Ltmp1106:
	##DEBUG_VALUE: op <- %EAX
	movl	%r13d, %r15d
	shrl	$8, %r15d
	andl	$127, %r15d
	shlq	$4, %r15
	addq	%r9, %r15
Ltmp1107:
	##DEBUG_VALUE: ra <- %R15
	movzbl	%r13b, %ecx
Ltmp1108:
	.loc	1 1302 5                ## /Users/dylan/github/ravi/src/lvm.c:1302:5
	leaq	_luaV_execute.dispatch_table(%rip), %rdx
	movq	%rdx, %r8
Ltmp1109:
	.loc	1 1347 9                ## /Users/dylan/github/ravi/src/lvm.c:1347:9
	leaq	(%r8,%rcx,8), %rcx
	movq	-96(%rbp), %r10         ## 8-byte Reload
Ltmp1110:
	##DEBUG_VALUE: luaV_execute:k <- %R10
	jmpq	*(%rcx)
Ltmp1111:
	.align	4, 0x90
Ltmp1112:                               ## Block address taken
LBB18_62:                               ##   Parent Loop BB18_1 Depth=1
                                        ## =>  This Loop Header: Depth=2
                                        ##       Child Loop BB18_106 Depth 3
	##DEBUG_VALUE: luaV_execute:L <- %R12
	##DEBUG_VALUE: luaV_execute:cl <- [%RBP+-104]
	##DEBUG_VALUE: luaV_execute:k <- %R10
	.loc	1 1350 36               ## /Users/dylan/github/ravi/src/lvm.c:1350:36 OP_SETTABUP
	movl	%r13d, %eax
	shrl	$8, %eax
	andl	$127, %eax
	.loc	1 1350 25 is_stmt 0     ## /Users/dylan/github/ravi/src/lvm.c:1350:25
	movq	-104(%rbp), %rcx        ## 8-byte Reload
	movq	32(%rcx,%rax,8), %rax
	.loc	1 1350 50               ## /Users/dylan/github/ravi/src/lvm.c:1350:50
	movq	(%rax), %rdx
Ltmp1113:
	##DEBUG_VALUE: upval <- %RDX
	.loc	1 1351 22 is_stmt 1     ## /Users/dylan/github/ravi/src/lvm.c:1351:22
	movl	%r13d, %eax
	shrl	$24, %eax
	movl	%eax, %ecx
	andl	$127, %ecx
	shlq	$4, %rcx
	addq	%r10, %rcx
	movq	%rax, %r14
	shlq	$4, %r14
	addq	%r9, %r14
	testb	%al, %al
	cmovsq	%rcx, %r14
Ltmp1114:
	##DEBUG_VALUE: rb <- %R14
	.loc	1 1352 22               ## /Users/dylan/github/ravi/src/lvm.c:1352:22
	shrl	$16, %r13d
	movl	%r13d, %eax
	andl	$127, %eax
	shlq	$4, %rax
	addq	%r10, %rax
	movzbl	%r13b, %ecx
	movq	%rcx, %r13
	shlq	$4, %r13
	addq	%r9, %r13
	testb	%cl, %cl
	cmovsq	%rax, %r13
Ltmp1115:
	##DEBUG_VALUE: rc <- %R13
	##DEBUG_VALUE: luaV_tonumber_:obj <- %R13
	##DEBUG_VALUE: luaV_tointeger_:obj <- %R13
	##DEBUG_VALUE: luaV_tointeger:obj <- %R13
	.loc	1 1353 9                ## /Users/dylan/github/ravi/src/lvm.c:1353:9
	movl	8(%rdx), %eax
Ltmp1116:
	.loc	1 1353 9 is_stmt 0      ## /Users/dylan/github/ravi/src/lvm.c:1353:9
	cmpl	$69, %eax
	jne	LBB18_63
Ltmp1117:
## BB#69:                               ##   in Loop: Header=BB18_62 Depth=2
	##DEBUG_VALUE: luaV_execute:L <- [%RBP+-80]
	##DEBUG_VALUE: luaV_execute:cl <- [%RBP+-104]
	##DEBUG_VALUE: upval <- %RDX
	##DEBUG_VALUE: rb <- %R14
	##DEBUG_VALUE: rc <- %R13
	movq	%r11, %r12
	.loc	1 1353 9                ## /Users/dylan/github/ravi/src/lvm.c:1353:9
Ltmp1118:
	cmpl	$19, 8(%r14)
	jne	LBB18_73
Ltmp1119:
## BB#70:                               ##   in Loop: Header=BB18_62 Depth=2
	##DEBUG_VALUE: luaV_execute:L <- [%RBP+-80]
	##DEBUG_VALUE: luaV_execute:cl <- [%RBP+-104]
	##DEBUG_VALUE: upval <- %RDX
	##DEBUG_VALUE: rb <- %R14
	##DEBUG_VALUE: rc <- %R13
	.loc	1 1353 9                ## /Users/dylan/github/ravi/src/lvm.c:1353:9
	movq	(%r14), %rsi
Ltmp1120:
	##DEBUG_VALUE: idx <- %RSI
	movq	%rdx, -112(%rbp)        ## 8-byte Spill
	movq	(%rdx), %rdi
Ltmp1121:
	##DEBUG_VALUE: h <- %RDI
	##DEBUG_VALUE: upval <- [%RBP+-112]
	.loc	1 1353 9                ## /Users/dylan/github/ravi/src/lvm.c:1353:9
	leaq	-1(%rsi), %rbx
	movl	12(%rdi), %eax
	##DEBUG_VALUE: luaV_execute:L <- [%RBP+-80]
	##DEBUG_VALUE: luaV_execute:cl <- [%RBP+-104]
	##DEBUG_VALUE: upval <- [%RBP+-112]
	##DEBUG_VALUE: rb <- %R14
	##DEBUG_VALUE: rc <- %R13
	##DEBUG_VALUE: idx <- %RSI
	##DEBUG_VALUE: h <- %RDI
	movq	%r9, %r15
Ltmp1122:
	.loc	1 1353 9                ## /Users/dylan/github/ravi/src/lvm.c:1353:9
	cmpq	%rax, %rbx
	jae	LBB18_72
Ltmp1123:
## BB#71:                               ##   in Loop: Header=BB18_62 Depth=2
	.loc	1 1353 9                ## /Users/dylan/github/ravi/src/lvm.c:1353:9
	shlq	$4, %rbx
	addq	16(%rdi), %rbx
	jmp	LBB18_75
Ltmp1124:
	.align	4, 0x90
LBB18_73:                               ##   in Loop: Header=BB18_62 Depth=2
	##DEBUG_VALUE: luaV_execute:L <- [%RBP+-80]
	##DEBUG_VALUE: luaV_execute:cl <- [%RBP+-104]
	##DEBUG_VALUE: upval <- %RDX
	##DEBUG_VALUE: rb <- %R14
	##DEBUG_VALUE: rc <- %R13
	movq	%r9, %r15
	.loc	1 1353 9                ## /Users/dylan/github/ravi/src/lvm.c:1353:9
	movq	%rdx, -112(%rbp)        ## 8-byte Spill
	movq	(%rdx), %rdi
Ltmp1125:
	##DEBUG_VALUE: upval <- [%RBP+-112]
	movq	%r14, %rsi
	callq	_luaH_get
Ltmp1126:
LBB18_74:                               ##   in Loop: Header=BB18_62 Depth=2
	movq	%rax, %rbx
Ltmp1127:
LBB18_75:                               ##   in Loop: Header=BB18_62 Depth=2
	##DEBUG_VALUE: slot <- %RBX
	movq	%r12, %r11
	##DEBUG_VALUE: luaV_execute:L <- [%RBP+-80]
	##DEBUG_VALUE: luaV_execute:cl <- [%RBP+-104]
Ltmp1128:
	##DEBUG_VALUE: luaV_execute:k <- [%RBP+-96]
	##DEBUG_VALUE: upval <- [%RBP+-112]
	##DEBUG_VALUE: rb <- %R14
	##DEBUG_VALUE: rc <- %R13
	.loc	1 1353 9                ## /Users/dylan/github/ravi/src/lvm.c:1353:9
	cmpl	$0, 8(%rbx)
	movq	%r15, %r9
Ltmp1129:
	.loc	1 1353 9                ## /Users/dylan/github/ravi/src/lvm.c:1353:9
	je	LBB18_81
Ltmp1130:
## BB#76:                               ##   in Loop: Header=BB18_62 Depth=2
	##DEBUG_VALUE: luaV_execute:L <- [%RBP+-80]
	##DEBUG_VALUE: luaV_execute:cl <- [%RBP+-104]
	##DEBUG_VALUE: luaV_execute:k <- [%RBP+-96]
	##DEBUG_VALUE: upval <- [%RBP+-112]
	##DEBUG_VALUE: rc <- %R13
	.loc	1 1353 9                ## /Users/dylan/github/ravi/src/lvm.c:1353:9
	testb	$64, 8(%r13)
	movq	-96(%rbp), %r10         ## 8-byte Reload
Ltmp1131:
	##DEBUG_VALUE: luaV_execute:k <- %R10
	movq	-80(%rbp), %r12         ## 8-byte Reload
Ltmp1132:
	##DEBUG_VALUE: luaV_execute:L <- %R12
	je	LBB18_80
Ltmp1133:
## BB#77:                               ##   in Loop: Header=BB18_62 Depth=2
	##DEBUG_VALUE: luaV_execute:L <- %R12
	##DEBUG_VALUE: luaV_execute:cl <- [%RBP+-104]
	##DEBUG_VALUE: luaV_execute:k <- %R10
	##DEBUG_VALUE: upval <- [%RBP+-112]
	##DEBUG_VALUE: rc <- %R13
	movq	-112(%rbp), %rax        ## 8-byte Reload
	movq	(%rax), %rsi
	testb	$4, 9(%rsi)
	je	LBB18_80
Ltmp1134:
## BB#78:                               ##   in Loop: Header=BB18_62 Depth=2
	##DEBUG_VALUE: luaV_execute:L <- %R12
	##DEBUG_VALUE: luaV_execute:cl <- [%RBP+-104]
	##DEBUG_VALUE: luaV_execute:k <- %R10
	##DEBUG_VALUE: rc <- %R13
	movq	(%r13), %rax
	testb	$3, 9(%rax)
	je	LBB18_80
Ltmp1135:
## BB#79:                               ##   in Loop: Header=BB18_62 Depth=2
	##DEBUG_VALUE: luaV_execute:L <- %R12
	##DEBUG_VALUE: luaV_execute:cl <- [%RBP+-104]
	##DEBUG_VALUE: luaV_execute:k <- %R10
	##DEBUG_VALUE: rc <- %R13
	movq	%r12, %rdi
	movq	%r11, %r14
	movq	%r9, %r15
Ltmp1136:
	##DEBUG_VALUE: luaV_execute:k <- [%RBP+-96]
	callq	_luaC_barrierback_
	movq	-96(%rbp), %r10         ## 8-byte Reload
Ltmp1137:
	##DEBUG_VALUE: luaV_execute:k <- %R10
	movq	%r15, %r9
	movq	%r14, %r11
Ltmp1138:
	.align	4, 0x90
LBB18_80:                               ##   in Loop: Header=BB18_62 Depth=2
	##DEBUG_VALUE: luaV_execute:L <- %R12
	##DEBUG_VALUE: luaV_execute:cl <- [%RBP+-104]
	##DEBUG_VALUE: luaV_execute:k <- %R10
	##DEBUG_VALUE: rc <- %R13
	movq	(%r13), %rax
	movq	8(%r13), %rcx
	movq	%rcx, 8(%rbx)
	movq	%rax, (%rbx)
Ltmp1139:
	##DEBUG_VALUE: luaV_execute:pc <- %R11
	.loc	1 1354 9 is_stmt 1      ## /Users/dylan/github/ravi/src/lvm.c:1354:9
	movl	(%r11), %r13d
Ltmp1140:
	addq	$4, %r11
Ltmp1141:
	movzbl	%r13b, %eax
Ltmp1142:
	##DEBUG_VALUE: op <- %EAX
	movl	%r13d, %r15d
	shrl	$8, %r15d
	andl	$127, %r15d
	shlq	$4, %r15
	addq	%r9, %r15
Ltmp1143:
	##DEBUG_VALUE: ra <- %R15
	movzbl	%r13b, %ecx
Ltmp1144:
	.loc	1 1302 5                ## /Users/dylan/github/ravi/src/lvm.c:1302:5
	leaq	_luaV_execute.dispatch_table(%rip), %r14
	movq	%r14, %r8
Ltmp1145:
	.loc	1 1354 9                ## /Users/dylan/github/ravi/src/lvm.c:1354:9
	leaq	(%r8,%rcx,8), %rcx
	jmpq	*(%rcx)
Ltmp1146:
	.align	4, 0x90
LBB18_81:                               ##   in Loop: Header=BB18_62 Depth=2
	##DEBUG_VALUE: luaV_execute:L <- [%RBP+-80]
	##DEBUG_VALUE: luaV_execute:cl <- [%RBP+-104]
	##DEBUG_VALUE: luaV_execute:k <- [%RBP+-96]
	##DEBUG_VALUE: upval <- [%RBP+-112]
	##DEBUG_VALUE: rb <- %R14
	##DEBUG_VALUE: rc <- %R13
	movq	-88(%rbp), %r12         ## 8-byte Reload
	.loc	1 1353 9                ## /Users/dylan/github/ravi/src/lvm.c:1353:9
Ltmp1147:
	movq	%r11, 40(%r12)
	movq	-80(%rbp), %r15         ## 8-byte Reload
Ltmp1148:
	##DEBUG_VALUE: luaV_execute:L <- %R15
	.loc	1 1353 9 is_stmt 0      ## /Users/dylan/github/ravi/src/lvm.c:1353:9
	movq	%r15, %rdi
	movq	-112(%rbp), %rsi        ## 8-byte Reload
	movq	%r14, %rdx
	movq	%r13, %rcx
	movq	%rbx, %r8
	movq	%r11, %rbx
	callq	_luaV_finishset
	movq	%rbx, %r11
Ltmp1149:
	.loc	1 1353 9                ## /Users/dylan/github/ravi/src/lvm.c:1353:9
	movq	32(%r12), %r9
Ltmp1150:
	##DEBUG_VALUE: luaV_execute:pc <- %R11
	movq	%r15, %r12
Ltmp1151:
	##DEBUG_VALUE: luaV_execute:L <- %R12
	.loc	1 1354 9 is_stmt 1      ## /Users/dylan/github/ravi/src/lvm.c:1354:9
	movl	(%r11), %r13d
Ltmp1152:
	##DEBUG_VALUE: luaV_execute:base <- %R9
	addq	$4, %r11
Ltmp1153:
	movzbl	%r13b, %eax
Ltmp1154:
	##DEBUG_VALUE: op <- %EAX
	movl	%r13d, %r15d
	shrl	$8, %r15d
	andl	$127, %r15d
	shlq	$4, %r15
	addq	%r9, %r15
Ltmp1155:
	##DEBUG_VALUE: ra <- %R15
	movzbl	%r13b, %ecx
Ltmp1156:
	.loc	1 1302 5                ## /Users/dylan/github/ravi/src/lvm.c:1302:5
	leaq	_luaV_execute.dispatch_table(%rip), %r14
Ltmp1157:
	movq	%r14, %r8
Ltmp1158:
	.loc	1 1354 9                ## /Users/dylan/github/ravi/src/lvm.c:1354:9
	leaq	(%r8,%rcx,8), %rcx
	movq	-96(%rbp), %r10         ## 8-byte Reload
Ltmp1159:
	##DEBUG_VALUE: luaV_execute:k <- %R10
	jmpq	*(%rcx)
Ltmp1160:
LBB18_63:                               ##   in Loop: Header=BB18_62 Depth=2
	##DEBUG_VALUE: luaV_execute:L <- %R12
	##DEBUG_VALUE: luaV_execute:cl <- [%RBP+-104]
	##DEBUG_VALUE: luaV_execute:k <- %R10
	cmpl	$101, %eax
	jne	LBB18_64
Ltmp1161:
## BB#82:                               ##   in Loop: Header=BB18_62 Depth=2
	##DEBUG_VALUE: luaV_execute:L <- %R12
	##DEBUG_VALUE: luaV_execute:cl <- [%RBP+-104]
	##DEBUG_VALUE: luaV_execute:k <- %R10
	.loc	1 1353 9                ## /Users/dylan/github/ravi/src/lvm.c:1353:9
	cmpl	$19, 8(%r14)
	jne	LBB18_1300
Ltmp1162:
## BB#83:                               ##   in Loop: Header=BB18_62 Depth=2
	##DEBUG_VALUE: luaV_execute:L <- %R12
	##DEBUG_VALUE: luaV_execute:cl <- [%RBP+-104]
	##DEBUG_VALUE: luaV_execute:k <- %R10
	.loc	1 1353 9 is_stmt 0      ## /Users/dylan/github/ravi/src/lvm.c:1353:9
	movq	(%rdx), %r15
Ltmp1163:
	##DEBUG_VALUE: h <- %R15
	.loc	1 79 7 is_stmt 1        ## /Users/dylan/github/ravi/src/lvm.c:79:7
	movl	8(%r13), %eax
Ltmp1164:
	.loc	1 1353 9                ## /Users/dylan/github/ravi/src/lvm.c:1353:9
	cmpl	$19, %eax
	je	LBB18_88
Ltmp1165:
## BB#84:                               ##   in Loop: Header=BB18_62 Depth=2
	##DEBUG_VALUE: luaV_execute:L <- %R12
	##DEBUG_VALUE: luaV_execute:cl <- [%RBP+-104]
	##DEBUG_VALUE: luaV_execute:k <- %R10
	cmpl	$3, %eax
	jne	LBB18_91
Ltmp1166:
## BB#85:                               ##   in Loop: Header=BB18_62 Depth=2
	##DEBUG_VALUE: luaV_execute:L <- %R12
	##DEBUG_VALUE: luaV_execute:cl <- [%RBP+-104]
	##DEBUG_VALUE: luaV_execute:k <- %R10
	.loc	1 1353 9 is_stmt 0      ## /Users/dylan/github/ravi/src/lvm.c:1353:9
	movq	(%r14), %rax
Ltmp1167:
	##DEBUG_VALUE: ukey <- %EAX
	cmpl	64(%r15), %eax
	jae	LBB18_87
Ltmp1168:
## BB#86:                               ##   in Loop: Header=BB18_62 Depth=2
	##DEBUG_VALUE: luaV_execute:L <- %R12
	##DEBUG_VALUE: luaV_execute:cl <- [%RBP+-104]
	##DEBUG_VALUE: luaV_execute:k <- %R10
	##DEBUG_VALUE: ukey <- %EAX
	movq	56(%r15), %rcx
Ltmp1169:
	##DEBUG_VALUE: data <- %RCX
	.loc	1 1353 9                ## /Users/dylan/github/ravi/src/lvm.c:1353:9
	movq	(%r13), %rdx
	movl	%eax, %eax
Ltmp1170:
	movq	%rdx, (%rcx,%rax,8)
Ltmp1171:
	##DEBUG_VALUE: luaV_execute:pc <- %R11
	.loc	1 1354 9 is_stmt 1      ## /Users/dylan/github/ravi/src/lvm.c:1354:9
	movl	(%r11), %r13d
	addq	$4, %r11
Ltmp1172:
	movzbl	%r13b, %eax
Ltmp1173:
	##DEBUG_VALUE: op <- %EAX
	movl	%r13d, %r15d
	shrl	$8, %r15d
	andl	$127, %r15d
	shlq	$4, %r15
	addq	%r9, %r15
Ltmp1174:
	##DEBUG_VALUE: ra <- %R15
	movzbl	%r13b, %ecx
Ltmp1175:
	.loc	1 1302 5                ## /Users/dylan/github/ravi/src/lvm.c:1302:5
	leaq	_luaV_execute.dispatch_table(%rip), %r14
	movq	%r14, %r8
Ltmp1176:
	.loc	1 1354 9                ## /Users/dylan/github/ravi/src/lvm.c:1354:9
	leaq	(%r8,%rcx,8), %rcx
	jmpq	*(%rcx)
Ltmp1177:
LBB18_64:                               ##   in Loop: Header=BB18_62 Depth=2
	##DEBUG_VALUE: luaV_execute:L <- %R12
	##DEBUG_VALUE: luaV_execute:cl <- [%RBP+-104]
	##DEBUG_VALUE: luaV_execute:k <- %R10
	movq	%rdx, %rsi
Ltmp1178:
	##DEBUG_VALUE: luaV_execute:k <- [%RBP+-96]
	cmpl	$85, %eax
	jne	LBB18_122
Ltmp1179:
## BB#65:                               ##   in Loop: Header=BB18_62 Depth=2
	##DEBUG_VALUE: luaV_execute:L <- %R12
	##DEBUG_VALUE: luaV_execute:cl <- [%RBP+-104]
	##DEBUG_VALUE: luaV_execute:k <- [%RBP+-96]
	.loc	1 1353 9                ## /Users/dylan/github/ravi/src/lvm.c:1353:9
	cmpl	$19, 8(%r14)
	jne	LBB18_1300
Ltmp1180:
## BB#66:                               ##   in Loop: Header=BB18_62 Depth=2
	##DEBUG_VALUE: luaV_execute:L <- %R12
	##DEBUG_VALUE: luaV_execute:cl <- [%RBP+-104]
	##DEBUG_VALUE: luaV_execute:k <- [%RBP+-96]
	.loc	1 1353 9 is_stmt 0      ## /Users/dylan/github/ravi/src/lvm.c:1353:9
	movq	(%rsi), %rsi
Ltmp1181:
	##DEBUG_VALUE: h <- %RSI
	.loc	1 1353 9                ## /Users/dylan/github/ravi/src/lvm.c:1353:9
	movl	8(%r13), %eax
Ltmp1182:
	.loc	1 1353 9                ## /Users/dylan/github/ravi/src/lvm.c:1353:9
	cmpl	$19, %eax
	jne	LBB18_105
Ltmp1183:
## BB#67:                               ##   in Loop: Header=BB18_62 Depth=2
	##DEBUG_VALUE: luaV_execute:L <- %R12
	##DEBUG_VALUE: luaV_execute:cl <- [%RBP+-104]
	##DEBUG_VALUE: luaV_execute:k <- [%RBP+-96]
	##DEBUG_VALUE: h <- %RSI
	.loc	1 1353 9                ## /Users/dylan/github/ravi/src/lvm.c:1353:9
	movq	(%r14), %rax
Ltmp1184:
	##DEBUG_VALUE: ukey <- %EAX
	cmpl	64(%rsi), %eax
	jae	LBB18_104
Ltmp1185:
## BB#68:                               ##   in Loop: Header=BB18_62 Depth=2
	##DEBUG_VALUE: luaV_execute:L <- %R12
	##DEBUG_VALUE: luaV_execute:cl <- [%RBP+-104]
	##DEBUG_VALUE: luaV_execute:k <- [%RBP+-96]
	##DEBUG_VALUE: h <- %RSI
	##DEBUG_VALUE: ukey <- %EAX
	movq	56(%rsi), %rcx
Ltmp1186:
	##DEBUG_VALUE: data <- %RCX
	.loc	1 1353 9                ## /Users/dylan/github/ravi/src/lvm.c:1353:9
	movq	(%r13), %rdx
	movl	%eax, %eax
Ltmp1187:
	movq	%rdx, (%rcx,%rax,8)
Ltmp1188:
	##DEBUG_VALUE: luaV_execute:pc <- %R11
	.loc	1 1354 9 is_stmt 1      ## /Users/dylan/github/ravi/src/lvm.c:1354:9
	movl	(%r11), %r13d
	addq	$4, %r11
Ltmp1189:
	movzbl	%r13b, %eax
Ltmp1190:
	##DEBUG_VALUE: op <- %EAX
	movl	%r13d, %r15d
	shrl	$8, %r15d
	andl	$127, %r15d
	shlq	$4, %r15
	addq	%r9, %r15
Ltmp1191:
	##DEBUG_VALUE: ra <- %R15
	movzbl	%r13b, %ecx
Ltmp1192:
	.loc	1 1302 5                ## /Users/dylan/github/ravi/src/lvm.c:1302:5
	leaq	_luaV_execute.dispatch_table(%rip), %r14
	movq	%r14, %r8
Ltmp1193:
	.loc	1 1354 9                ## /Users/dylan/github/ravi/src/lvm.c:1354:9
	leaq	(%r8,%rcx,8), %rcx
	movq	-96(%rbp), %r10         ## 8-byte Reload
Ltmp1194:
	##DEBUG_VALUE: luaV_execute:k <- %R10
	jmpq	*(%rcx)
Ltmp1195:
LBB18_72:                               ##   in Loop: Header=BB18_62 Depth=2
	.loc	1 1353 9                ## /Users/dylan/github/ravi/src/lvm.c:1353:9
	callq	_luaH_getint
	jmp	LBB18_74
Ltmp1196:
LBB18_122:                              ##   in Loop: Header=BB18_62 Depth=2
	##DEBUG_VALUE: luaV_execute:L <- %R12
	##DEBUG_VALUE: luaV_execute:cl <- [%RBP+-104]
	##DEBUG_VALUE: luaV_execute:k <- [%RBP+-96]
	movq	-88(%rbp), %rbx         ## 8-byte Reload
	.loc	1 1353 9 is_stmt 0      ## /Users/dylan/github/ravi/src/lvm.c:1353:9
Ltmp1197:
	movq	%r11, 40(%rbx)
	xorl	%r8d, %r8d
	.loc	1 1353 9                ## /Users/dylan/github/ravi/src/lvm.c:1353:9
Ltmp1198:
	movq	%r12, %rdi
	movq	%r14, %rdx
	movq	%r13, %rcx
	movq	%r11, %r14
	callq	_luaV_finishset
	movq	%r14, %r11
Ltmp1199:
	.loc	1 1353 9                ## /Users/dylan/github/ravi/src/lvm.c:1353:9
	movq	32(%rbx), %r9
Ltmp1200:
	##DEBUG_VALUE: luaV_execute:pc <- %R11
	.loc	1 1354 9 is_stmt 1      ## /Users/dylan/github/ravi/src/lvm.c:1354:9
	movl	(%r11), %r13d
Ltmp1201:
	##DEBUG_VALUE: luaV_execute:base <- %R9
	addq	$4, %r11
Ltmp1202:
	movzbl	%r13b, %eax
Ltmp1203:
	##DEBUG_VALUE: op <- %EAX
	movl	%r13d, %r15d
	shrl	$8, %r15d
	andl	$127, %r15d
	shlq	$4, %r15
	addq	%r9, %r15
Ltmp1204:
	##DEBUG_VALUE: ra <- %R15
	movzbl	%r13b, %ecx
Ltmp1205:
	.loc	1 1302 5                ## /Users/dylan/github/ravi/src/lvm.c:1302:5
	leaq	_luaV_execute.dispatch_table(%rip), %r14
	movq	%r14, %r8
Ltmp1206:
	.loc	1 1354 9                ## /Users/dylan/github/ravi/src/lvm.c:1354:9
	leaq	(%r8,%rcx,8), %rcx
	movq	-96(%rbp), %r10         ## 8-byte Reload
Ltmp1207:
	##DEBUG_VALUE: luaV_execute:k <- %R10
	jmpq	*(%rcx)
Ltmp1208:
LBB18_88:                               ##   in Loop: Header=BB18_62 Depth=2
	##DEBUG_VALUE: luaV_execute:L <- %R12
	##DEBUG_VALUE: luaV_execute:cl <- [%RBP+-104]
	##DEBUG_VALUE: luaV_execute:k <- %R10
	##DEBUG_VALUE: h <- %R15
	.loc	1 1353 9                ## /Users/dylan/github/ravi/src/lvm.c:1353:9
	movq	(%r14), %rax
Ltmp1209:
	##DEBUG_VALUE: ukey <- %EAX
	cmpl	64(%r15), %eax
	jae	LBB18_90
Ltmp1210:
## BB#89:                               ##   in Loop: Header=BB18_62 Depth=2
	##DEBUG_VALUE: luaV_execute:L <- %R12
	##DEBUG_VALUE: luaV_execute:cl <- [%RBP+-104]
	##DEBUG_VALUE: luaV_execute:k <- %R10
	##DEBUG_VALUE: h <- %R15
	##DEBUG_VALUE: ukey <- %EAX
	movq	56(%r15), %rcx
Ltmp1211:
	##DEBUG_VALUE: data <- %RCX
	.loc	1 1353 9 is_stmt 0      ## /Users/dylan/github/ravi/src/lvm.c:1353:9
	cvtsi2sdq	(%r13), %xmm0
	movl	%eax, %eax
Ltmp1212:
	movsd	%xmm0, (%rcx,%rax,8)
Ltmp1213:
	##DEBUG_VALUE: luaV_execute:pc <- %R11
	.loc	1 1354 9 is_stmt 1      ## /Users/dylan/github/ravi/src/lvm.c:1354:9
	movl	(%r11), %r13d
	addq	$4, %r11
Ltmp1214:
	movzbl	%r13b, %eax
Ltmp1215:
	##DEBUG_VALUE: op <- %EAX
	movl	%r13d, %r15d
Ltmp1216:
	shrl	$8, %r15d
	andl	$127, %r15d
	shlq	$4, %r15
	addq	%r9, %r15
Ltmp1217:
	##DEBUG_VALUE: ra <- %R15
	movzbl	%r13b, %ecx
Ltmp1218:
	.loc	1 1302 5                ## /Users/dylan/github/ravi/src/lvm.c:1302:5
	leaq	_luaV_execute.dispatch_table(%rip), %r14
	movq	%r14, %r8
Ltmp1219:
	.loc	1 1354 9                ## /Users/dylan/github/ravi/src/lvm.c:1354:9
	leaq	(%r8,%rcx,8), %rcx
	jmpq	*(%rcx)
Ltmp1220:
LBB18_91:                               ##   in Loop: Header=BB18_62 Depth=2
	##DEBUG_VALUE: luaV_execute:L <- [%RBP+-80]
	##DEBUG_VALUE: luaV_execute:cl <- [%RBP+-104]
	##DEBUG_VALUE: luaV_execute:k <- %R10
	##DEBUG_VALUE: luaV_execute:k <- [%RBP+-96]
	movq	%r9, %r12
	movq	%r11, %rbx
	.loc	1 83 12                 ## /Users/dylan/github/ravi/src/lvm.c:83:12
Ltmp1221:
	andl	$15, %eax
	.loc	1 83 25 is_stmt 0       ## /Users/dylan/github/ravi/src/lvm.c:83:25
	cmpl	$4, %eax
	jne	LBB18_102
## BB#92:                               ##   in Loop: Header=BB18_62 Depth=2
	##DEBUG_VALUE: luaV_execute:L <- [%RBP+-80]
	##DEBUG_VALUE: luaV_execute:cl <- [%RBP+-104]
	##DEBUG_VALUE: luaV_execute:k <- [%RBP+-96]
	.loc	1 84 26 is_stmt 1       ## /Users/dylan/github/ravi/src/lvm.c:84:26
	movq	(%r13), %rdi
	addq	$24, %rdi
	leaq	-56(%rbp), %rsi
Ltmp1222:
	##DEBUG_VALUE: luaV_tonumber_:v <- [%RSI+0]
	.loc	1 84 13 is_stmt 0       ## /Users/dylan/github/ravi/src/lvm.c:84:13
	callq	_luaO_str2num
	.loc	1 84 46                 ## /Users/dylan/github/ravi/src/lvm.c:84:46
	movq	(%r13), %rdx
	movl	8(%rdx), %ecx
	movzbl	%cl, %esi
Ltmp1223:
	cmpl	$4, %esi
	jne	LBB18_94
## BB#93:                               ##   in Loop: Header=BB18_62 Depth=2
	##DEBUG_VALUE: luaV_execute:L <- [%RBP+-80]
	##DEBUG_VALUE: luaV_execute:cl <- [%RBP+-104]
	##DEBUG_VALUE: luaV_execute:k <- [%RBP+-96]
	shrl	$24, %ecx
	jmp	LBB18_95
Ltmp1224:
LBB18_105:                              ##   in Loop: Header=BB18_62 Depth=2
	##DEBUG_VALUE: luaV_execute:L <- %R12
	##DEBUG_VALUE: luaV_execute:cl <- [%RBP+-104]
	##DEBUG_VALUE: luaV_execute:k <- [%RBP+-96]
	##DEBUG_VALUE: i <- 0
	##DEBUG_VALUE: luaV_tointeger:mode <- 0
	movq	%rsi, -112(%rbp)        ## 8-byte Spill
	jmp	LBB18_106
Ltmp1225:
	.align	4, 0x90
LBB18_117:                              ## %._crit_edge.6332
                                        ##   in Loop: Header=BB18_106 Depth=3
	##DEBUG_VALUE: luaV_execute:L <- %R12
	##DEBUG_VALUE: luaV_execute:cl <- [%RBP+-104]
	##DEBUG_VALUE: luaV_execute:k <- [%RBP+-96]
	##DEBUG_VALUE: luaV_tointeger:v <- undef
	.loc	1 102 7 is_stmt 1       ## /Users/dylan/github/ravi/src/lvm.c:102:7
	movl	-48(%rbp), %eax
	leaq	-56(%rbp), %r13
Ltmp1226:
	##DEBUG_VALUE: luaV_tointeger:v <- [%R13+0]
	movq	%r15, %r11
	movq	%rbx, %r9
Ltmp1227:
LBB18_106:                              ##   Parent Loop BB18_1 Depth=1
                                        ##     Parent Loop BB18_62 Depth=2
                                        ## =>    This Inner Loop Header: Depth=3
	##DEBUG_VALUE: luaV_execute:L <- %R12
	##DEBUG_VALUE: luaV_execute:cl <- [%RBP+-104]
	##DEBUG_VALUE: luaV_execute:k <- [%RBP+-96]
	##DEBUG_VALUE: i <- 0
	##DEBUG_VALUE: luaV_tointeger:mode <- 0
	##DEBUG_VALUE: luaV_execute:L <- %R12
	##DEBUG_VALUE: luaV_execute:cl <- [%RBP+-104]
	##DEBUG_VALUE: luaV_execute:k <- [%RBP+-96]
	##DEBUG_VALUE: i <- 0
	##DEBUG_VALUE: luaV_tointeger:mode <- 0
	movq	%r9, %rbx
	movq	%r11, %r15
	.loc	1 102 7 is_stmt 0       ## /Users/dylan/github/ravi/src/lvm.c:102:7
	cmpl	$19, %eax
	je	LBB18_118
Ltmp1228:
## BB#107:                              ##   in Loop: Header=BB18_106 Depth=3
	cmpl	$3, %eax
	je	LBB18_108
## BB#112:                              ##   in Loop: Header=BB18_106 Depth=3
Ltmp1229:
	##DEBUG_VALUE: luaV_execute:L <- %R12
	##DEBUG_VALUE: luaV_execute:cl <- [%RBP+-104]
	##DEBUG_VALUE: luaV_execute:k <- [%RBP+-96]
	.loc	1 116 12 is_stmt 1      ## /Users/dylan/github/ravi/src/lvm.c:116:12
	andl	$15, %eax
	.loc	1 116 25 is_stmt 0      ## /Users/dylan/github/ravi/src/lvm.c:116:25
	cmpl	$4, %eax
	jne	LBB18_239
Ltmp1230:
## BB#113:                              ##   in Loop: Header=BB18_106 Depth=3
	##DEBUG_VALUE: luaV_execute:L <- %R12
	##DEBUG_VALUE: luaV_execute:cl <- [%RBP+-104]
	##DEBUG_VALUE: luaV_execute:k <- [%RBP+-96]
	.loc	1 117 26 is_stmt 1      ## /Users/dylan/github/ravi/src/lvm.c:117:26
	movq	(%r13), %rdi
	addq	$24, %rdi
	leaq	-56(%rbp), %rsi
Ltmp1231:
	##DEBUG_VALUE: luaV_tointeger:v <- undef
	##DEBUG_VALUE: luaV_tointeger:v <- [%RSI+0]
	.loc	1 117 13 is_stmt 0      ## /Users/dylan/github/ravi/src/lvm.c:117:13
	callq	_luaO_str2num
	.loc	1 117 46                ## /Users/dylan/github/ravi/src/lvm.c:117:46
	movq	(%r13), %rdx
	movl	8(%rdx), %ecx
	movzbl	%cl, %esi
Ltmp1232:
	cmpl	$4, %esi
	jne	LBB18_115
Ltmp1233:
## BB#114:                              ##   in Loop: Header=BB18_106 Depth=3
	##DEBUG_VALUE: luaV_execute:L <- %R12
	##DEBUG_VALUE: luaV_execute:cl <- [%RBP+-104]
	##DEBUG_VALUE: luaV_execute:k <- [%RBP+-96]
	##DEBUG_VALUE: luaV_tointeger:v <- undef
	shrl	$24, %ecx
	jmp	LBB18_116
Ltmp1234:
	.align	4, 0x90
LBB18_115:                              ##   in Loop: Header=BB18_106 Depth=3
	##DEBUG_VALUE: luaV_execute:L <- %R12
	##DEBUG_VALUE: luaV_execute:cl <- [%RBP+-104]
	##DEBUG_VALUE: luaV_execute:k <- [%RBP+-96]
	##DEBUG_VALUE: luaV_tointeger:v <- undef
	movq	16(%rdx), %rcx
Ltmp1235:
LBB18_116:                              ##   in Loop: Header=BB18_106 Depth=3
	##DEBUG_VALUE: luaV_execute:L <- %R12
	##DEBUG_VALUE: luaV_execute:cl <- [%RBP+-104]
	##DEBUG_VALUE: luaV_execute:k <- [%RBP+-96]
	##DEBUG_VALUE: luaV_tointeger:v <- undef
	.loc	1 117 57                ## /Users/dylan/github/ravi/src/lvm.c:117:57
	incq	%rcx
Ltmp1236:
	.loc	1 116 12 is_stmt 1      ## /Users/dylan/github/ravi/src/lvm.c:116:12
	cmpq	%rcx, %rax
	je	LBB18_117
	jmp	LBB18_239
Ltmp1237:
LBB18_87:                               ##   in Loop: Header=BB18_62 Depth=2
	##DEBUG_VALUE: luaV_execute:L <- %R12
	##DEBUG_VALUE: luaV_execute:cl <- [%RBP+-104]
	##DEBUG_VALUE: luaV_execute:k <- %R10
	##DEBUG_VALUE: ukey <- %EAX
	.loc	1 1353 9                ## /Users/dylan/github/ravi/src/lvm.c:1353:9
	movl	%eax, %edx
	movsd	(%r13), %xmm0           ## xmm0 = mem[0],zero
	movq	%r12, %rdi
	movq	%r15, %rsi
	movq	%r11, %r14
	movq	%r9, %rbx
	movq	%r10, %r15
Ltmp1238:
	##DEBUG_VALUE: luaV_execute:k <- %R15
	callq	_raviH_set_float
	movq	%r15, %r10
Ltmp1239:
	##DEBUG_VALUE: luaV_execute:k <- %R10
	movq	%rbx, %r9
	movq	%r14, %r11
Ltmp1240:
	##DEBUG_VALUE: luaV_execute:pc <- %R11
	.loc	1 1354 9                ## /Users/dylan/github/ravi/src/lvm.c:1354:9
	movl	(%r11), %r13d
	addq	$4, %r11
Ltmp1241:
	movzbl	%r13b, %eax
Ltmp1242:
	##DEBUG_VALUE: op <- %EAX
	movl	%r13d, %r15d
	shrl	$8, %r15d
	andl	$127, %r15d
	shlq	$4, %r15
	addq	%r9, %r15
Ltmp1243:
	##DEBUG_VALUE: ra <- %R15
	movzbl	%r13b, %ecx
Ltmp1244:
	.loc	1 1302 5                ## /Users/dylan/github/ravi/src/lvm.c:1302:5
	leaq	_luaV_execute.dispatch_table(%rip), %r14
	movq	%r14, %r8
Ltmp1245:
	.loc	1 1354 9                ## /Users/dylan/github/ravi/src/lvm.c:1354:9
	leaq	(%r8,%rcx,8), %rcx
	jmpq	*(%rcx)
Ltmp1246:
LBB18_90:                               ##   in Loop: Header=BB18_62 Depth=2
	##DEBUG_VALUE: luaV_execute:L <- %R12
	##DEBUG_VALUE: luaV_execute:cl <- [%RBP+-104]
	##DEBUG_VALUE: luaV_execute:k <- %R10
	##DEBUG_VALUE: h <- %R15
	##DEBUG_VALUE: ukey <- %EAX
	.loc	1 1353 9                ## /Users/dylan/github/ravi/src/lvm.c:1353:9
	movl	%eax, %edx
	movq	(%r13), %rax
Ltmp1247:
	cvtsi2sdq	%rax, %xmm0
	movq	%r12, %rdi
	movq	%r15, %rsi
	movq	%r11, %r14
	movq	%r9, %rbx
	movq	%r10, %r15
Ltmp1248:
	##DEBUG_VALUE: luaV_execute:k <- %R15
	callq	_raviH_set_float
	movq	%r15, %r10
Ltmp1249:
	##DEBUG_VALUE: luaV_execute:k <- %R10
	movq	%rbx, %r9
	movq	%r14, %r11
Ltmp1250:
	##DEBUG_VALUE: luaV_execute:pc <- %R11
	.loc	1 1354 9                ## /Users/dylan/github/ravi/src/lvm.c:1354:9
	movl	(%r11), %r13d
	addq	$4, %r11
Ltmp1251:
	movzbl	%r13b, %eax
Ltmp1252:
	##DEBUG_VALUE: op <- %EAX
	movl	%r13d, %r15d
	shrl	$8, %r15d
	andl	$127, %r15d
	shlq	$4, %r15
	addq	%r9, %r15
Ltmp1253:
	##DEBUG_VALUE: ra <- %R15
	movzbl	%r13b, %ecx
Ltmp1254:
	.loc	1 1302 5                ## /Users/dylan/github/ravi/src/lvm.c:1302:5
	leaq	_luaV_execute.dispatch_table(%rip), %r14
	movq	%r14, %r8
Ltmp1255:
	.loc	1 1354 9                ## /Users/dylan/github/ravi/src/lvm.c:1354:9
	leaq	(%r8,%rcx,8), %rcx
	jmpq	*(%rcx)
Ltmp1256:
LBB18_94:                               ##   in Loop: Header=BB18_62 Depth=2
	##DEBUG_VALUE: luaV_execute:L <- [%RBP+-80]
	##DEBUG_VALUE: luaV_execute:cl <- [%RBP+-104]
	##DEBUG_VALUE: luaV_execute:k <- [%RBP+-96]
	.loc	1 84 46                 ## /Users/dylan/github/ravi/src/lvm.c:84:46
	movq	16(%rdx), %rcx
LBB18_95:                               ##   in Loop: Header=BB18_62 Depth=2
	##DEBUG_VALUE: luaV_execute:L <- [%RBP+-80]
	##DEBUG_VALUE: luaV_execute:cl <- [%RBP+-104]
	##DEBUG_VALUE: luaV_execute:k <- [%RBP+-96]
	.loc	1 84 57 is_stmt 0       ## /Users/dylan/github/ravi/src/lvm.c:84:57
	incq	%rcx
Ltmp1257:
	.loc	1 83 12 is_stmt 1       ## /Users/dylan/github/ravi/src/lvm.c:83:12
	cmpq	%rcx, %rax
	jne	LBB18_102
## BB#96:                               ##   in Loop: Header=BB18_62 Depth=2
	##DEBUG_VALUE: luaV_execute:L <- [%RBP+-80]
	##DEBUG_VALUE: luaV_execute:cl <- [%RBP+-104]
	##DEBUG_VALUE: luaV_execute:k <- [%RBP+-96]
	.loc	1 85 10                 ## /Users/dylan/github/ravi/src/lvm.c:85:10
Ltmp1258:
	cmpl	$19, -48(%rbp)
	movq	-56(%rbp), %rax
	jne	LBB18_98
## BB#97:                               ##   in Loop: Header=BB18_62 Depth=2
	##DEBUG_VALUE: luaV_execute:L <- [%RBP+-80]
	##DEBUG_VALUE: luaV_execute:cl <- [%RBP+-104]
	##DEBUG_VALUE: luaV_execute:k <- [%RBP+-96]
	cvtsi2sdq	%rax, %xmm0
	jmp	LBB18_99
LBB18_98:                               ## %select.false
                                        ##   in Loop: Header=BB18_62 Depth=2
	##DEBUG_VALUE: luaV_execute:L <- [%RBP+-80]
	##DEBUG_VALUE: luaV_execute:cl <- [%RBP+-104]
	##DEBUG_VALUE: luaV_execute:k <- [%RBP+-96]
	movd	%rax, %xmm0
Ltmp1259:
LBB18_99:                               ## %select.end
                                        ##   in Loop: Header=BB18_62 Depth=2
	##DEBUG_VALUE: luaV_execute:L <- [%RBP+-80]
	##DEBUG_VALUE: luaV_execute:cl <- [%RBP+-104]
	##DEBUG_VALUE: luaV_execute:k <- [%RBP+-96]
	.loc	1 1353 9                ## /Users/dylan/github/ravi/src/lvm.c:1353:9
	movq	(%r14), %rax
Ltmp1260:
	##DEBUG_VALUE: ukey <- %EAX
	cmpl	64(%r15), %eax
	jae	LBB18_101
Ltmp1261:
## BB#100:                              ##   in Loop: Header=BB18_62 Depth=2
	##DEBUG_VALUE: luaV_execute:L <- [%RBP+-80]
	##DEBUG_VALUE: luaV_execute:cl <- [%RBP+-104]
	##DEBUG_VALUE: luaV_execute:k <- [%RBP+-96]
	##DEBUG_VALUE: ukey <- %EAX
	movq	56(%r15), %rcx
Ltmp1262:
	##DEBUG_VALUE: data <- %RCX
	.loc	1 1353 9 is_stmt 0      ## /Users/dylan/github/ravi/src/lvm.c:1353:9
	movl	%eax, %eax
Ltmp1263:
	movsd	%xmm0, (%rcx,%rax,8)
Ltmp1264:
	##DEBUG_VALUE: luaV_execute:pc <- %RBX
	movq	%rbx, %r11
Ltmp1265:
	##DEBUG_VALUE: luaV_execute:pc <- %R11
	.loc	1 1354 9 is_stmt 1      ## /Users/dylan/github/ravi/src/lvm.c:1354:9
	movl	(%r11), %r13d
	addq	$4, %r11
Ltmp1266:
	movzbl	%r13b, %eax
Ltmp1267:
	##DEBUG_VALUE: op <- %EAX
	movl	%r13d, %r15d
	shrl	$8, %r15d
	andl	$127, %r15d
	shlq	$4, %r15
	movq	%r12, %r9
	addq	%r9, %r15
Ltmp1268:
	##DEBUG_VALUE: ra <- %R15
	movzbl	%r13b, %ecx
Ltmp1269:
	.loc	1 1302 5                ## /Users/dylan/github/ravi/src/lvm.c:1302:5
	leaq	_luaV_execute.dispatch_table(%rip), %r14
	movq	%r14, %r8
Ltmp1270:
	.loc	1 1354 9                ## /Users/dylan/github/ravi/src/lvm.c:1354:9
	leaq	(%r8,%rcx,8), %rcx
	movq	-80(%rbp), %r12         ## 8-byte Reload
Ltmp1271:
	##DEBUG_VALUE: luaV_execute:L <- %R12
	movq	-96(%rbp), %r10         ## 8-byte Reload
Ltmp1272:
	##DEBUG_VALUE: luaV_execute:k <- %R10
	jmpq	*(%rcx)
Ltmp1273:
LBB18_101:                              ##   in Loop: Header=BB18_62 Depth=2
	##DEBUG_VALUE: luaV_execute:L <- [%RBP+-80]
	##DEBUG_VALUE: luaV_execute:cl <- [%RBP+-104]
	##DEBUG_VALUE: luaV_execute:k <- [%RBP+-96]
	##DEBUG_VALUE: ukey <- %EAX
	.loc	1 1353 9                ## /Users/dylan/github/ravi/src/lvm.c:1353:9
	movl	%eax, %edx
	movq	-80(%rbp), %r14         ## 8-byte Reload
Ltmp1274:
	##DEBUG_VALUE: luaV_execute:L <- %R14
	movq	%r14, %rdi
	movq	%r15, %rsi
	callq	_raviH_set_float
Ltmp1275:
	##DEBUG_VALUE: luaV_execute:pc <- %RBX
	movq	%rbx, %r11
Ltmp1276:
	##DEBUG_VALUE: luaV_execute:pc <- %R11
	.loc	1 1354 9                ## /Users/dylan/github/ravi/src/lvm.c:1354:9
	movl	(%r11), %r13d
	addq	$4, %r11
Ltmp1277:
	movzbl	%r13b, %eax
Ltmp1278:
	##DEBUG_VALUE: op <- %EAX
	movl	%r13d, %r15d
	shrl	$8, %r15d
	andl	$127, %r15d
	shlq	$4, %r15
	movq	%r12, %r9
	movq	%r14, %r12
Ltmp1279:
	##DEBUG_VALUE: luaV_execute:L <- %R12
	addq	%r9, %r15
Ltmp1280:
	##DEBUG_VALUE: ra <- %R15
	movzbl	%r13b, %ecx
Ltmp1281:
	.loc	1 1302 5                ## /Users/dylan/github/ravi/src/lvm.c:1302:5
	leaq	_luaV_execute.dispatch_table(%rip), %r14
	movq	%r14, %r8
Ltmp1282:
	.loc	1 1354 9                ## /Users/dylan/github/ravi/src/lvm.c:1354:9
	leaq	(%r8,%rcx,8), %rcx
	movq	-96(%rbp), %r10         ## 8-byte Reload
Ltmp1283:
	##DEBUG_VALUE: luaV_execute:k <- %R10
	jmpq	*(%rcx)
Ltmp1284:
LBB18_104:                              ##   in Loop: Header=BB18_62 Depth=2
	##DEBUG_VALUE: luaV_execute:L <- %R12
	##DEBUG_VALUE: luaV_execute:cl <- [%RBP+-104]
	##DEBUG_VALUE: luaV_execute:k <- [%RBP+-96]
	##DEBUG_VALUE: h <- %RSI
	##DEBUG_VALUE: ukey <- %EAX
	.loc	1 1353 9                ## /Users/dylan/github/ravi/src/lvm.c:1353:9
	movl	%eax, %edx
	movq	(%r13), %rcx
	movq	%r12, %rdi
	movq	%r11, %r14
	movq	%r9, %rbx
	callq	_raviH_set_int
	movq	%rbx, %r9
	movq	%r14, %r11
Ltmp1285:
	##DEBUG_VALUE: luaV_execute:pc <- %R11
	.loc	1 1354 9                ## /Users/dylan/github/ravi/src/lvm.c:1354:9
	movl	(%r11), %r13d
	addq	$4, %r11
Ltmp1286:
	movzbl	%r13b, %eax
Ltmp1287:
	##DEBUG_VALUE: op <- %EAX
	movl	%r13d, %r15d
	shrl	$8, %r15d
	andl	$127, %r15d
	shlq	$4, %r15
	addq	%r9, %r15
Ltmp1288:
	##DEBUG_VALUE: ra <- %R15
	movzbl	%r13b, %ecx
Ltmp1289:
	.loc	1 1302 5                ## /Users/dylan/github/ravi/src/lvm.c:1302:5
	leaq	_luaV_execute.dispatch_table(%rip), %r14
	movq	%r14, %r8
Ltmp1290:
	.loc	1 1354 9                ## /Users/dylan/github/ravi/src/lvm.c:1354:9
	leaq	(%r8,%rcx,8), %rcx
	movq	-96(%rbp), %r10         ## 8-byte Reload
Ltmp1291:
	##DEBUG_VALUE: luaV_execute:k <- %R10
	jmpq	*(%rcx)
Ltmp1292:
LBB18_118:                              ##   in Loop: Header=BB18_62 Depth=2
	.loc	1 113 10                ## /Users/dylan/github/ravi/src/lvm.c:113:10
	movq	(%r13), %rcx
	jmp	LBB18_119
Ltmp1293:
LBB18_108:                              ##   in Loop: Header=BB18_62 Depth=2
	##DEBUG_VALUE: luaV_execute:L <- %R12
	##DEBUG_VALUE: luaV_execute:cl <- [%RBP+-104]
	##DEBUG_VALUE: luaV_execute:k <- [%RBP+-96]
	.loc	1 103 20                ## /Users/dylan/github/ravi/src/lvm.c:103:20
	movsd	(%r13), %xmm0           ## xmm0 = mem[0],zero
Ltmp1294:
	##DEBUG_VALUE: n <- %XMM0
	.loc	1 104 20                ## /Users/dylan/github/ravi/src/lvm.c:104:20
	movsd	%xmm0, -120(%rbp)       ## 8-byte Spill
Ltmp1295:
	##DEBUG_VALUE: n <- [%RBP+-120]
	callq	_floor
Ltmp1296:
	##DEBUG_VALUE: f <- %XMM0
	.loc	1 105 9                 ## /Users/dylan/github/ravi/src/lvm.c:105:9
	movsd	-120(%rbp), %xmm1       ## 8-byte Reload
                                        ## xmm1 = mem[0],zero
	ucomisd	%xmm0, %xmm1
	jne	LBB18_239
	jp	LBB18_239
Ltmp1297:
## BB#109:                              ##   in Loop: Header=BB18_62 Depth=2
	##DEBUG_VALUE: luaV_execute:L <- %R12
	##DEBUG_VALUE: luaV_execute:cl <- [%RBP+-104]
	##DEBUG_VALUE: luaV_execute:k <- [%RBP+-96]
	##DEBUG_VALUE: f <- %XMM0
	.loc	1 110 12                ## /Users/dylan/github/ravi/src/lvm.c:110:12
	ucomisd	LCPI18_0(%rip), %xmm0
	jb	LBB18_239
Ltmp1298:
## BB#110:                              ##   in Loop: Header=BB18_62 Depth=2
	##DEBUG_VALUE: luaV_execute:L <- %R12
	##DEBUG_VALUE: luaV_execute:cl <- [%RBP+-104]
	##DEBUG_VALUE: luaV_execute:k <- [%RBP+-96]
	movsd	LCPI18_1(%rip), %xmm1   ## xmm1 = mem[0],zero
	ucomisd	%xmm0, %xmm1
	jbe	LBB18_239
Ltmp1299:
## BB#111:                              ##   in Loop: Header=BB18_62 Depth=2
	##DEBUG_VALUE: luaV_execute:L <- %R12
	##DEBUG_VALUE: luaV_execute:cl <- [%RBP+-104]
	##DEBUG_VALUE: luaV_execute:k <- [%RBP+-96]
	cvttsd2si	%xmm0, %rcx
Ltmp1300:
LBB18_119:                              ##   in Loop: Header=BB18_62 Depth=2
	##DEBUG_VALUE: luaV_execute:L <- %R12
	##DEBUG_VALUE: luaV_execute:cl <- [%RBP+-104]
	##DEBUG_VALUE: luaV_execute:k <- [%RBP+-96]
	##DEBUG_VALUE: i <- 0
	.loc	1 1353 9                ## /Users/dylan/github/ravi/src/lvm.c:1353:9
	movq	(%r14), %rax
Ltmp1301:
	##DEBUG_VALUE: ukey <- %EAX
	movq	-112(%rbp), %rsi        ## 8-byte Reload
	cmpl	64(%rsi), %eax
	jae	LBB18_121
Ltmp1302:
## BB#120:                              ##   in Loop: Header=BB18_62 Depth=2
	##DEBUG_VALUE: luaV_execute:L <- %R12
	##DEBUG_VALUE: luaV_execute:cl <- [%RBP+-104]
