
CMakeFiles/libravinojit_static.dir/src/lvm.c.o:     file format elf64-x86-64


Disassembly of section .text:

0000000000000000 <getcached>:
** check whether cached closure in prototype 'p' may be reused, that is,
** whether there is a cached closure with the same upvalues needed by
** new closure to be created.
*/
static LClosure *getcached (Proto *p, UpVal **encup, StkId base) {
  LClosure *c = p->cache;
       0:	48 8b 47 60          	mov    rax,QWORD PTR [rdi+0x60]
  if (c != NULL) {  /* is there a cached closure? */
       4:	48 85 c0             	test   rax,rax
       7:	74 5d                	je     66 <getcached+0x66>
    int nup = p->sizeupvalues;
       9:	8b 4f 10             	mov    ecx,DWORD PTR [rdi+0x10]
    Upvaldesc *uv = p->upvalues;
       c:	48 8b 7f 58          	mov    rdi,QWORD PTR [rdi+0x58]
    int i;
    for (i = 0; i < nup; i++) {  /* check whether it has right upvalues */
      10:	85 c9                	test   ecx,ecx
      12:	7e 52                	jle    66 <getcached+0x66>
      14:	83 e9 01             	sub    ecx,0x1
      17:	48 83 c7 11          	add    rdi,0x11
      1b:	4c 8d 40 20          	lea    r8,[rax+0x20]
      1f:	4c 8d 54 c8 28       	lea    r10,[rax+rcx*8+0x28]
      24:	eb 26                	jmp    4c <getcached+0x4c>
      26:	66 2e 0f 1f 84 00 00 	nop    WORD PTR cs:[rax+rax*1+0x0]
      2d:	00 00 00 
      TValue *v = uv[i].instack ? base + uv[i].idx : encup[uv[i].idx]->v;
      if (c->upvals[i]->v != v)
      30:	4d 8b 08             	mov    r9,QWORD PTR [r8]
      TValue *v = uv[i].instack ? base + uv[i].idx : encup[uv[i].idx]->v;
      33:	48 c1 e1 04          	shl    rcx,0x4
      37:	48 01 d1             	add    rcx,rdx
      if (c->upvals[i]->v != v)
      3a:	49 39 09             	cmp    QWORD PTR [r9],rcx
      3d:	75 25                	jne    64 <getcached+0x64>
      3f:	49 83 c0 08          	add    r8,0x8
      43:	48 83 c7 18          	add    rdi,0x18
    for (i = 0; i < nup; i++) {  /* check whether it has right upvalues */
      47:	4d 39 d0             	cmp    r8,r10
      4a:	74 24                	je     70 <getcached+0x70>
      TValue *v = uv[i].instack ? base + uv[i].idx : encup[uv[i].idx]->v;
      4c:	80 3f 00             	cmp    BYTE PTR [rdi],0x0
      4f:	0f b6 4f 01          	movzx  ecx,BYTE PTR [rdi+0x1]
      53:	75 db                	jne    30 <getcached+0x30>
      55:	48 8b 0c ce          	mov    rcx,QWORD PTR [rsi+rcx*8]
      if (c->upvals[i]->v != v)
      59:	4d 8b 08             	mov    r9,QWORD PTR [r8]
      TValue *v = uv[i].instack ? base + uv[i].idx : encup[uv[i].idx]->v;
      5c:	48 8b 09             	mov    rcx,QWORD PTR [rcx]
      if (c->upvals[i]->v != v)
      5f:	49 39 09             	cmp    QWORD PTR [r9],rcx
      62:	74 db                	je     3f <getcached+0x3f>
      64:	31 c0                	xor    eax,eax
        return NULL;  /* wrong upvalue; cannot reuse closure */
    }
  }
  return c;  /* return cached closure (or NULL if no cached closure) */
}
      66:	c3                   	ret    
      67:	66 0f 1f 84 00 00 00 	nop    WORD PTR [rax+rax*1+0x0]
      6e:	00 00 
      70:	c3                   	ret    
      71:	66 66 2e 0f 1f 84 00 	data16 nop WORD PTR cs:[rax+rax*1+0x0]
      78:	00 00 00 00 
      7c:	0f 1f 40 00          	nop    DWORD PTR [rax+0x0]

0000000000000080 <l_strcmp>:
static int l_strcmp (const TString *ls, const TString *rs) {
      80:	41 55                	push   r13
      82:	41 54                	push   r12
      84:	55                   	push   rbp
      85:	53                   	push   rbx
  const char *l = getstr(ls);
      86:	48 8d 5f 18          	lea    rbx,[rdi+0x18]
static int l_strcmp (const TString *ls, const TString *rs) {
      8a:	48 83 ec 08          	sub    rsp,0x8
  size_t ll = tsslen(ls);
      8e:	80 7f 08 04          	cmp    BYTE PTR [rdi+0x8],0x4
      92:	74 5c                	je     f0 <l_strcmp+0x70>
  size_t lr = tsslen(rs);
      94:	80 7e 08 04          	cmp    BYTE PTR [rsi+0x8],0x4
  size_t ll = tsslen(ls);
      98:	4c 8b 6f 10          	mov    r13,QWORD PTR [rdi+0x10]
  const char *r = getstr(rs);
      9c:	48 8d 6e 18          	lea    rbp,[rsi+0x18]
  size_t lr = tsslen(rs);
      a0:	74 5d                	je     ff <l_strcmp+0x7f>
      a2:	4c 8b 66 10          	mov    r12,QWORD PTR [rsi+0x10]
      a6:	eb 2a                	jmp    d2 <l_strcmp+0x52>
      a8:	0f 1f 84 00 00 00 00 	nop    DWORD PTR [rax+rax*1+0x0]
      af:	00 
      size_t len = strlen(l);  /* index of first '\0' in both strings */
      b0:	48 89 df             	mov    rdi,rbx
      b3:	e8 00 00 00 00       	call   b8 <l_strcmp+0x38>
      if (len == lr)  /* 'rs' is finished? */
      b8:	49 39 c4             	cmp    r12,rax
      bb:	74 53                	je     110 <l_strcmp+0x90>
      else if (len == ll)  /* 'ls' is finished? */
      bd:	49 39 c5             	cmp    r13,rax
      c0:	74 66                	je     128 <l_strcmp+0xa8>
      len++;
      c2:	48 83 c0 01          	add    rax,0x1
      l += len; ll -= len; r += len; lr -= len;
      c6:	48 01 c3             	add    rbx,rax
      c9:	49 29 c5             	sub    r13,rax
      cc:	48 01 c5             	add    rbp,rax
      cf:	49 29 c4             	sub    r12,rax
    int temp = strcoll(l, r);
      d2:	48 89 ee             	mov    rsi,rbp
      d5:	48 89 df             	mov    rdi,rbx
      d8:	e8 00 00 00 00       	call   dd <l_strcmp+0x5d>
    if (temp != 0)  /* not equal? */
      dd:	85 c0                	test   eax,eax
      df:	74 cf                	je     b0 <l_strcmp+0x30>
}
      e1:	48 83 c4 08          	add    rsp,0x8
      e5:	5b                   	pop    rbx
      e6:	5d                   	pop    rbp
      e7:	41 5c                	pop    r12
      e9:	41 5d                	pop    r13
      eb:	c3                   	ret    
      ec:	0f 1f 40 00          	nop    DWORD PTR [rax+0x0]
  size_t lr = tsslen(rs);
      f0:	80 7e 08 04          	cmp    BYTE PTR [rsi+0x8],0x4
  size_t ll = tsslen(ls);
      f4:	44 0f b6 6f 0b       	movzx  r13d,BYTE PTR [rdi+0xb]
  const char *r = getstr(rs);
      f9:	48 8d 6e 18          	lea    rbp,[rsi+0x18]
  size_t lr = tsslen(rs);
      fd:	75 a3                	jne    a2 <l_strcmp+0x22>
      ff:	44 0f b6 66 0b       	movzx  r12d,BYTE PTR [rsi+0xb]
     104:	eb cc                	jmp    d2 <l_strcmp+0x52>
     106:	66 2e 0f 1f 84 00 00 	nop    WORD PTR cs:[rax+rax*1+0x0]
     10d:	00 00 00 
        return (len == ll) ? 0 : 1;  /* check 'ls' */
     110:	31 c0                	xor    eax,eax
     112:	4d 39 e5             	cmp    r13,r12
     115:	0f 95 c0             	setne  al
}
     118:	48 83 c4 08          	add    rsp,0x8
     11c:	5b                   	pop    rbx
     11d:	5d                   	pop    rbp
     11e:	41 5c                	pop    r12
     120:	41 5d                	pop    r13
     122:	c3                   	ret    
     123:	0f 1f 44 00 00       	nop    DWORD PTR [rax+rax*1+0x0]
     128:	48 83 c4 08          	add    rsp,0x8
        return -1;  /* 'ls' is smaller than 'rs' ('rs' is not finished) */
     12c:	b8 ff ff ff ff       	mov    eax,0xffffffff
}
     131:	5b                   	pop    rbx
     132:	5d                   	pop    rbp
     133:	41 5c                	pop    r12
     135:	41 5d                	pop    r13
     137:	c3                   	ret    
     138:	0f 1f 84 00 00 00 00 	nop    DWORD PTR [rax+rax*1+0x0]
     13f:	00 

0000000000000140 <copy2buff>:
static void copy2buff (StkId top, int n, char *buff) {
     140:	41 56                	push   r14
     142:	41 55                	push   r13
     144:	49 89 d5             	mov    r13,rdx
     147:	48 63 d6             	movsxd rdx,esi
     14a:	48 89 d0             	mov    rax,rdx
     14d:	41 54                	push   r12
     14f:	48 c1 e0 04          	shl    rax,0x4
     153:	55                   	push   rbp
  size_t tl = 0;  /* size already copied */
     154:	31 ed                	xor    ebp,ebp
static void copy2buff (StkId top, int n, char *buff) {
     156:	53                   	push   rbx
     157:	48 89 fb             	mov    rbx,rdi
     15a:	48 29 c3             	sub    rbx,rax
     15d:	8d 46 ff             	lea    eax,[rsi-0x1]
     160:	48 29 d0             	sub    rax,rdx
     163:	48 c1 e0 04          	shl    rax,0x4
     167:	4c 8d 64 07 10       	lea    r12,[rdi+rax*1+0x10]
     16c:	eb 23                	jmp    191 <copy2buff+0x51>
     16e:	66 90                	xchg   ax,ax
    size_t l = vslen(top - n);  /* length of string being copied */
     170:	4c 8b 76 10          	mov    r14,QWORD PTR [rsi+0x10]
    memcpy(buff + tl, svalue(top - n), l * sizeof(char));
     174:	49 8d 7c 2d 00       	lea    rdi,[r13+rbp*1+0x0]

__fortify_function void *
__NTH (memcpy (void *__restrict __dest, const void *__restrict __src,
	       size_t __len))
{
  return __builtin___memcpy_chk (__dest, __src, __len, __bos0 (__dest));
     179:	48 83 c6 18          	add    rsi,0x18
     17d:	4c 89 f2             	mov    rdx,r14
     180:	48 83 c3 10          	add    rbx,0x10
     184:	e8 00 00 00 00       	call   189 <copy2buff+0x49>
    tl += l;
     189:	4c 01 f5             	add    rbp,r14
  } while (--n > 0);
     18c:	4c 39 e3             	cmp    rbx,r12
     18f:	74 17                	je     1a8 <copy2buff+0x68>
    size_t l = vslen(top - n);  /* length of string being copied */
     191:	48 8b 33             	mov    rsi,QWORD PTR [rbx]
     194:	80 7e 08 04          	cmp    BYTE PTR [rsi+0x8],0x4
     198:	75 d6                	jne    170 <copy2buff+0x30>
     19a:	44 0f b6 76 0b       	movzx  r14d,BYTE PTR [rsi+0xb]
     19f:	eb d3                	jmp    174 <copy2buff+0x34>
     1a1:	0f 1f 80 00 00 00 00 	nop    DWORD PTR [rax+0x0]
}
     1a8:	5b                   	pop    rbx
     1a9:	5d                   	pop    rbp
     1aa:	41 5c                	pop    r12
     1ac:	41 5d                	pop    r13
     1ae:	41 5e                	pop    r14
     1b0:	c3                   	ret    
     1b1:	66 66 2e 0f 1f 84 00 	data16 nop WORD PTR cs:[rax+rax*1+0x0]
     1b8:	00 00 00 00 
     1bc:	0f 1f 40 00          	nop    DWORD PTR [rax+0x0]

00000000000001c0 <pushclosure.isra.6>:
** create a new Lua closure, push it in the stack, and initialize
** its upvalues. Note that the closure is not cached if prototype is
** already black (which means that 'cache' was already cleared by the
** GC).
*/
static void pushclosure (lua_State *L, Proto *p, UpVal **encup, StkId base,
     1c0:	41 57                	push   r15
     1c2:	41 56                	push   r14
     1c4:	4d 89 ce             	mov    r14,r9
     1c7:	41 55                	push   r13
     1c9:	41 54                	push   r12
     1cb:	49 89 f4             	mov    r12,rsi
     1ce:	55                   	push   rbp
     1cf:	48 89 d5             	mov    rbp,rdx
     1d2:	53                   	push   rbx
     1d3:	48 83 ec 28          	sub    rsp,0x28
                         StkId ra) {
  int nup = p->sizeupvalues;
     1d7:	44 8b 7e 10          	mov    r15d,DWORD PTR [rsi+0x10]
  Upvaldesc *uv = p->upvalues;
     1db:	48 8b 5e 58          	mov    rbx,QWORD PTR [rsi+0x58]
static void pushclosure (lua_State *L, Proto *p, UpVal **encup, StkId base,
     1df:	4c 89 44 24 18       	mov    QWORD PTR [rsp+0x18],r8
  int i;
  LClosure *ncl = luaF_newLclosure(L, nup);
     1e4:	44 89 fe             	mov    esi,r15d
static void pushclosure (lua_State *L, Proto *p, UpVal **encup, StkId base,
     1e7:	48 89 7c 24 08       	mov    QWORD PTR [rsp+0x8],rdi
     1ec:	48 89 4c 24 10       	mov    QWORD PTR [rsp+0x10],rcx
  LClosure *ncl = luaF_newLclosure(L, nup);
     1f1:	e8 00 00 00 00       	call   1f6 <pushclosure.isra.6+0x36>
  ncl->p = p;
  setclLvalue(L, ra, ncl);  /* anchor new closure in stack */
     1f6:	4c 8b 44 24 18       	mov    r8,QWORD PTR [rsp+0x18]
  ncl->p = p;
     1fb:	4c 89 60 18          	mov    QWORD PTR [rax+0x18],r12
  LClosure *ncl = luaF_newLclosure(L, nup);
     1ff:	49 89 c5             	mov    r13,rax
  setclLvalue(L, ra, ncl);  /* anchor new closure in stack */
     202:	49 89 00             	mov    QWORD PTR [r8],rax
     205:	b8 06 80 ff ff       	mov    eax,0xffff8006
     20a:	66 41 89 06          	mov    WORD PTR [r14],ax
  for (i = 0; i < nup; i++) {  /* fill in its upvalues */
     20e:	45 85 ff             	test   r15d,r15d
     211:	7e 5d                	jle    270 <pushclosure.isra.6+0xb0>
     213:	41 8d 47 ff          	lea    eax,[r15-0x1]
     217:	4d 8d 75 20          	lea    r14,[r13+0x20]
     21b:	48 83 c3 12          	add    rbx,0x12
     21f:	4d 8d 7c c5 28       	lea    r15,[r13+rax*8+0x28]
     224:	eb 24                	jmp    24a <pushclosure.isra.6+0x8a>
     226:	66 2e 0f 1f 84 00 00 	nop    WORD PTR cs:[rax+rax*1+0x0]
     22d:	00 00 00 
    if (uv[i].instack)  /* upvalue refers to local variable? */
      ncl->upvals[i] = luaF_findupval(L, base + uv[i].idx);
    else  /* get upvalue from enclosing function */
      ncl->upvals[i] = encup[uv[i].idx];
     230:	48 8b 44 f5 00       	mov    rax,QWORD PTR [rbp+rsi*8+0x0]
     235:	49 89 06             	mov    QWORD PTR [r14],rax
    ncl->upvals[i]->refcount++;
     238:	49 83 c6 08          	add    r14,0x8
     23c:	48 83 40 08 01       	add    QWORD PTR [rax+0x8],0x1
     241:	48 83 c3 18          	add    rbx,0x18
  for (i = 0; i < nup; i++) {  /* fill in its upvalues */
     245:	4d 39 fe             	cmp    r14,r15
     248:	74 26                	je     270 <pushclosure.isra.6+0xb0>
    if (uv[i].instack)  /* upvalue refers to local variable? */
     24a:	80 7b ff 00          	cmp    BYTE PTR [rbx-0x1],0x0
     24e:	0f b6 33             	movzx  esi,BYTE PTR [rbx]
     251:	74 dd                	je     230 <pushclosure.isra.6+0x70>
      ncl->upvals[i] = luaF_findupval(L, base + uv[i].idx);
     253:	48 8b 7c 24 08       	mov    rdi,QWORD PTR [rsp+0x8]
     258:	48 c1 e6 04          	shl    rsi,0x4
     25c:	48 03 74 24 10       	add    rsi,QWORD PTR [rsp+0x10]
     261:	e8 00 00 00 00       	call   266 <pushclosure.isra.6+0xa6>
     266:	49 89 06             	mov    QWORD PTR [r14],rax
     269:	eb cd                	jmp    238 <pushclosure.isra.6+0x78>
     26b:	0f 1f 44 00 00       	nop    DWORD PTR [rax+rax*1+0x0]
    /* new closure is white, so we do not need a barrier here */
  }
  if (!isblack(p))  /* cache will not break GC invariant? */
     270:	41 f6 44 24 09 04    	test   BYTE PTR [r12+0x9],0x4
     276:	75 05                	jne    27d <pushclosure.isra.6+0xbd>
    p->cache = ncl;  /* save it on cache for reuse */
     278:	4d 89 6c 24 60       	mov    QWORD PTR [r12+0x60],r13
}
     27d:	48 83 c4 28          	add    rsp,0x28
     281:	5b                   	pop    rbx
     282:	5d                   	pop    rbp
     283:	41 5c                	pop    r12
     285:	41 5d                	pop    r13
     287:	41 5e                	pop    r14
     289:	41 5f                	pop    r15
     28b:	c3                   	ret    
     28c:	0f 1f 40 00          	nop    DWORD PTR [rax+0x0]

0000000000000290 <luaV_flttointeger.part.7>:
    lua_Number n = fltvalue(obj);
     290:	f2 0f 10 0f          	movsd  xmm1,QWORD PTR [rdi]
    lua_Number f = l_floor(n);
     294:	f2 0f 10 1d 00 00 00 	movsd  xmm3,QWORD PTR [rip+0x0]        # 29c <luaV_flttointeger.part.7+0xc>
     29b:	00 
     29c:	f2 0f 10 25 00 00 00 	movsd  xmm4,QWORD PTR [rip+0x0]        # 2a4 <luaV_flttointeger.part.7+0x14>
     2a3:	00 
     2a4:	66 0f 28 d1          	movapd xmm2,xmm1
     2a8:	66 0f 28 c1          	movapd xmm0,xmm1
     2ac:	66 0f 54 d3          	andpd  xmm2,xmm3
     2b0:	66 0f 2e e2          	ucomisd xmm4,xmm2
     2b4:	76 33                	jbe    2e9 <luaV_flttointeger.part.7+0x59>
     2b6:	f2 48 0f 2c c1       	cvttsd2si rax,xmm1
     2bb:	66 0f ef d2          	pxor   xmm2,xmm2
     2bf:	f2 0f 10 25 00 00 00 	movsd  xmm4,QWORD PTR [rip+0x0]        # 2c7 <luaV_flttointeger.part.7+0x37>
     2c6:	00 
     2c7:	66 0f 55 d9          	andnpd xmm3,xmm1
     2cb:	f2 48 0f 2a d0       	cvtsi2sd xmm2,rax
     2d0:	66 0f 28 c2          	movapd xmm0,xmm2
     2d4:	f2 0f c2 c1 06       	cmpnlesd xmm0,xmm1
     2d9:	66 0f 54 c4          	andpd  xmm0,xmm4
     2dd:	f2 0f 5c d0          	subsd  xmm2,xmm0
     2e1:	66 0f 28 c2          	movapd xmm0,xmm2
     2e5:	66 0f 56 c3          	orpd   xmm0,xmm3
    if (n != f) {  /* not an integral value? */
     2e9:	66 0f 2e c8          	ucomisd xmm1,xmm0
     2ed:	7a 02                	jp     2f1 <luaV_flttointeger.part.7+0x61>
     2ef:	74 1c                	je     30d <luaV_flttointeger.part.7+0x7d>
      if (mode == 0) return 0;  /* fails if mode demands integral value */
     2f1:	31 c0                	xor    eax,eax
     2f3:	85 d2                	test   edx,edx
     2f5:	75 09                	jne    300 <luaV_flttointeger.part.7+0x70>
}
     2f7:	c3                   	ret    
     2f8:	0f 1f 84 00 00 00 00 	nop    DWORD PTR [rax+rax*1+0x0]
     2ff:	00 
      else if (mode > 1)  /* needs ceil? */
     300:	83 fa 01             	cmp    edx,0x1
     303:	7e 08                	jle    30d <luaV_flttointeger.part.7+0x7d>
        f += 1;  /* convert floor to ceil (remember: n != f) */
     305:	f2 0f 58 05 00 00 00 	addsd  xmm0,QWORD PTR [rip+0x0]        # 30d <luaV_flttointeger.part.7+0x7d>
     30c:	00 
    return lua_numbertointeger(f, p);
     30d:	66 0f 2f 05 00 00 00 	comisd xmm0,QWORD PTR [rip+0x0]        # 315 <luaV_flttointeger.part.7+0x85>
     314:	00 
     315:	72 21                	jb     338 <luaV_flttointeger.part.7+0xa8>
     317:	f2 0f 10 0d 00 00 00 	movsd  xmm1,QWORD PTR [rip+0x0]        # 31f <luaV_flttointeger.part.7+0x8f>
     31e:	00 
     31f:	66 0f 2f c8          	comisd xmm1,xmm0
     323:	76 1b                	jbe    340 <luaV_flttointeger.part.7+0xb0>
     325:	f2 48 0f 2c c0       	cvttsd2si rax,xmm0
     32a:	48 89 06             	mov    QWORD PTR [rsi],rax
     32d:	b8 01 00 00 00       	mov    eax,0x1
     332:	c3                   	ret    
     333:	0f 1f 44 00 00       	nop    DWORD PTR [rax+rax*1+0x0]
      if (mode == 0) return 0;  /* fails if mode demands integral value */
     338:	31 c0                	xor    eax,eax
     33a:	c3                   	ret    
     33b:	0f 1f 44 00 00       	nop    DWORD PTR [rax+rax*1+0x0]
     340:	31 c0                	xor    eax,eax
}
     342:	c3                   	ret    
     343:	66 66 2e 0f 1f 84 00 	data16 nop WORD PTR cs:[rax+rax*1+0x0]
     34a:	00 00 00 00 
     34e:	66 90                	xchg   ax,ax

0000000000000350 <LEnum.isra.4>:
  if (ttisinteger(l)) {
     350:	66 83 fe 13          	cmp    si,0x13
     354:	74 72                	je     3c8 <LEnum.isra.4+0x78>
    lua_Number lf = fltvalue(l);  /* 'l' must be float */
     356:	48 89 7c 24 f8       	mov    QWORD PTR [rsp-0x8],rdi
     35b:	f2 0f 10 44 24 f8    	movsd  xmm0,QWORD PTR [rsp-0x8]
    if (ttisfloat(r))
     361:	66 83 f9 03          	cmp    cx,0x3
     365:	0f 84 ed 00 00 00    	je     458 <LEnum.isra.4+0x108>
    else if (luai_numisnan(lf))  /* 'r' is int and 'l' is float */
     36b:	66 0f 2e c0          	ucomisd xmm0,xmm0
     36f:	7a 4f                	jp     3c0 <LEnum.isra.4+0x70>
     371:	75 4d                	jne    3c0 <LEnum.isra.4+0x70>
  if (!l_intfitsf(i)) {
     373:	48 b8 00 00 00 00 00 	movabs rax,0x20000000000000
     37a:	00 20 00 
     37d:	48 b9 00 00 00 00 00 	movabs rcx,0x40000000000000
     384:	00 40 00 
     387:	48 01 d0             	add    rax,rdx
     38a:	48 39 c8             	cmp    rax,rcx
     38d:	0f 86 95 00 00 00    	jbe    428 <LEnum.isra.4+0xd8>
    if (f >= -cast_num(LUA_MININTEGER))  /* -minint == maxint + 1 */
     393:	31 c0                	xor    eax,eax
     395:	66 0f 2f 05 00 00 00 	comisd xmm0,QWORD PTR [rip+0x0]        # 39d <LEnum.isra.4+0x4d>
     39c:	00 
     39d:	73 23                	jae    3c2 <LEnum.isra.4+0x72>
    else if (f > cast_num(LUA_MININTEGER))  /* minint < f <= maxint ? */
     39f:	66 0f 2f 05 00 00 00 	comisd xmm0,QWORD PTR [rip+0x0]        # 3a7 <LEnum.isra.4+0x57>
     3a6:	00 
     3a7:	0f 86 d3 00 00 00    	jbe    480 <LEnum.isra.4+0x130>
      return (i < cast(lua_Integer, f));  /* compare them as integers */
     3ad:	f2 48 0f 2c c0       	cvttsd2si rax,xmm0
     3b2:	48 39 c2             	cmp    rdx,rax
     3b5:	0f 9d c0             	setge  al
     3b8:	0f b6 c0             	movzx  eax,al
     3bb:	c3                   	ret    
     3bc:	0f 1f 40 00          	nop    DWORD PTR [rax+0x0]
      return 0;
     3c0:	31 c0                	xor    eax,eax
}
     3c2:	c3                   	ret    
     3c3:	0f 1f 44 00 00       	nop    DWORD PTR [rax+rax*1+0x0]
    if (ttisinteger(r))
     3c8:	66 83 f9 13          	cmp    cx,0x13
     3cc:	0f 84 9e 00 00 00    	je     470 <LEnum.isra.4+0x120>
  if (!l_intfitsf(i)) {
     3d2:	48 b8 00 00 00 00 00 	movabs rax,0x20000000000000
     3d9:	00 20 00 
      return LEintfloat(li, fltvalue(r));  /* l <= r ? */
     3dc:	48 89 54 24 f8       	mov    QWORD PTR [rsp-0x8],rdx
  if (!l_intfitsf(i)) {
     3e1:	48 ba 00 00 00 00 00 	movabs rdx,0x40000000000000
     3e8:	00 40 00 
      return LEintfloat(li, fltvalue(r));  /* l <= r ? */
     3eb:	f2 0f 10 4c 24 f8    	movsd  xmm1,QWORD PTR [rsp-0x8]
  if (!l_intfitsf(i)) {
     3f1:	48 01 f8             	add    rax,rdi
     3f4:	48 39 d0             	cmp    rax,rdx
     3f7:	76 47                	jbe    440 <LEnum.isra.4+0xf0>
    if (f >= -cast_num(LUA_MININTEGER))  /* -minint == maxint + 1 */
     3f9:	66 0f 2f 0d 00 00 00 	comisd xmm1,QWORD PTR [rip+0x0]        # 401 <LEnum.isra.4+0xb1>
     400:	00 
      return 1;  /* f >= maxint + 1 > i */
     401:	b8 01 00 00 00       	mov    eax,0x1
    if (f >= -cast_num(LUA_MININTEGER))  /* -minint == maxint + 1 */
     406:	73 ba                	jae    3c2 <LEnum.isra.4+0x72>
    else if (f >= cast_num(LUA_MININTEGER))  /* minint <= f <= maxint ? */
     408:	66 0f 2f 0d 00 00 00 	comisd xmm1,QWORD PTR [rip+0x0]        # 410 <LEnum.isra.4+0xc0>
     40f:	00 
     410:	72 7e                	jb     490 <LEnum.isra.4+0x140>
      return (i <= cast(lua_Integer, f));  /* compare them as integers */
     412:	f2 48 0f 2c c1       	cvttsd2si rax,xmm1
     417:	48 39 c7             	cmp    rdi,rax
     41a:	0f 9e c0             	setle  al
     41d:	0f b6 c0             	movzx  eax,al
     420:	c3                   	ret    
     421:	0f 1f 80 00 00 00 00 	nop    DWORD PTR [rax+0x0]
  return luai_numlt(cast_num(i), f);  /* compare them as floats */
     428:	66 0f ef c9          	pxor   xmm1,xmm1
     42c:	31 c0                	xor    eax,eax
     42e:	f2 48 0f 2a ca       	cvtsi2sd xmm1,rdx
     433:	66 0f 2f c1          	comisd xmm0,xmm1
     437:	0f 96 c0             	setbe  al
     43a:	c3                   	ret    
     43b:	0f 1f 44 00 00       	nop    DWORD PTR [rax+rax*1+0x0]
  return luai_numle(cast_num(i), f);  /* compare them as floats */
     440:	66 0f ef c0          	pxor   xmm0,xmm0
     444:	31 c0                	xor    eax,eax
     446:	f2 48 0f 2a c7       	cvtsi2sd xmm0,rdi
     44b:	66 0f 2f c8          	comisd xmm1,xmm0
     44f:	0f 93 c0             	setae  al
     452:	c3                   	ret    
     453:	0f 1f 44 00 00       	nop    DWORD PTR [rax+rax*1+0x0]
      return luai_numle(lf, fltvalue(r));  /* both are float */
     458:	48 89 54 24 f8       	mov    QWORD PTR [rsp-0x8],rdx
     45d:	f2 0f 10 4c 24 f8    	movsd  xmm1,QWORD PTR [rsp-0x8]
     463:	31 c0                	xor    eax,eax
     465:	66 0f 2f c8          	comisd xmm1,xmm0
     469:	0f 93 c0             	setae  al
     46c:	c3                   	ret    
     46d:	0f 1f 00             	nop    DWORD PTR [rax]
      return li <= ivalue(r);  /* both are integers */
     470:	31 c0                	xor    eax,eax
     472:	48 39 d7             	cmp    rdi,rdx
     475:	0f 9e c0             	setle  al
     478:	c3                   	ret    
     479:	0f 1f 80 00 00 00 00 	nop    DWORD PTR [rax+0x0]
    else if (f > cast_num(LUA_MININTEGER))  /* minint < f <= maxint ? */
     480:	b8 01 00 00 00       	mov    eax,0x1
     485:	c3                   	ret    
     486:	66 2e 0f 1f 84 00 00 	nop    WORD PTR cs:[rax+rax*1+0x0]
     48d:	00 00 00 
      return 0;
     490:	31 c0                	xor    eax,eax
     492:	c3                   	ret    
     493:	66 66 2e 0f 1f 84 00 	data16 nop WORD PTR cs:[rax+rax*1+0x0]
     49a:	00 00 00 00 
     49e:	66 90                	xchg   ax,ax

00000000000004a0 <LTnum.isra.2>:
  if (ttisinteger(l)) {
     4a0:	66 83 fe 13          	cmp    si,0x13
     4a4:	74 72                	je     518 <LTnum.isra.2+0x78>
    lua_Number lf = fltvalue(l);  /* 'l' must be float */
     4a6:	48 89 7c 24 f8       	mov    QWORD PTR [rsp-0x8],rdi
     4ab:	f2 0f 10 44 24 f8    	movsd  xmm0,QWORD PTR [rsp-0x8]
    if (ttisfloat(r))
     4b1:	66 83 f9 03          	cmp    cx,0x3
     4b5:	0f 84 ed 00 00 00    	je     5a8 <LTnum.isra.2+0x108>
    else if (luai_numisnan(lf))  /* 'r' is int and 'l' is float */
     4bb:	66 0f 2e c0          	ucomisd xmm0,xmm0
     4bf:	7a 4f                	jp     510 <LTnum.isra.2+0x70>
     4c1:	75 4d                	jne    510 <LTnum.isra.2+0x70>
  if (!l_intfitsf(i)) {
     4c3:	48 b8 00 00 00 00 00 	movabs rax,0x20000000000000
     4ca:	00 20 00 
     4cd:	48 b9 00 00 00 00 00 	movabs rcx,0x40000000000000
     4d4:	00 40 00 
     4d7:	48 01 d0             	add    rax,rdx
     4da:	48 39 c8             	cmp    rax,rcx
     4dd:	0f 86 95 00 00 00    	jbe    578 <LTnum.isra.2+0xd8>
    if (f >= -cast_num(LUA_MININTEGER))  /* -minint == maxint + 1 */
     4e3:	31 c0                	xor    eax,eax
     4e5:	66 0f 2f 05 00 00 00 	comisd xmm0,QWORD PTR [rip+0x0]        # 4ed <LTnum.isra.2+0x4d>
     4ec:	00 
     4ed:	73 23                	jae    512 <LTnum.isra.2+0x72>
    else if (f >= cast_num(LUA_MININTEGER))  /* minint <= f <= maxint ? */
     4ef:	66 0f 2f 05 00 00 00 	comisd xmm0,QWORD PTR [rip+0x0]        # 4f7 <LTnum.isra.2+0x57>
     4f6:	00 
     4f7:	0f 82 d3 00 00 00    	jb     5d0 <LTnum.isra.2+0x130>
      return (i <= cast(lua_Integer, f));  /* compare them as integers */
     4fd:	f2 48 0f 2c c0       	cvttsd2si rax,xmm0
     502:	48 39 c2             	cmp    rdx,rax
     505:	0f 9f c0             	setg   al
     508:	0f b6 c0             	movzx  eax,al
     50b:	c3                   	ret    
     50c:	0f 1f 40 00          	nop    DWORD PTR [rax+0x0]
      return 0;
     510:	31 c0                	xor    eax,eax
}
     512:	c3                   	ret    
     513:	0f 1f 44 00 00       	nop    DWORD PTR [rax+rax*1+0x0]
    if (ttisinteger(r))
     518:	66 83 f9 13          	cmp    cx,0x13
     51c:	0f 84 9e 00 00 00    	je     5c0 <LTnum.isra.2+0x120>
  if (!l_intfitsf(i)) {
     522:	48 b8 00 00 00 00 00 	movabs rax,0x20000000000000
     529:	00 20 00 
      return LTintfloat(li, fltvalue(r));  /* l < r ? */
     52c:	48 89 54 24 f8       	mov    QWORD PTR [rsp-0x8],rdx
  if (!l_intfitsf(i)) {
     531:	48 ba 00 00 00 00 00 	movabs rdx,0x40000000000000
     538:	00 40 00 
      return LTintfloat(li, fltvalue(r));  /* l < r ? */
     53b:	f2 0f 10 4c 24 f8    	movsd  xmm1,QWORD PTR [rsp-0x8]
  if (!l_intfitsf(i)) {
     541:	48 01 f8             	add    rax,rdi
     544:	48 39 d0             	cmp    rax,rdx
     547:	76 47                	jbe    590 <LTnum.isra.2+0xf0>
    if (f >= -cast_num(LUA_MININTEGER))  /* -minint == maxint + 1 */
     549:	66 0f 2f 0d 00 00 00 	comisd xmm1,QWORD PTR [rip+0x0]        # 551 <LTnum.isra.2+0xb1>
     550:	00 
      return 1;  /* f >= maxint + 1 > i */
     551:	b8 01 00 00 00       	mov    eax,0x1
    if (f >= -cast_num(LUA_MININTEGER))  /* -minint == maxint + 1 */
     556:	73 ba                	jae    512 <LTnum.isra.2+0x72>
    else if (f > cast_num(LUA_MININTEGER))  /* minint < f <= maxint ? */
     558:	66 0f 2f 0d 00 00 00 	comisd xmm1,QWORD PTR [rip+0x0]        # 560 <LTnum.isra.2+0xc0>
     55f:	00 
     560:	76 7e                	jbe    5e0 <LTnum.isra.2+0x140>
      return (i < cast(lua_Integer, f));  /* compare them as integers */
     562:	f2 48 0f 2c c1       	cvttsd2si rax,xmm1
     567:	48 39 c7             	cmp    rdi,rax
     56a:	0f 9c c0             	setl   al
     56d:	0f b6 c0             	movzx  eax,al
     570:	c3                   	ret    
     571:	0f 1f 80 00 00 00 00 	nop    DWORD PTR [rax+0x0]
  return luai_numle(cast_num(i), f);  /* compare them as floats */
     578:	66 0f ef c9          	pxor   xmm1,xmm1
     57c:	31 c0                	xor    eax,eax
     57e:	f2 48 0f 2a ca       	cvtsi2sd xmm1,rdx
     583:	66 0f 2f c1          	comisd xmm0,xmm1
     587:	0f 92 c0             	setb   al
     58a:	c3                   	ret    
     58b:	0f 1f 44 00 00       	nop    DWORD PTR [rax+rax*1+0x0]
  return luai_numlt(cast_num(i), f);  /* compare them as floats */
     590:	66 0f ef c0          	pxor   xmm0,xmm0
     594:	31 c0                	xor    eax,eax
     596:	f2 48 0f 2a c7       	cvtsi2sd xmm0,rdi
     59b:	66 0f 2f c8          	comisd xmm1,xmm0
     59f:	0f 97 c0             	seta   al
     5a2:	c3                   	ret    
     5a3:	0f 1f 44 00 00       	nop    DWORD PTR [rax+rax*1+0x0]
      return luai_numlt(lf, fltvalue(r));  /* both are float */
     5a8:	48 89 54 24 f8       	mov    QWORD PTR [rsp-0x8],rdx
     5ad:	f2 0f 10 4c 24 f8    	movsd  xmm1,QWORD PTR [rsp-0x8]
     5b3:	31 c0                	xor    eax,eax
     5b5:	66 0f 2f c8          	comisd xmm1,xmm0
     5b9:	0f 97 c0             	seta   al
     5bc:	c3                   	ret    
     5bd:	0f 1f 00             	nop    DWORD PTR [rax]
      return li < ivalue(r);  /* both are integers */
     5c0:	31 c0                	xor    eax,eax
     5c2:	48 39 d7             	cmp    rdi,rdx
     5c5:	0f 9c c0             	setl   al
     5c8:	c3                   	ret    
     5c9:	0f 1f 80 00 00 00 00 	nop    DWORD PTR [rax+0x0]
    else if (f >= cast_num(LUA_MININTEGER))  /* minint <= f <= maxint ? */
     5d0:	b8 01 00 00 00       	mov    eax,0x1
     5d5:	c3                   	ret    
     5d6:	66 2e 0f 1f 84 00 00 	nop    WORD PTR cs:[rax+rax*1+0x0]
     5dd:	00 00 00 
      return 0;
     5e0:	31 c0                	xor    eax,eax
     5e2:	c3                   	ret    
     5e3:	66 66 2e 0f 1f 84 00 	data16 nop WORD PTR cs:[rax+rax*1+0x0]
     5ea:	00 00 00 00 
     5ee:	66 90                	xchg   ax,ax

00000000000005f0 <luaV_tonumber_>:
int luaV_tonumber_ (const TValue *obj, lua_Number *n) {
     5f0:	55                   	push   rbp
     5f1:	48 89 f5             	mov    rbp,rsi
     5f4:	53                   	push   rbx
     5f5:	48 89 fb             	mov    rbx,rdi
     5f8:	48 83 ec 38          	sub    rsp,0x38
     5fc:	64 48 8b 04 25 28 00 	mov    rax,QWORD PTR fs:0x28
     603:	00 00 
     605:	48 89 44 24 28       	mov    QWORD PTR [rsp+0x28],rax
     60a:	31 c0                	xor    eax,eax
  if (ttisinteger(obj)) {
     60c:	0f b7 47 08          	movzx  eax,WORD PTR [rdi+0x8]
     610:	66 83 f8 13          	cmp    ax,0x13
     614:	0f 84 7e 00 00 00    	je     698 <luaV_tonumber_+0xa8>
  else if (cvt2num(obj) &&  /* string coercible to number? */
     61a:	83 e0 0f             	and    eax,0xf
     61d:	66 83 f8 04          	cmp    ax,0x4
     621:	74 1d                	je     640 <luaV_tonumber_+0x50>
    return 0;  /* conversion failed */
     623:	31 c0                	xor    eax,eax
}
     625:	48 8b 4c 24 28       	mov    rcx,QWORD PTR [rsp+0x28]
     62a:	64 48 33 0c 25 28 00 	xor    rcx,QWORD PTR fs:0x28
     631:	00 00 
     633:	0f 85 81 00 00 00    	jne    6ba <luaV_tonumber_+0xca>
     639:	48 83 c4 38          	add    rsp,0x38
     63d:	5b                   	pop    rbx
     63e:	5d                   	pop    rbp
     63f:	c3                   	ret    
            luaO_str2num(svalue(obj), &v) == vslen(obj) + 1) {
     640:	48 8b 07             	mov    rax,QWORD PTR [rdi]
     643:	48 8d 74 24 10       	lea    rsi,[rsp+0x10]
     648:	48 8d 78 18          	lea    rdi,[rax+0x18]
     64c:	e8 00 00 00 00       	call   651 <luaV_tonumber_+0x61>
     651:	48 8b 13             	mov    rdx,QWORD PTR [rbx]
     654:	80 7a 08 04          	cmp    BYTE PTR [rdx+0x8],0x4
     658:	74 56                	je     6b0 <luaV_tonumber_+0xc0>
     65a:	48 8b 52 10          	mov    rdx,QWORD PTR [rdx+0x10]
     65e:	48 83 c2 01          	add    rdx,0x1
  else if (cvt2num(obj) &&  /* string coercible to number? */
     662:	48 39 d0             	cmp    rax,rdx
     665:	75 bc                	jne    623 <luaV_tonumber_+0x33>
    *n = nvalue(&v);  /* convert result of 'luaO_str2num' to a float */
     667:	66 83 7c 24 18 13    	cmp    WORD PTR [rsp+0x18],0x13
     66d:	f2 0f 10 44 24 10    	movsd  xmm0,QWORD PTR [rsp+0x10]
     673:	75 11                	jne    686 <luaV_tonumber_+0x96>
     675:	66 0f d6 44 24 08    	movq   QWORD PTR [rsp+0x8],xmm0
     67b:	66 0f ef c0          	pxor   xmm0,xmm0
     67f:	f2 48 0f 2a 44 24 08 	cvtsi2sd xmm0,QWORD PTR [rsp+0x8]
     686:	f2 0f 11 45 00       	movsd  QWORD PTR [rbp+0x0],xmm0
    return 1;
     68b:	b8 01 00 00 00       	mov    eax,0x1
     690:	eb 93                	jmp    625 <luaV_tonumber_+0x35>
     692:	66 0f 1f 44 00 00    	nop    WORD PTR [rax+rax*1+0x0]
    *n = cast_num(ivalue(obj));
     698:	66 0f ef c0          	pxor   xmm0,xmm0
    return 1;
     69c:	b8 01 00 00 00       	mov    eax,0x1
    *n = cast_num(ivalue(obj));
     6a1:	f2 48 0f 2a 07       	cvtsi2sd xmm0,QWORD PTR [rdi]
     6a6:	f2 0f 11 06          	movsd  QWORD PTR [rsi],xmm0
    return 1;
     6aa:	e9 76 ff ff ff       	jmp    625 <luaV_tonumber_+0x35>
     6af:	90                   	nop
            luaO_str2num(svalue(obj), &v) == vslen(obj) + 1) {
     6b0:	0f b6 52 0b          	movzx  edx,BYTE PTR [rdx+0xb]
     6b4:	48 83 c2 01          	add    rdx,0x1
     6b8:	eb a8                	jmp    662 <luaV_tonumber_+0x72>
}
     6ba:	e8 00 00 00 00       	call   6bf <luaV_tonumber_+0xcf>
     6bf:	90                   	nop

00000000000006c0 <luaV_flttointeger>:
  if (!ttisfloat(obj))
     6c0:	66 83 7f 08 03       	cmp    WORD PTR [rdi+0x8],0x3
     6c5:	75 09                	jne    6d0 <luaV_flttointeger+0x10>
     6c7:	e9 c4 fb ff ff       	jmp    290 <luaV_flttointeger.part.7>
     6cc:	0f 1f 40 00          	nop    DWORD PTR [rax+0x0]
}
     6d0:	31 c0                	xor    eax,eax
     6d2:	c3                   	ret    
     6d3:	66 66 2e 0f 1f 84 00 	data16 nop WORD PTR cs:[rax+rax*1+0x0]
     6da:	00 00 00 00 
     6de:	66 90                	xchg   ax,ax

00000000000006e0 <luaV_tointeger>:
int luaV_tointeger (const TValue *obj, lua_Integer *p, int mode) {
     6e0:	55                   	push   rbp
     6e1:	48 89 f5             	mov    rbp,rsi
     6e4:	53                   	push   rbx
     6e5:	48 89 fb             	mov    rbx,rdi
     6e8:	48 83 ec 38          	sub    rsp,0x38
  if (cvt2num(obj) && luaO_str2num(svalue(obj), &v) == vslen(obj) + 1)
     6ec:	0f b7 4f 08          	movzx  ecx,WORD PTR [rdi+0x8]
int luaV_tointeger (const TValue *obj, lua_Integer *p, int mode) {
     6f0:	64 48 8b 04 25 28 00 	mov    rax,QWORD PTR fs:0x28
     6f7:	00 00 
     6f9:	48 89 44 24 28       	mov    QWORD PTR [rsp+0x28],rax
     6fe:	31 c0                	xor    eax,eax
  if (cvt2num(obj) && luaO_str2num(svalue(obj), &v) == vslen(obj) + 1)
     700:	89 c8                	mov    eax,ecx
     702:	83 e0 0f             	and    eax,0xf
     705:	66 83 f8 04          	cmp    ax,0x4
     709:	74 45                	je     750 <luaV_tointeger+0x70>
  if (ttisinteger(obj)) {
     70b:	66 83 f9 13          	cmp    cx,0x13
     70f:	74 2f                	je     740 <luaV_tointeger+0x60>
    return 0;
     711:	31 c0                	xor    eax,eax
  if (!ttisfloat(obj))
     713:	66 83 f9 03          	cmp    cx,0x3
     717:	74 17                	je     730 <luaV_tointeger+0x50>
}
     719:	48 8b 74 24 28       	mov    rsi,QWORD PTR [rsp+0x28]
     71e:	64 48 33 34 25 28 00 	xor    rsi,QWORD PTR fs:0x28
     725:	00 00 
     727:	75 7e                	jne    7a7 <luaV_tointeger+0xc7>
     729:	48 83 c4 38          	add    rsp,0x38
     72d:	5b                   	pop    rbx
     72e:	5d                   	pop    rbp
     72f:	c3                   	ret    
     730:	48 89 ee             	mov    rsi,rbp
     733:	48 89 df             	mov    rdi,rbx
     736:	e8 55 fb ff ff       	call   290 <luaV_flttointeger.part.7>
     73b:	eb dc                	jmp    719 <luaV_tointeger+0x39>
     73d:	0f 1f 00             	nop    DWORD PTR [rax]
    *p = ivalue(obj);
     740:	48 8b 03             	mov    rax,QWORD PTR [rbx]
     743:	48 89 45 00          	mov    QWORD PTR [rbp+0x0],rax
    return 1;
     747:	b8 01 00 00 00       	mov    eax,0x1
     74c:	eb cb                	jmp    719 <luaV_tointeger+0x39>
     74e:	66 90                	xchg   ax,ax
  if (cvt2num(obj) && luaO_str2num(svalue(obj), &v) == vslen(obj) + 1)
     750:	48 8b 07             	mov    rax,QWORD PTR [rdi]
     753:	48 8d 74 24 10       	lea    rsi,[rsp+0x10]
     758:	89 54 24 0c          	mov    DWORD PTR [rsp+0xc],edx
     75c:	48 8d 78 18          	lea    rdi,[rax+0x18]
     760:	e8 00 00 00 00       	call   765 <luaV_tointeger+0x85>
     765:	48 8b 0b             	mov    rcx,QWORD PTR [rbx]
     768:	8b 54 24 0c          	mov    edx,DWORD PTR [rsp+0xc]
     76c:	80 79 08 04          	cmp    BYTE PTR [rcx+0x8],0x4
     770:	74 16                	je     788 <luaV_tointeger+0xa8>
     772:	48 8b 49 10          	mov    rcx,QWORD PTR [rcx+0x10]
     776:	48 83 c1 01          	add    rcx,0x1
     77a:	48 39 c8             	cmp    rax,rcx
     77d:	74 19                	je     798 <luaV_tointeger+0xb8>
     77f:	0f b7 4b 08          	movzx  ecx,WORD PTR [rbx+0x8]
     783:	eb 86                	jmp    70b <luaV_tointeger+0x2b>
     785:	0f 1f 00             	nop    DWORD PTR [rax]
     788:	0f b6 49 0b          	movzx  ecx,BYTE PTR [rcx+0xb]
     78c:	48 83 c1 01          	add    rcx,0x1
     790:	eb e8                	jmp    77a <luaV_tointeger+0x9a>
     792:	66 0f 1f 44 00 00    	nop    WORD PTR [rax+rax*1+0x0]
    obj = &v;  /* change string to its corresponding number */
     798:	0f b7 4c 24 18       	movzx  ecx,WORD PTR [rsp+0x18]
     79d:	48 8d 5c 24 10       	lea    rbx,[rsp+0x10]
     7a2:	e9 64 ff ff ff       	jmp    70b <luaV_tointeger+0x2b>
}
     7a7:	e8 00 00 00 00       	call   7ac <luaV_tointeger+0xcc>
     7ac:	0f 1f 40 00          	nop    DWORD PTR [rax+0x0]

00000000000007b0 <luaV_tointeger_>:
  return luaV_tointeger(obj, p, LUA_FLOORN2I);
     7b0:	31 d2                	xor    edx,edx
     7b2:	e9 29 ff ff ff       	jmp    6e0 <luaV_tointeger>
     7b7:	66 0f 1f 84 00 00 00 	nop    WORD PTR [rax+rax*1+0x0]
     7be:	00 00 

00000000000007c0 <luaV_forlimit>:
                     int *stopnow) {
     7c0:	41 55                	push   r13
     7c2:	41 54                	push   r12
     7c4:	55                   	push   rbp
     7c5:	48 89 f5             	mov    rbp,rsi
     7c8:	53                   	push   rbx
     7c9:	48 89 fb             	mov    rbx,rdi
     7cc:	48 83 ec 18          	sub    rsp,0x18
     7d0:	64 48 8b 04 25 28 00 	mov    rax,QWORD PTR fs:0x28
     7d7:	00 00 
     7d9:	48 89 44 24 08       	mov    QWORD PTR [rsp+0x8],rax
     7de:	31 c0                	xor    eax,eax
  if (ttisinteger(obj))
     7e0:	66 83 7f 08 13       	cmp    WORD PTR [rdi+0x8],0x13
  *stopnow = 0;  /* usually, let loops run */
     7e5:	c7 01 00 00 00 00    	mov    DWORD PTR [rcx],0x0
  if (ttisinteger(obj))
     7eb:	74 6b                	je     858 <luaV_forlimit+0x98>
     7ed:	49 89 d5             	mov    r13,rdx
  else if (!luaV_tointeger(obj, p, (step < 0 ? 2 : 1))) {
     7f0:	48 c1 ea 3f          	shr    rdx,0x3f
     7f4:	49 89 cc             	mov    r12,rcx
     7f7:	83 c2 01             	add    edx,0x1
     7fa:	e8 00 00 00 00       	call   7ff <luaV_forlimit+0x3f>
  return 1;
     7ff:	ba 01 00 00 00       	mov    edx,0x1
  else if (!luaV_tointeger(obj, p, (step < 0 ? 2 : 1))) {
     804:	85 c0                	test   eax,eax
     806:	75 2d                	jne    835 <luaV_forlimit+0x75>
    if (!tonumber(obj, &n)) /* cannot convert to float? */
     808:	66 83 7b 08 03       	cmp    WORD PTR [rbx+0x8],0x3
     80d:	75 79                	jne    888 <luaV_forlimit+0xc8>
     80f:	f2 0f 10 03          	movsd  xmm0,QWORD PTR [rbx]
    if (luai_numlt(0, n)) {  /* if true, float is larger than max integer */
     813:	66 0f 2f 05 00 00 00 	comisd xmm0,QWORD PTR [rip+0x0]        # 81b <luaV_forlimit+0x5b>
     81a:	00 
     81b:	76 4b                	jbe    868 <luaV_forlimit+0xa8>
      *p = LUA_MAXINTEGER;
     81d:	48 b8 ff ff ff ff ff 	movabs rax,0x7fffffffffffffff
     824:	ff ff 7f 
     827:	48 89 45 00          	mov    QWORD PTR [rbp+0x0],rax
      if (step < 0) *stopnow = 1;
     82b:	4d 85 ed             	test   r13,r13
     82e:	78 4b                	js     87b <luaV_forlimit+0xbb>
  return 1;
     830:	ba 01 00 00 00       	mov    edx,0x1
}
     835:	48 8b 4c 24 08       	mov    rcx,QWORD PTR [rsp+0x8]
     83a:	64 48 33 0c 25 28 00 	xor    rcx,QWORD PTR fs:0x28
     841:	00 00 
     843:	89 d0                	mov    eax,edx
     845:	75 5c                	jne    8a3 <luaV_forlimit+0xe3>
     847:	48 83 c4 18          	add    rsp,0x18
     84b:	5b                   	pop    rbx
     84c:	5d                   	pop    rbp
     84d:	41 5c                	pop    r12
     84f:	41 5d                	pop    r13
     851:	c3                   	ret    
     852:	66 0f 1f 44 00 00    	nop    WORD PTR [rax+rax*1+0x0]
    *p = ivalue(obj);
     858:	48 8b 07             	mov    rax,QWORD PTR [rdi]
  return 1;
     85b:	ba 01 00 00 00       	mov    edx,0x1
    *p = ivalue(obj);
     860:	48 89 06             	mov    QWORD PTR [rsi],rax
     863:	eb d0                	jmp    835 <luaV_forlimit+0x75>
     865:	0f 1f 00             	nop    DWORD PTR [rax]
      *p = LUA_MININTEGER;
     868:	48 b8 00 00 00 00 00 	movabs rax,0x8000000000000000
     86f:	00 00 80 
     872:	48 89 45 00          	mov    QWORD PTR [rbp+0x0],rax
      if (step >= 0) *stopnow = 1;
     876:	4d 85 ed             	test   r13,r13
     879:	78 b5                	js     830 <luaV_forlimit+0x70>
      if (step < 0) *stopnow = 1;
     87b:	41 c7 04 24 01 00 00 	mov    DWORD PTR [r12],0x1
     882:	00 
     883:	eb ab                	jmp    830 <luaV_forlimit+0x70>
     885:	0f 1f 00             	nop    DWORD PTR [rax]
    if (!tonumber(obj, &n)) /* cannot convert to float? */
     888:	48 89 e6             	mov    rsi,rsp
     88b:	48 89 df             	mov    rdi,rbx
     88e:	e8 00 00 00 00       	call   893 <luaV_forlimit+0xd3>
     893:	89 c2                	mov    edx,eax
     895:	85 c0                	test   eax,eax
     897:	74 9c                	je     835 <luaV_forlimit+0x75>
     899:	f2 0f 10 04 24       	movsd  xmm0,QWORD PTR [rsp]
     89e:	e9 70 ff ff ff       	jmp    813 <luaV_forlimit+0x53>
}
     8a3:	e8 00 00 00 00       	call   8a8 <luaV_forlimit+0xe8>
     8a8:	0f 1f 84 00 00 00 00 	nop    DWORD PTR [rax+rax*1+0x0]
     8af:	00 

00000000000008b0 <luaV_finishget>:
                      const TValue *slot) {
     8b0:	41 57                	push   r15
     8b2:	4c 89 c0             	mov    rax,r8
  for (loop = 0; loop < MAXTAGLOOP; loop++) {
     8b5:	45 31 ff             	xor    r15d,r15d
                      const TValue *slot) {
     8b8:	41 56                	push   r14
     8ba:	49 89 f6             	mov    r14,rsi
     8bd:	41 55                	push   r13
     8bf:	49 89 cd             	mov    r13,rcx
     8c2:	41 54                	push   r12
     8c4:	49 89 d4             	mov    r12,rdx
     8c7:	55                   	push   rbp
     8c8:	48 89 fd             	mov    rbp,rdi
     8cb:	53                   	push   rbx
     8cc:	48 83 ec 08          	sub    rsp,0x8
    if (slot == NULL) {  /* 't' is not a table? */
     8d0:	48 85 c0             	test   rax,rax
     8d3:	0f 84 07 01 00 00    	je     9e0 <luaV_finishget+0x130>
      tm = fasttm(L, hvalue(t)->metatable, TM_INDEX);  /* table's metamethod */
     8d9:	49 8b 06             	mov    rax,QWORD PTR [r14]
     8dc:	48 8b 78 28          	mov    rdi,QWORD PTR [rax+0x28]
     8e0:	48 85 ff             	test   rdi,rdi
     8e3:	0f 84 df 00 00 00    	je     9c8 <luaV_finishget+0x118>
     8e9:	f6 47 0a 01          	test   BYTE PTR [rdi+0xa],0x1
     8ed:	0f 85 d5 00 00 00    	jne    9c8 <luaV_finishget+0x118>
     8f3:	48 8b 45 18          	mov    rax,QWORD PTR [rbp+0x18]
     8f7:	31 f6                	xor    esi,esi
     8f9:	48 8b 90 e0 00 00 00 	mov    rdx,QWORD PTR [rax+0xe0]
     900:	e8 00 00 00 00       	call   905 <luaV_finishget+0x55>
     905:	48 89 c3             	mov    rbx,rax
      if (tm == NULL) {  /* no metamethod? */
     908:	48 85 c0             	test   rax,rax
     90b:	0f 84 b7 00 00 00    	je     9c8 <luaV_finishget+0x118>
     911:	0f b7 40 08          	movzx  eax,WORD PTR [rax+0x8]
    if (ttisfunction(tm)) {  /* is metamethod a function? */
     915:	83 e0 0f             	and    eax,0xf
     918:	66 83 f8 06          	cmp    ax,0x6
     91c:	74 3f                	je     95d <luaV_finishget+0xad>
    if (luaV_fastget(L,t,key,slot,luaH_get)) {  /* fast track? */
     91e:	66 83 f8 05          	cmp    ax,0x5
     922:	74 64                	je     988 <luaV_finishget+0xd8>
  for (loop = 0; loop < MAXTAGLOOP; loop++) {
     924:	41 83 c7 01          	add    r15d,0x1
     928:	41 81 ff d0 07 00 00 	cmp    r15d,0x7d0
     92f:	74 7f                	je     9b0 <luaV_finishget+0x100>
      tm = luaT_gettmbyobj(L, t, TM_INDEX);
     931:	31 d2                	xor    edx,edx
     933:	48 89 de             	mov    rsi,rbx
     936:	48 89 ef             	mov    rdi,rbp
     939:	e8 00 00 00 00       	call   93e <luaV_finishget+0x8e>
     93e:	48 89 c2             	mov    rdx,rax
      if (ttisnil(tm))
     941:	0f b7 40 08          	movzx  eax,WORD PTR [rax+0x8]
     945:	66 85 c0             	test   ax,ax
     948:	0f 84 a8 00 00 00    	je     9f6 <luaV_finishget+0x146>
     94e:	83 e0 0f             	and    eax,0xf
     951:	49 89 de             	mov    r14,rbx
     954:	48 89 d3             	mov    rbx,rdx
    if (ttisfunction(tm)) {  /* is metamethod a function? */
     957:	66 83 f8 06          	cmp    ax,0x6
     95b:	75 c1                	jne    91e <luaV_finishget+0x6e>
}
     95d:	48 83 c4 08          	add    rsp,0x8
      luaT_callTM(L, tm, t, key, val, 1);  /* call it */
     961:	4d 89 e8             	mov    r8,r13
     964:	4c 89 e1             	mov    rcx,r12
     967:	4c 89 f2             	mov    rdx,r14
     96a:	48 89 de             	mov    rsi,rbx
     96d:	48 89 ef             	mov    rdi,rbp
}
     970:	5b                   	pop    rbx
      luaT_callTM(L, tm, t, key, val, 1);  /* call it */
     971:	41 b9 01 00 00 00    	mov    r9d,0x1
}
     977:	5d                   	pop    rbp
     978:	41 5c                	pop    r12
     97a:	41 5d                	pop    r13
     97c:	41 5e                	pop    r14
     97e:	41 5f                	pop    r15
      luaT_callTM(L, tm, t, key, val, 1);  /* call it */
     980:	e9 00 00 00 00       	jmp    985 <luaV_finishget+0xd5>
     985:	0f 1f 00             	nop    DWORD PTR [rax]
    if (luaV_fastget(L,t,key,slot,luaH_get)) {  /* fast track? */
     988:	48 8b 3b             	mov    rdi,QWORD PTR [rbx]
     98b:	4c 89 e6             	mov    rsi,r12
     98e:	e8 00 00 00 00       	call   993 <luaV_finishget+0xe3>
     993:	0f b7 50 08          	movzx  edx,WORD PTR [rax+0x8]
     997:	66 85 d2             	test   dx,dx
     99a:	75 4c                	jne    9e8 <luaV_finishget+0x138>
  for (loop = 0; loop < MAXTAGLOOP; loop++) {
     99c:	41 83 c7 01          	add    r15d,0x1
     9a0:	49 89 de             	mov    r14,rbx
     9a3:	41 81 ff d0 07 00 00 	cmp    r15d,0x7d0
     9aa:	0f 85 20 ff ff ff    	jne    8d0 <luaV_finishget+0x20>
  luaG_runerror(L, "'__index' chain too long; possible loop");
     9b0:	48 8d 35 00 00 00 00 	lea    rsi,[rip+0x0]        # 9b7 <luaV_finishget+0x107>
     9b7:	48 89 ef             	mov    rdi,rbp
     9ba:	31 c0                	xor    eax,eax
     9bc:	e8 00 00 00 00       	call   9c1 <luaV_finishget+0x111>
     9c1:	0f 1f 80 00 00 00 00 	nop    DWORD PTR [rax+0x0]
        setnilvalue(val);  /* result is nil */
     9c8:	31 c0                	xor    eax,eax
     9ca:	66 41 89 45 08       	mov    WORD PTR [r13+0x8],ax
}
     9cf:	48 83 c4 08          	add    rsp,0x8
     9d3:	5b                   	pop    rbx
     9d4:	5d                   	pop    rbp
     9d5:	41 5c                	pop    r12
     9d7:	41 5d                	pop    r13
     9d9:	41 5e                	pop    r14
     9db:	41 5f                	pop    r15
     9dd:	c3                   	ret    
     9de:	66 90                	xchg   ax,ax
     9e0:	4c 89 f3             	mov    rbx,r14
     9e3:	e9 49 ff ff ff       	jmp    931 <luaV_finishget+0x81>
      setobj2s(L, val, slot);  /* done */
     9e8:	48 8b 00             	mov    rax,QWORD PTR [rax]
     9eb:	66 41 89 55 08       	mov    WORD PTR [r13+0x8],dx
     9f0:	49 89 45 00          	mov    QWORD PTR [r13+0x0],rax
      return;
     9f4:	eb d9                	jmp    9cf <luaV_finishget+0x11f>
        luaG_typeerror(L, t, "index");  /* no metamethod */
     9f6:	48 8d 15 00 00 00 00 	lea    rdx,[rip+0x0]        # 9fd <luaV_finishget+0x14d>
     9fd:	48 89 de             	mov    rsi,rbx
     a00:	48 89 ef             	mov    rdi,rbp
     a03:	e8 00 00 00 00       	call   a08 <luaV_finishget+0x158>
     a08:	0f 1f 84 00 00 00 00 	nop    DWORD PTR [rax+rax*1+0x0]
     a0f:	00 

0000000000000a10 <luaV_finishset>:
                     StkId val, const TValue *slot) {
     a10:	41 57                	push   r15
     a12:	4d 89 c7             	mov    r15,r8
     a15:	41 56                	push   r14
     a17:	41 55                	push   r13
  for (loop = 0; loop < MAXTAGLOOP; loop++) {
     a19:	45 31 ed             	xor    r13d,r13d
                     StkId val, const TValue *slot) {
     a1c:	41 54                	push   r12
     a1e:	55                   	push   rbp
     a1f:	48 89 fd             	mov    rbp,rdi
     a22:	53                   	push   rbx
     a23:	48 89 f3             	mov    rbx,rsi
     a26:	48 83 ec 18          	sub    rsp,0x18
     a2a:	48 89 14 24          	mov    QWORD PTR [rsp],rdx
     a2e:	48 89 4c 24 08       	mov    QWORD PTR [rsp+0x8],rcx
    if (slot != NULL) {  /* is 't' a table? */
     a33:	4d 85 ff             	test   r15,r15
     a36:	0f 84 84 01 00 00    	je     bc0 <luaV_finishset+0x1b0>
      Table *h = hvalue(t);  /* save 't' table */
     a3c:	4c 8b 23             	mov    r12,QWORD PTR [rbx]
      tm = fasttm(L, h->metatable, TM_NEWINDEX);  /* get metamethod */
     a3f:	49 8b 7c 24 28       	mov    rdi,QWORD PTR [r12+0x28]
     a44:	48 85 ff             	test   rdi,rdi
     a47:	0f 84 f3 00 00 00    	je     b40 <luaV_finishset+0x130>
     a4d:	f6 47 0a 02          	test   BYTE PTR [rdi+0xa],0x2
     a51:	0f 85 e9 00 00 00    	jne    b40 <luaV_finishset+0x130>
     a57:	48 8b 45 18          	mov    rax,QWORD PTR [rbp+0x18]
     a5b:	be 01 00 00 00       	mov    esi,0x1
     a60:	48 8b 90 e8 00 00 00 	mov    rdx,QWORD PTR [rax+0xe8]
     a67:	e8 00 00 00 00       	call   a6c <luaV_finishset+0x5c>
     a6c:	49 89 c6             	mov    r14,rax
      if (tm == NULL) {  /* no metamethod? */
     a6f:	48 85 c0             	test   rax,rax
     a72:	0f 84 c8 00 00 00    	je     b40 <luaV_finishset+0x130>
     a78:	0f b7 40 08          	movzx  eax,WORD PTR [rax+0x8]
    if (ttisfunction(tm)) {
     a7c:	83 e0 0f             	and    eax,0xf
     a7f:	66 83 f8 06          	cmp    ax,0x6
     a83:	74 46                	je     acb <luaV_finishset+0xbb>
    if (luaV_fastget(L, t, key, slot, luaH_get)) {
     a85:	66 83 f8 05          	cmp    ax,0x5
     a89:	74 6d                	je     af8 <luaV_finishset+0xe8>
  for (loop = 0; loop < MAXTAGLOOP; loop++) {
     a8b:	41 83 c5 01          	add    r13d,0x1
     a8f:	41 81 fd d0 07 00 00 	cmp    r13d,0x7d0
     a96:	0f 84 8a 00 00 00    	je     b26 <luaV_finishset+0x116>
      if (ttisnil(tm = luaT_gettmbyobj(L, t, TM_NEWINDEX)))
     a9c:	ba 01 00 00 00       	mov    edx,0x1
     aa1:	4c 89 f6             	mov    rsi,r14
     aa4:	48 89 ef             	mov    rdi,rbp
     aa7:	e8 00 00 00 00       	call   aac <luaV_finishset+0x9c>
     aac:	48 89 c2             	mov    rdx,rax
     aaf:	0f b7 40 08          	movzx  eax,WORD PTR [rax+0x8]
     ab3:	66 85 c0             	test   ax,ax
     ab6:	0f 84 53 01 00 00    	je     c0f <luaV_finishset+0x1ff>
     abc:	83 e0 0f             	and    eax,0xf
     abf:	4c 89 f3             	mov    rbx,r14
     ac2:	49 89 d6             	mov    r14,rdx
    if (ttisfunction(tm)) {
     ac5:	66 83 f8 06          	cmp    ax,0x6
     ac9:	75 ba                	jne    a85 <luaV_finishset+0x75>
      luaT_callTM(L, tm, t, key, val, 0);
     acb:	4c 8b 44 24 08       	mov    r8,QWORD PTR [rsp+0x8]
     ad0:	48 8b 0c 24          	mov    rcx,QWORD PTR [rsp]
}
     ad4:	48 83 c4 18          	add    rsp,0x18
      luaT_callTM(L, tm, t, key, val, 0);
     ad8:	48 89 da             	mov    rdx,rbx
     adb:	4c 89 f6             	mov    rsi,r14
}
     ade:	5b                   	pop    rbx
      luaT_callTM(L, tm, t, key, val, 0);
     adf:	48 89 ef             	mov    rdi,rbp
     ae2:	45 31 c9             	xor    r9d,r9d
}
     ae5:	5d                   	pop    rbp
     ae6:	41 5c                	pop    r12
     ae8:	41 5d                	pop    r13
     aea:	41 5e                	pop    r14
     aec:	41 5f                	pop    r15
      luaT_callTM(L, tm, t, key, val, 0);
     aee:	e9 00 00 00 00       	jmp    af3 <luaV_finishset+0xe3>
     af3:	0f 1f 44 00 00       	nop    DWORD PTR [rax+rax*1+0x0]
    if (luaV_fastget(L, t, key, slot, luaH_get)) {
     af8:	48 8b 34 24          	mov    rsi,QWORD PTR [rsp]
     afc:	49 8b 3e             	mov    rdi,QWORD PTR [r14]
     aff:	e8 00 00 00 00       	call   b04 <luaV_finishset+0xf4>
     b04:	66 83 78 08 00       	cmp    WORD PTR [rax+0x8],0x0
     b09:	49 89 c7             	mov    r15,rax
     b0c:	0f 85 b6 00 00 00    	jne    bc8 <luaV_finishset+0x1b8>
  for (loop = 0; loop < MAXTAGLOOP; loop++) {
     b12:	41 83 c5 01          	add    r13d,0x1
     b16:	4c 89 f3             	mov    rbx,r14
     b19:	41 81 fd d0 07 00 00 	cmp    r13d,0x7d0
     b20:	0f 85 0d ff ff ff    	jne    a33 <luaV_finishset+0x23>
  luaG_runerror(L, "'__newindex' chain too long; possible loop");
     b26:	48 8d 35 00 00 00 00 	lea    rsi,[rip+0x0]        # b2d <luaV_finishset+0x11d>
     b2d:	48 89 ef             	mov    rdi,rbp
     b30:	31 c0                	xor    eax,eax
     b32:	e8 00 00 00 00       	call   b37 <luaV_finishset+0x127>
     b37:	66 0f 1f 84 00 00 00 	nop    WORD PTR [rax+rax*1+0x0]
     b3e:	00 00 
        if (slot == luaO_nilobject)  /* no previous entry? */
     b40:	48 8d 05 00 00 00 00 	lea    rax,[rip+0x0]        # b47 <luaV_finishset+0x137>
     b47:	49 39 c7             	cmp    r15,rax
     b4a:	74 5e                	je     baa <luaV_finishset+0x19a>
        setobj2t(L, cast(TValue *, slot), val);  /* set its new value */
     b4c:	48 8b 4c 24 08       	mov    rcx,QWORD PTR [rsp+0x8]
     b51:	48 8b 01             	mov    rax,QWORD PTR [rcx]
     b54:	49 89 07             	mov    QWORD PTR [r15],rax
     b57:	0f b7 41 08          	movzx  eax,WORD PTR [rcx+0x8]
     b5b:	66 41 89 47 08       	mov    WORD PTR [r15+0x8],ax
        invalidateTMcache(h);
     b60:	41 c6 44 24 0a 00    	mov    BYTE PTR [r12+0xa],0x0
        luaC_barrierback(L, h, val);
     b66:	66 83 79 08 00       	cmp    WORD PTR [rcx+0x8],0x0
     b6b:	78 13                	js     b80 <luaV_finishset+0x170>
}
     b6d:	48 83 c4 18          	add    rsp,0x18
     b71:	5b                   	pop    rbx
     b72:	5d                   	pop    rbp
     b73:	41 5c                	pop    r12
     b75:	41 5d                	pop    r13
     b77:	41 5e                	pop    r14
     b79:	41 5f                	pop    r15
     b7b:	c3                   	ret    
     b7c:	0f 1f 40 00          	nop    DWORD PTR [rax+0x0]
        luaC_barrierback(L, h, val);
     b80:	41 f6 44 24 09 04    	test   BYTE PTR [r12+0x9],0x4
     b86:	74 e5                	je     b6d <luaV_finishset+0x15d>
     b88:	48 8b 01             	mov    rax,QWORD PTR [rcx]
     b8b:	f6 40 09 03          	test   BYTE PTR [rax+0x9],0x3
     b8f:	74 dc                	je     b6d <luaV_finishset+0x15d>
}
     b91:	48 83 c4 18          	add    rsp,0x18
        luaC_barrierback(L, h, val);
     b95:	4c 89 e6             	mov    rsi,r12
     b98:	48 89 ef             	mov    rdi,rbp
}
     b9b:	5b                   	pop    rbx
     b9c:	5d                   	pop    rbp
     b9d:	41 5c                	pop    r12
     b9f:	41 5d                	pop    r13
     ba1:	41 5e                	pop    r14
     ba3:	41 5f                	pop    r15
        luaC_barrierback(L, h, val);
     ba5:	e9 00 00 00 00       	jmp    baa <luaV_finishset+0x19a>
          slot = luaH_newkey(L, h, key);  /* create one */
     baa:	48 8b 14 24          	mov    rdx,QWORD PTR [rsp]
     bae:	4c 89 e6             	mov    rsi,r12
     bb1:	48 89 ef             	mov    rdi,rbp
     bb4:	e8 00 00 00 00       	call   bb9 <luaV_finishset+0x1a9>
     bb9:	49 89 c7             	mov    r15,rax
     bbc:	eb 8e                	jmp    b4c <luaV_finishset+0x13c>
     bbe:	66 90                	xchg   ax,ax
     bc0:	49 89 de             	mov    r14,rbx
     bc3:	e9 d4 fe ff ff       	jmp    a9c <luaV_finishset+0x8c>
      luaV_finishfastset(L, t, slot, val);
     bc8:	48 8b 4c 24 08       	mov    rcx,QWORD PTR [rsp+0x8]
     bcd:	48 8b 01             	mov    rax,QWORD PTR [rcx]
     bd0:	49 89 07             	mov    QWORD PTR [r15],rax
     bd3:	0f b7 41 08          	movzx  eax,WORD PTR [rcx+0x8]
     bd7:	66 41 89 47 08       	mov    WORD PTR [r15+0x8],ax
     bdc:	66 83 79 08 00       	cmp    WORD PTR [rcx+0x8],0x0
     be1:	79 8a                	jns    b6d <luaV_finishset+0x15d>
     be3:	49 8b 36             	mov    rsi,QWORD PTR [r14]
     be6:	f6 46 09 04          	test   BYTE PTR [rsi+0x9],0x4
     bea:	74 81                	je     b6d <luaV_finishset+0x15d>
     bec:	48 8b 01             	mov    rax,QWORD PTR [rcx]
     bef:	f6 40 09 03          	test   BYTE PTR [rax+0x9],0x3
     bf3:	0f 84 74 ff ff ff    	je     b6d <luaV_finishset+0x15d>
}
     bf9:	48 83 c4 18          	add    rsp,0x18
      luaV_finishfastset(L, t, slot, val);
     bfd:	48 89 ef             	mov    rdi,rbp
}
     c00:	5b                   	pop    rbx
     c01:	5d                   	pop    rbp
     c02:	41 5c                	pop    r12
     c04:	41 5d                	pop    r13
     c06:	41 5e                	pop    r14
     c08:	41 5f                	pop    r15
      luaV_finishfastset(L, t, slot, val);
     c0a:	e9 00 00 00 00       	jmp    c0f <luaV_finishset+0x1ff>
        luaG_typeerror(L, t, "index");
     c0f:	48 8d 15 00 00 00 00 	lea    rdx,[rip+0x0]        # c16 <luaV_finishset+0x206>
     c16:	4c 89 f6             	mov    rsi,r14
     c19:	48 89 ef             	mov    rdi,rbp
     c1c:	e8 00 00 00 00       	call   c21 <luaV_finishset+0x211>
     c21:	66 66 2e 0f 1f 84 00 	data16 nop WORD PTR cs:[rax+rax*1+0x0]
     c28:	00 00 00 00 
     c2c:	0f 1f 40 00          	nop    DWORD PTR [rax+0x0]

0000000000000c30 <luaV_gettable>:
void luaV_gettable (lua_State *L, const TValue *t, TValue *key, StkId val) {
     c30:	41 55                	push   r13
     c32:	49 89 fd             	mov    r13,rdi
     c35:	41 54                	push   r12
     c37:	49 89 cc             	mov    r12,rcx
     c3a:	55                   	push   rbp
     c3b:	48 89 d5             	mov    rbp,rdx
     c3e:	53                   	push   rbx
     c3f:	48 89 f3             	mov    rbx,rsi
     c42:	48 83 ec 08          	sub    rsp,0x8
  GETTABLE_INLINE(L, t, key, val);
     c46:	0f b7 46 08          	movzx  eax,WORD PTR [rsi+0x8]
     c4a:	66 3d 05 80          	cmp    ax,0x8005
     c4e:	75 60                	jne    cb0 <luaV_gettable+0x80>
     c50:	66 83 7a 08 13       	cmp    WORD PTR [rdx+0x8],0x13
     c55:	48 8b 3e             	mov    rdi,QWORD PTR [rsi]
     c58:	75 46                	jne    ca0 <luaV_gettable+0x70>
     c5a:	48 8b 32             	mov    rsi,QWORD PTR [rdx]
     c5d:	8b 47 0c             	mov    eax,DWORD PTR [rdi+0xc]
     c60:	48 8d 56 ff          	lea    rdx,[rsi-0x1]
     c64:	48 39 c2             	cmp    rdx,rax
     c67:	0f 83 cb 00 00 00    	jae    d38 <luaV_gettable+0x108>
     c6d:	48 8b 47 10          	mov    rax,QWORD PTR [rdi+0x10]
     c71:	48 c1 e6 04          	shl    rsi,0x4
     c75:	48 8d 44 30 f0       	lea    rax,[rax+rsi*1-0x10]
     c7a:	0f b7 50 08          	movzx  edx,WORD PTR [rax+0x8]
     c7e:	66 85 d2             	test   dx,dx
     c81:	74 7d                	je     d00 <luaV_gettable+0xd0>
     c83:	48 8b 00             	mov    rax,QWORD PTR [rax]
     c86:	66 41 89 54 24 08    	mov    WORD PTR [r12+0x8],dx
     c8c:	49 89 04 24          	mov    QWORD PTR [r12],rax
}
     c90:	48 83 c4 08          	add    rsp,0x8
     c94:	5b                   	pop    rbx
     c95:	5d                   	pop    rbp
     c96:	41 5c                	pop    r12
     c98:	41 5d                	pop    r13
     c9a:	c3                   	ret    
     c9b:	0f 1f 44 00 00       	nop    DWORD PTR [rax+rax*1+0x0]
  GETTABLE_INLINE(L, t, key, val);
     ca0:	48 89 d6             	mov    rsi,rdx
     ca3:	e8 00 00 00 00       	call   ca8 <luaV_gettable+0x78>
     ca8:	eb d0                	jmp    c7a <luaV_gettable+0x4a>
     caa:	66 0f 1f 44 00 00    	nop    WORD PTR [rax+rax*1+0x0]
     cb0:	66 3d 25 80          	cmp    ax,0x8025
     cb4:	0f 84 8e 00 00 00    	je     d48 <luaV_gettable+0x118>
     cba:	66 3d 15 80          	cmp    ax,0x8015
     cbe:	75 60                	jne    d20 <luaV_gettable+0xf0>
     cc0:	66 83 7a 08 13       	cmp    WORD PTR [rdx+0x8],0x13
     cc5:	0f 85 c2 00 00 00    	jne    d8d <luaV_gettable+0x15d>
     ccb:	48 8b 16             	mov    rdx,QWORD PTR [rsi]
     cce:	48 8b 45 00          	mov    rax,QWORD PTR [rbp+0x0]
     cd2:	48 8b 4a 38          	mov    rcx,QWORD PTR [rdx+0x38]
     cd6:	39 42 40             	cmp    DWORD PTR [rdx+0x40],eax
     cd9:	0f 86 9d 00 00 00    	jbe    d7c <luaV_gettable+0x14c>
     cdf:	89 c0                	mov    eax,eax
     ce1:	48 8b 04 c1          	mov    rax,QWORD PTR [rcx+rax*8]
     ce5:	49 89 04 24          	mov    QWORD PTR [r12],rax
     ce9:	b8 13 00 00 00       	mov    eax,0x13
     cee:	66 41 89 44 24 08    	mov    WORD PTR [r12+0x8],ax
     cf4:	eb 9a                	jmp    c90 <luaV_gettable+0x60>
     cf6:	66 2e 0f 1f 84 00 00 	nop    WORD PTR cs:[rax+rax*1+0x0]
     cfd:	00 00 00 
}
     d00:	48 83 c4 08          	add    rsp,0x8
  GETTABLE_INLINE(L, t, key, val);
     d04:	4c 89 e1             	mov    rcx,r12
     d07:	48 89 ea             	mov    rdx,rbp
     d0a:	48 89 de             	mov    rsi,rbx
     d0d:	4c 89 ef             	mov    rdi,r13
}
     d10:	5b                   	pop    rbx
  GETTABLE_INLINE(L, t, key, val);
     d11:	49 89 c0             	mov    r8,rax
}
     d14:	5d                   	pop    rbp
     d15:	41 5c                	pop    r12
     d17:	41 5d                	pop    r13
  GETTABLE_INLINE(L, t, key, val);
     d19:	e9 92 fb ff ff       	jmp    8b0 <luaV_finishget>
     d1e:	66 90                	xchg   ax,ax
}
     d20:	48 83 c4 08          	add    rsp,0x8
  GETTABLE_INLINE(L, t, key, val);
     d24:	45 31 c0             	xor    r8d,r8d
}
     d27:	5b                   	pop    rbx
     d28:	5d                   	pop    rbp
     d29:	41 5c                	pop    r12
     d2b:	41 5d                	pop    r13
  GETTABLE_INLINE(L, t, key, val);
     d2d:	e9 7e fb ff ff       	jmp    8b0 <luaV_finishget>
     d32:	66 0f 1f 44 00 00    	nop    WORD PTR [rax+rax*1+0x0]
     d38:	e8 00 00 00 00       	call   d3d <luaV_gettable+0x10d>
     d3d:	e9 38 ff ff ff       	jmp    c7a <luaV_gettable+0x4a>
     d42:	66 0f 1f 44 00 00    	nop    WORD PTR [rax+rax*1+0x0]
     d48:	66 83 7a 08 13       	cmp    WORD PTR [rdx+0x8],0x13
     d4d:	75 3e                	jne    d8d <luaV_gettable+0x15d>
     d4f:	48 8b 16             	mov    rdx,QWORD PTR [rsi]
     d52:	48 8b 45 00          	mov    rax,QWORD PTR [rbp+0x0]
     d56:	48 8b 4a 38          	mov    rcx,QWORD PTR [rdx+0x38]
     d5a:	39 42 40             	cmp    DWORD PTR [rdx+0x40],eax
     d5d:	76 1d                	jbe    d7c <luaV_gettable+0x14c>
     d5f:	89 c0                	mov    eax,eax
     d61:	ba 03 00 00 00       	mov    edx,0x3
     d66:	f2 0f 10 04 c1       	movsd  xmm0,QWORD PTR [rcx+rax*8]
     d6b:	66 41 89 54 24 08    	mov    WORD PTR [r12+0x8],dx
     d71:	f2 41 0f 11 04 24    	movsd  QWORD PTR [r12],xmm0
     d77:	e9 14 ff ff ff       	jmp    c90 <luaV_gettable+0x60>
     d7c:	48 8d 35 00 00 00 00 	lea    rsi,[rip+0x0]        # d83 <luaV_gettable+0x153>
     d83:	4c 89 ef             	mov    rdi,r13
     d86:	31 c0                	xor    eax,eax
     d88:	e8 00 00 00 00       	call   d8d <luaV_gettable+0x15d>
     d8d:	48 8d 15 00 00 00 00 	lea    rdx,[rip+0x0]        # d94 <luaV_gettable+0x164>
     d94:	48 89 ee             	mov    rsi,rbp
     d97:	4c 89 ef             	mov    rdi,r13
     d9a:	e8 00 00 00 00       	call   d9f <luaV_gettable+0x16f>
     d9f:	90                   	nop

0000000000000da0 <luaV_settable>:
void luaV_settable (lua_State *L, const TValue *t, TValue *key, StkId val) {
     da0:	41 55                	push   r13
     da2:	49 89 fd             	mov    r13,rdi
     da5:	41 54                	push   r12
     da7:	49 89 d4             	mov    r12,rdx
     daa:	55                   	push   rbp
     dab:	48 89 cd             	mov    rbp,rcx
     dae:	53                   	push   rbx
     daf:	48 89 f3             	mov    rbx,rsi
     db2:	48 83 ec 18          	sub    rsp,0x18
     db6:	64 48 8b 04 25 28 00 	mov    rax,QWORD PTR fs:0x28
     dbd:	00 00 
     dbf:	48 89 44 24 08       	mov    QWORD PTR [rsp+0x8],rax
     dc4:	31 c0                	xor    eax,eax
  SETTABLE_INLINE(L, t, key, val);
     dc6:	0f b7 46 08          	movzx  eax,WORD PTR [rsi+0x8]
     dca:	66 3d 05 80          	cmp    ax,0x8005
     dce:	0f 85 b4 00 00 00    	jne    e88 <luaV_settable+0xe8>
     dd4:	66 83 7a 08 13       	cmp    WORD PTR [rdx+0x8],0x13
     dd9:	48 8b 3e             	mov    rdi,QWORD PTR [rsi]
     ddc:	75 62                	jne    e40 <luaV_settable+0xa0>
     dde:	48 8b 32             	mov    rsi,QWORD PTR [rdx]
     de1:	8b 47 0c             	mov    eax,DWORD PTR [rdi+0xc]
     de4:	48 8d 56 ff          	lea    rdx,[rsi-0x1]
     de8:	48 39 c2             	cmp    rdx,rax
     deb:	0f 83 ef 00 00 00    	jae    ee0 <luaV_settable+0x140>
     df1:	48 8b 47 10          	mov    rax,QWORD PTR [rdi+0x10]
     df5:	48 c1 e6 04          	shl    rsi,0x4
     df9:	48 8d 44 30 f0       	lea    rax,[rax+rsi*1-0x10]
     dfe:	66 83 78 08 00       	cmp    WORD PTR [rax+0x8],0x0
     e03:	74 4a                	je     e4f <luaV_settable+0xaf>
     e05:	48 8b 55 00          	mov    rdx,QWORD PTR [rbp+0x0]
     e09:	48 89 10             	mov    QWORD PTR [rax],rdx
     e0c:	0f b7 55 08          	movzx  edx,WORD PTR [rbp+0x8]
     e10:	66 89 50 08          	mov    WORD PTR [rax+0x8],dx
     e14:	66 83 7d 08 00       	cmp    WORD PTR [rbp+0x8],0x0
     e19:	78 4d                	js     e68 <luaV_settable+0xc8>
}
     e1b:	48 8b 44 24 08       	mov    rax,QWORD PTR [rsp+0x8]
     e20:	64 48 33 04 25 28 00 	xor    rax,QWORD PTR fs:0x28
     e27:	00 00 
     e29:	0f 85 f1 01 00 00    	jne    1020 <luaV_settable+0x280>
     e2f:	48 83 c4 18          	add    rsp,0x18
     e33:	5b                   	pop    rbx
     e34:	5d                   	pop    rbp
     e35:	41 5c                	pop    r12
     e37:	41 5d                	pop    r13
     e39:	c3                   	ret    
     e3a:	66 0f 1f 44 00 00    	nop    WORD PTR [rax+rax*1+0x0]
  SETTABLE_INLINE(L, t, key, val);
     e40:	48 89 d6             	mov    rsi,rdx
     e43:	e8 00 00 00 00       	call   e48 <luaV_settable+0xa8>
     e48:	66 83 78 08 00       	cmp    WORD PTR [rax+0x8],0x0
     e4d:	75 b6                	jne    e05 <luaV_settable+0x65>
     e4f:	49 89 c0             	mov    r8,rax
     e52:	48 89 e9             	mov    rcx,rbp
     e55:	4c 89 e2             	mov    rdx,r12
     e58:	48 89 de             	mov    rsi,rbx
     e5b:	4c 89 ef             	mov    rdi,r13
     e5e:	e8 00 00 00 00       	call   e63 <luaV_settable+0xc3>
     e63:	eb b6                	jmp    e1b <luaV_settable+0x7b>
     e65:	0f 1f 00             	nop    DWORD PTR [rax]
     e68:	48 8b 33             	mov    rsi,QWORD PTR [rbx]
     e6b:	f6 46 09 04          	test   BYTE PTR [rsi+0x9],0x4
     e6f:	74 aa                	je     e1b <luaV_settable+0x7b>
     e71:	48 8b 45 00          	mov    rax,QWORD PTR [rbp+0x0]
     e75:	f6 40 09 03          	test   BYTE PTR [rax+0x9],0x3
     e79:	74 a0                	je     e1b <luaV_settable+0x7b>
     e7b:	4c 89 ef             	mov    rdi,r13
     e7e:	e8 00 00 00 00       	call   e83 <luaV_settable+0xe3>
     e83:	eb 96                	jmp    e1b <luaV_settable+0x7b>
     e85:	0f 1f 00             	nop    DWORD PTR [rax]
     e88:	66 3d 25 80          	cmp    ax,0x8025
     e8c:	74 62                	je     ef0 <luaV_settable+0x150>
     e8e:	66 3d 15 80          	cmp    ax,0x8015
     e92:	75 3c                	jne    ed0 <luaV_settable+0x130>
     e94:	66 83 7a 08 13       	cmp    WORD PTR [rdx+0x8],0x13
     e99:	48 8b 1e             	mov    rbx,QWORD PTR [rsi]
     e9c:	0f 85 a5 01 00 00    	jne    1047 <luaV_settable+0x2a7>
     ea2:	66 83 79 08 13       	cmp    WORD PTR [rcx+0x8],0x13
     ea7:	0f 85 93 00 00 00    	jne    f40 <luaV_settable+0x1a0>
     ead:	48 8b 02             	mov    rax,QWORD PTR [rdx]
     eb0:	48 8b 09             	mov    rcx,QWORD PTR [rcx]
     eb3:	89 c2                	mov    edx,eax
     eb5:	39 43 40             	cmp    DWORD PTR [rbx+0x40],eax
     eb8:	0f 86 17 01 00 00    	jbe    fd5 <luaV_settable+0x235>
     ebe:	48 8b 43 38          	mov    rax,QWORD PTR [rbx+0x38]
     ec2:	48 89 0c d0          	mov    QWORD PTR [rax+rdx*8],rcx
     ec6:	e9 50 ff ff ff       	jmp    e1b <luaV_settable+0x7b>
     ecb:	0f 1f 44 00 00       	nop    DWORD PTR [rax+rax*1+0x0]
     ed0:	45 31 c0             	xor    r8d,r8d
     ed3:	e8 00 00 00 00       	call   ed8 <luaV_settable+0x138>
}
     ed8:	e9 3e ff ff ff       	jmp    e1b <luaV_settable+0x7b>
     edd:	0f 1f 00             	nop    DWORD PTR [rax]
  SETTABLE_INLINE(L, t, key, val);
     ee0:	e8 00 00 00 00       	call   ee5 <luaV_settable+0x145>
     ee5:	e9 14 ff ff ff       	jmp    dfe <luaV_settable+0x5e>
     eea:	66 0f 1f 44 00 00    	nop    WORD PTR [rax+rax*1+0x0]
     ef0:	66 83 7a 08 13       	cmp    WORD PTR [rdx+0x8],0x13
     ef5:	48 8b 1e             	mov    rbx,QWORD PTR [rsi]
     ef8:	0f 85 49 01 00 00    	jne    1047 <luaV_settable+0x2a7>
     efe:	0f b7 41 08          	movzx  eax,WORD PTR [rcx+0x8]
     f02:	66 83 f8 03          	cmp    ax,0x3
     f06:	74 78                	je     f80 <luaV_settable+0x1e0>
     f08:	66 83 f8 13          	cmp    ax,0x13
     f0c:	0f 85 8e 00 00 00    	jne    fa0 <luaV_settable+0x200>
     f12:	48 8b 02             	mov    rax,QWORD PTR [rdx]
     f15:	66 0f ef c0          	pxor   xmm0,xmm0
     f19:	f2 48 0f 2a 01       	cvtsi2sd xmm0,QWORD PTR [rcx]
     f1e:	89 c2                	mov    edx,eax
     f20:	39 43 40             	cmp    DWORD PTR [rbx+0x40],eax
     f23:	0f 86 c9 00 00 00    	jbe    ff2 <luaV_settable+0x252>
     f29:	48 8b 43 38          	mov    rax,QWORD PTR [rbx+0x38]
     f2d:	f2 0f 11 04 d0       	movsd  QWORD PTR [rax+rdx*8],xmm0
     f32:	e9 e4 fe ff ff       	jmp    e1b <luaV_settable+0x7b>
     f37:	66 0f 1f 84 00 00 00 	nop    WORD PTR [rax+rax*1+0x0]
     f3e:	00 00 
  return luaV_tointeger(obj, p, LUA_FLOORN2I);
     f40:	31 d2                	xor    edx,edx
     f42:	48 89 e6             	mov    rsi,rsp
     f45:	48 89 cf             	mov    rdi,rcx
  SETTABLE_INLINE(L, t, key, val);
     f48:	48 c7 04 24 00 00 00 	mov    QWORD PTR [rsp],0x0
     f4f:	00 
  return luaV_tointeger(obj, p, LUA_FLOORN2I);
     f50:	e8 00 00 00 00       	call   f55 <luaV_settable+0x1b5>
  SETTABLE_INLINE(L, t, key, val);
     f55:	85 c0                	test   eax,eax
     f57:	0f 84 d9 00 00 00    	je     1036 <luaV_settable+0x296>
     f5d:	49 8b 04 24          	mov    rax,QWORD PTR [r12]
     f61:	48 8b 0c 24          	mov    rcx,QWORD PTR [rsp]
     f65:	89 c2                	mov    edx,eax
     f67:	39 43 40             	cmp    DWORD PTR [rbx+0x40],eax
     f6a:	76 76                	jbe    fe2 <luaV_settable+0x242>
     f6c:	48 8b 43 38          	mov    rax,QWORD PTR [rbx+0x38]
     f70:	48 89 0c d0          	mov    QWORD PTR [rax+rdx*8],rcx
     f74:	e9 a2 fe ff ff       	jmp    e1b <luaV_settable+0x7b>
     f79:	0f 1f 80 00 00 00 00 	nop    DWORD PTR [rax+0x0]
     f80:	48 8b 02             	mov    rax,QWORD PTR [rdx]
     f83:	89 c2                	mov    edx,eax
     f85:	39 43 40             	cmp    DWORD PTR [rbx+0x40],eax
     f88:	76 75                	jbe    fff <luaV_settable+0x25f>
     f8a:	f2 0f 10 01          	movsd  xmm0,QWORD PTR [rcx]
     f8e:	48 8b 43 38          	mov    rax,QWORD PTR [rbx+0x38]
     f92:	f2 0f 11 04 d0       	movsd  QWORD PTR [rax+rdx*8],xmm0
     f97:	e9 7f fe ff ff       	jmp    e1b <luaV_settable+0x7b>
     f9c:	0f 1f 40 00          	nop    DWORD PTR [rax+0x0]
     fa0:	48 89 e6             	mov    rsi,rsp
     fa3:	48 89 cf             	mov    rdi,rcx
     fa6:	48 c7 04 24 00 00 00 	mov    QWORD PTR [rsp],0x0
     fad:	00 
     fae:	e8 00 00 00 00       	call   fb3 <luaV_settable+0x213>
     fb3:	85 c0                	test   eax,eax
     fb5:	74 6e                	je     1025 <luaV_settable+0x285>
     fb7:	49 8b 04 24          	mov    rax,QWORD PTR [r12]
     fbb:	f2 0f 10 04 24       	movsd  xmm0,QWORD PTR [rsp]
     fc0:	89 c2                	mov    edx,eax
     fc2:	39 43 40             	cmp    DWORD PTR [rbx+0x40],eax
     fc5:	76 49                	jbe    1010 <luaV_settable+0x270>
     fc7:	48 8b 43 38          	mov    rax,QWORD PTR [rbx+0x38]
     fcb:	f2 0f 11 04 d0       	movsd  QWORD PTR [rax+rdx*8],xmm0
     fd0:	e9 46 fe ff ff       	jmp    e1b <luaV_settable+0x7b>
     fd5:	48 89 de             	mov    rsi,rbx
     fd8:	e8 00 00 00 00       	call   fdd <luaV_settable+0x23d>
     fdd:	e9 39 fe ff ff       	jmp    e1b <luaV_settable+0x7b>
     fe2:	48 89 de             	mov    rsi,rbx
     fe5:	4c 89 ef             	mov    rdi,r13
     fe8:	e8 00 00 00 00       	call   fed <luaV_settable+0x24d>
     fed:	e9 29 fe ff ff       	jmp    e1b <luaV_settable+0x7b>
     ff2:	48 89 de             	mov    rsi,rbx
     ff5:	e8 00 00 00 00       	call   ffa <luaV_settable+0x25a>
     ffa:	e9 1c fe ff ff       	jmp    e1b <luaV_settable+0x7b>
     fff:	f2 0f 10 01          	movsd  xmm0,QWORD PTR [rcx]
    1003:	48 89 de             	mov    rsi,rbx
    1006:	e8 00 00 00 00       	call   100b <luaV_settable+0x26b>
    100b:	e9 0b fe ff ff       	jmp    e1b <luaV_settable+0x7b>
    1010:	48 89 de             	mov    rsi,rbx
    1013:	4c 89 ef             	mov    rdi,r13
    1016:	e8 00 00 00 00       	call   101b <luaV_settable+0x27b>
    101b:	e9 fb fd ff ff       	jmp    e1b <luaV_settable+0x7b>
}
    1020:	e8 00 00 00 00       	call   1025 <luaV_settable+0x285>
  SETTABLE_INLINE(L, t, key, val);
    1025:	48 8d 35 00 00 00 00 	lea    rsi,[rip+0x0]        # 102c <luaV_settable+0x28c>
    102c:	4c 89 ef             	mov    rdi,r13
    102f:	31 c0                	xor    eax,eax
    1031:	e8 00 00 00 00       	call   1036 <luaV_settable+0x296>
    1036:	48 8d 35 00 00 00 00 	lea    rsi,[rip+0x0]        # 103d <luaV_settable+0x29d>
    103d:	4c 89 ef             	mov    rdi,r13
    1040:	31 c0                	xor    eax,eax
    1042:	e8 00 00 00 00       	call   1047 <luaV_settable+0x2a7>
    1047:	48 8d 15 00 00 00 00 	lea    rdx,[rip+0x0]        # 104e <luaV_settable+0x2ae>
    104e:	4c 89 e6             	mov    rsi,r12
    1051:	4c 89 ef             	mov    rdi,r13
    1054:	e8 00 00 00 00       	call   1059 <luaV_settable+0x2b9>
    1059:	0f 1f 80 00 00 00 00 	nop    DWORD PTR [rax+0x0]

0000000000001060 <luaV_lessthan>:
int luaV_lessthan (lua_State *L, const TValue *l, const TValue *r) {
    1060:	41 54                	push   r12
    1062:	49 89 fc             	mov    r12,rdi
    1065:	55                   	push   rbp
    1066:	48 89 d5             	mov    rbp,rdx
    1069:	53                   	push   rbx
    106a:	48 89 f3             	mov    rbx,rsi
  if (ttisnumber(l) && ttisnumber(r))  /* both operands are numbers? */
    106d:	0f b7 76 08          	movzx  esi,WORD PTR [rsi+0x8]
    1071:	89 f0                	mov    eax,esi
    1073:	83 e0 0f             	and    eax,0xf
    1076:	66 83 f8 03          	cmp    ax,0x3
    107a:	74 34                	je     10b0 <luaV_lessthan+0x50>
  else if (ttisstring(l) && ttisstring(r))  /* both are strings? */
    107c:	66 83 f8 04          	cmp    ax,0x4
    1080:	75 0d                	jne    108f <luaV_lessthan+0x2f>
    1082:	0f b7 42 08          	movzx  eax,WORD PTR [rdx+0x8]
    1086:	83 e0 0f             	and    eax,0xf
    1089:	66 83 f8 04          	cmp    ax,0x4
    108d:	74 41                	je     10d0 <luaV_lessthan+0x70>
  else if ((res = luaT_callorderTM(L, l, r, TM_LT)) < 0)  /* no metamethod? */
    108f:	b9 14 00 00 00       	mov    ecx,0x14
    1094:	48 89 ea             	mov    rdx,rbp
    1097:	48 89 de             	mov    rsi,rbx
    109a:	4c 89 e7             	mov    rdi,r12
    109d:	e8 00 00 00 00       	call   10a2 <luaV_lessthan+0x42>
    10a2:	85 c0                	test   eax,eax
    10a4:	78 3a                	js     10e0 <luaV_lessthan+0x80>
}
    10a6:	5b                   	pop    rbx
    10a7:	5d                   	pop    rbp
    10a8:	41 5c                	pop    r12
    10aa:	c3                   	ret    
    10ab:	0f 1f 44 00 00       	nop    DWORD PTR [rax+rax*1+0x0]
  if (ttisnumber(l) && ttisnumber(r))  /* both operands are numbers? */
    10b0:	0f b7 4a 08          	movzx  ecx,WORD PTR [rdx+0x8]
    10b4:	89 c8                	mov    eax,ecx
    10b6:	83 e0 0f             	and    eax,0xf
    10b9:	66 83 f8 03          	cmp    ax,0x3
    10bd:	75 d0                	jne    108f <luaV_lessthan+0x2f>
    return LTnum(l, r);
    10bf:	48 8b 3b             	mov    rdi,QWORD PTR [rbx]
    10c2:	48 8b 12             	mov    rdx,QWORD PTR [rdx]
}
    10c5:	5b                   	pop    rbx
    10c6:	5d                   	pop    rbp
    10c7:	41 5c                	pop    r12
    return LTnum(l, r);
    10c9:	e9 d2 f3 ff ff       	jmp    4a0 <LTnum.isra.2>
    10ce:	66 90                	xchg   ax,ax
    return l_strcmp(tsvalue(l), tsvalue(r)) < 0;
    10d0:	48 8b 32             	mov    rsi,QWORD PTR [rdx]
    10d3:	48 8b 3b             	mov    rdi,QWORD PTR [rbx]
    10d6:	e8 a5 ef ff ff       	call   80 <l_strcmp>
    10db:	c1 e8 1f             	shr    eax,0x1f
    10de:	eb c6                	jmp    10a6 <luaV_lessthan+0x46>
    luaG_ordererror(L, l, r);  /* error */
    10e0:	48 89 ea             	mov    rdx,rbp
    10e3:	48 89 de             	mov    rsi,rbx
    10e6:	4c 89 e7             	mov    rdi,r12
    10e9:	e8 00 00 00 00       	call   10ee <luaV_lessthan+0x8e>
    10ee:	66 90                	xchg   ax,ax

00000000000010f0 <luaV_lessequal>:
int luaV_lessequal (lua_State *L, const TValue *l, const TValue *r) {
    10f0:	41 54                	push   r12
    10f2:	49 89 fc             	mov    r12,rdi
    10f5:	55                   	push   rbp
    10f6:	48 89 d5             	mov    rbp,rdx
    10f9:	53                   	push   rbx
    10fa:	48 89 f3             	mov    rbx,rsi
  if (ttisnumber(l) && ttisnumber(r))  /* both operands are numbers? */
    10fd:	0f b7 76 08          	movzx  esi,WORD PTR [rsi+0x8]
    1101:	89 f0                	mov    eax,esi
    1103:	83 e0 0f             	and    eax,0xf
    1106:	66 83 f8 03          	cmp    ax,0x3
    110a:	74 74                	je     1180 <luaV_lessequal+0x90>
  else if (ttisstring(l) && ttisstring(r))  /* both are strings? */
    110c:	66 83 f8 04          	cmp    ax,0x4
    1110:	75 11                	jne    1123 <luaV_lessequal+0x33>
    1112:	0f b7 42 08          	movzx  eax,WORD PTR [rdx+0x8]
    1116:	83 e0 0f             	and    eax,0xf
    1119:	66 83 f8 04          	cmp    ax,0x4
    111d:	0f 84 7d 00 00 00    	je     11a0 <luaV_lessequal+0xb0>
  else if ((res = luaT_callorderTM(L, l, r, TM_LE)) >= 0)  /* try 'le' */
    1123:	b9 15 00 00 00       	mov    ecx,0x15
    1128:	48 89 ea             	mov    rdx,rbp
    112b:	48 89 de             	mov    rsi,rbx
    112e:	4c 89 e7             	mov    rdi,r12
    1131:	e8 00 00 00 00       	call   1136 <luaV_lessequal+0x46>
    1136:	85 c0                	test   eax,eax
    1138:	78 06                	js     1140 <luaV_lessequal+0x50>
}
    113a:	5b                   	pop    rbx
    113b:	5d                   	pop    rbp
    113c:	41 5c                	pop    r12
    113e:	c3                   	ret    
    113f:	90                   	nop
    L->ci->callstatus |= CIST_LEQ;  /* mark it is doing 'lt' for 'le' */
    1140:	49 8b 44 24 20       	mov    rax,QWORD PTR [r12+0x20]
    res = luaT_callorderTM(L, r, l, TM_LT);
    1145:	48 89 da             	mov    rdx,rbx
    1148:	b9 14 00 00 00       	mov    ecx,0x14
    114d:	48 89 ee             	mov    rsi,rbp
    1150:	4c 89 e7             	mov    rdi,r12
    L->ci->callstatus |= CIST_LEQ;  /* mark it is doing 'lt' for 'le' */
    1153:	66 81 48 42 80 00    	or     WORD PTR [rax+0x42],0x80
    res = luaT_callorderTM(L, r, l, TM_LT);
    1159:	e8 00 00 00 00       	call   115e <luaV_lessequal+0x6e>
    L->ci->callstatus ^= CIST_LEQ;  /* clear mark */
    115e:	49 8b 54 24 20       	mov    rdx,QWORD PTR [r12+0x20]
    1163:	66 81 72 42 80 00    	xor    WORD PTR [rdx+0x42],0x80
    if (res < 0)
    1169:	85 c0                	test   eax,eax
    116b:	78 48                	js     11b5 <luaV_lessequal+0xc5>
    return !res;  /* result is negated */
    116d:	0f 94 c0             	sete   al
}
    1170:	5b                   	pop    rbx
    1171:	5d                   	pop    rbp
    return !res;  /* result is negated */
    1172:	0f b6 c0             	movzx  eax,al
}
    1175:	41 5c                	pop    r12
    1177:	c3                   	ret    
    1178:	0f 1f 84 00 00 00 00 	nop    DWORD PTR [rax+rax*1+0x0]
    117f:	00 
  if (ttisnumber(l) && ttisnumber(r))  /* both operands are numbers? */
    1180:	0f b7 4a 08          	movzx  ecx,WORD PTR [rdx+0x8]
    1184:	89 c8                	mov    eax,ecx
    1186:	83 e0 0f             	and    eax,0xf
    1189:	66 83 f8 03          	cmp    ax,0x3
    118d:	75 94                	jne    1123 <luaV_lessequal+0x33>
    return LEnum(l, r);
    118f:	48 8b 3b             	mov    rdi,QWORD PTR [rbx]
    1192:	48 8b 12             	mov    rdx,QWORD PTR [rdx]
}
    1195:	5b                   	pop    rbx
    1196:	5d                   	pop    rbp
    1197:	41 5c                	pop    r12
    return LEnum(l, r);
    1199:	e9 b2 f1 ff ff       	jmp    350 <LEnum.isra.4>
    119e:	66 90                	xchg   ax,ax
    return l_strcmp(tsvalue(l), tsvalue(r)) <= 0;
    11a0:	48 8b 32             	mov    rsi,QWORD PTR [rdx]
    11a3:	48 8b 3b             	mov    rdi,QWORD PTR [rbx]
    11a6:	e8 d5 ee ff ff       	call   80 <l_strcmp>
    11ab:	85 c0                	test   eax,eax
    11ad:	0f 9e c0             	setle  al
    11b0:	0f b6 c0             	movzx  eax,al
    11b3:	eb 85                	jmp    113a <luaV_lessequal+0x4a>
      luaG_ordererror(L, l, r);
    11b5:	48 89 ea             	mov    rdx,rbp
    11b8:	48 89 de             	mov    rsi,rbx
    11bb:	4c 89 e7             	mov    rdi,r12
    11be:	e8 00 00 00 00       	call   11c3 <luaV_lessequal+0xd3>
    11c3:	66 66 2e 0f 1f 84 00 	data16 nop WORD PTR cs:[rax+rax*1+0x0]
    11ca:	00 00 00 00 
    11ce:	66 90                	xchg   ax,ax

00000000000011d0 <luaV_equalobj>:
int luaV_equalobj (lua_State *L, const TValue *t1, const TValue *t2) {
    11d0:	41 54                	push   r12
    11d2:	55                   	push   rbp
    11d3:	48 89 f5             	mov    rbp,rsi
    11d6:	53                   	push   rbx
    11d7:	48 89 d3             	mov    rbx,rdx
    11da:	48 83 ec 20          	sub    rsp,0x20
  if (ttype(t1) != ttype(t2)) {  /* not the same variant? */
    11de:	0f b7 4a 08          	movzx  ecx,WORD PTR [rdx+0x8]
int luaV_equalobj (lua_State *L, const TValue *t1, const TValue *t2) {
    11e2:	64 48 8b 04 25 28 00 	mov    rax,QWORD PTR fs:0x28
    11e9:	00 00 
    11eb:	48 89 44 24 18       	mov    QWORD PTR [rsp+0x18],rax
    11f0:	31 c0                	xor    eax,eax
  if (ttype(t1) != ttype(t2)) {  /* not the same variant? */
    11f2:	0f b7 46 08          	movzx  eax,WORD PTR [rsi+0x8]
    11f6:	89 c2                	mov    edx,eax
    11f8:	31 ca                	xor    edx,ecx
    11fa:	f6 c2 7f             	test   dl,0x7f
    11fd:	74 31                	je     1230 <luaV_equalobj+0x60>
    if (ttnov(t1) != ttnov(t2) || ttnov(t1) != LUA_TNUMBER)
    11ff:	83 e2 0f             	and    edx,0xf
    1202:	75 0b                	jne    120f <luaV_equalobj+0x3f>
    1204:	89 c2                	mov    edx,eax
    1206:	83 e2 0f             	and    edx,0xf
    1209:	66 83 fa 03          	cmp    dx,0x3
    120d:	74 49                	je     1258 <luaV_equalobj+0x88>
  return !l_isfalse(L->top);
    120f:	31 c0                	xor    eax,eax
}
    1211:	48 8b 74 24 18       	mov    rsi,QWORD PTR [rsp+0x18]
    1216:	64 48 33 34 25 28 00 	xor    rsi,QWORD PTR fs:0x28
    121d:	00 00 
    121f:	0f 85 f8 02 00 00    	jne    151d <luaV_equalobj+0x34d>
    1225:	48 83 c4 20          	add    rsp,0x20
    1229:	5b                   	pop    rbx
    122a:	5d                   	pop    rbp
    122b:	41 5c                	pop    r12
    122d:	c3                   	ret    
    122e:	66 90                	xchg   ax,ax
  switch (ttype(t1)) {
    1230:	83 e0 7f             	and    eax,0x7f
    1233:	66 83 f8 46          	cmp    ax,0x46
    1237:	0f 87 9b 00 00 00    	ja     12d8 <luaV_equalobj+0x108>
    123d:	48 8d 15 00 00 00 00 	lea    rdx,[rip+0x0]        # 1244 <luaV_equalobj+0x74>
    1244:	0f b7 c0             	movzx  eax,ax
    1247:	49 89 fc             	mov    r12,rdi
    124a:	48 63 04 82          	movsxd rax,DWORD PTR [rdx+rax*4]
    124e:	48 01 d0             	add    rax,rdx
    1251:	ff e0                	jmp    rax
    1253:	0f 1f 44 00 00       	nop    DWORD PTR [rax+rax*1+0x0]
      return (tointegerns(t1, &i1) && tointegerns(t2, &i2) && i1 == i2);
    1258:	66 83 f8 13          	cmp    ax,0x13
    125c:	0f 84 46 02 00 00    	je     14a8 <luaV_equalobj+0x2d8>
  if (!ttisfloat(obj))
    1262:	66 83 f8 03          	cmp    ax,0x3
    1266:	0f 85 84 00 00 00    	jne    12f0 <luaV_equalobj+0x120>
    126c:	31 d2                	xor    edx,edx
    126e:	48 8d 74 24 08       	lea    rsi,[rsp+0x8]
    1273:	48 89 ef             	mov    rdi,rbp
    1276:	e8 15 f0 ff ff       	call   290 <luaV_flttointeger.part.7>
      return (tointegerns(t1, &i1) && tointegerns(t2, &i2) && i1 == i2);
    127b:	85 c0                	test   eax,eax
    127d:	74 71                	je     12f0 <luaV_equalobj+0x120>
    127f:	0f b7 4b 08          	movzx  ecx,WORD PTR [rbx+0x8]
    1283:	66 83 f9 13          	cmp    cx,0x13
    1287:	0f 84 2b 02 00 00    	je     14b8 <luaV_equalobj+0x2e8>
  if (!ttisfloat(obj))
    128d:	66 83 f9 03          	cmp    cx,0x3
    1291:	75 5d                	jne    12f0 <luaV_equalobj+0x120>
    1293:	31 d2                	xor    edx,edx
    1295:	48 8d 74 24 10       	lea    rsi,[rsp+0x10]
    129a:	48 89 df             	mov    rdi,rbx
    129d:	e8 ee ef ff ff       	call   290 <luaV_flttointeger.part.7>
      return (tointegerns(t1, &i1) && tointegerns(t2, &i2) && i1 == i2);
    12a2:	85 c0                	test   eax,eax
    12a4:	74 4a                	je     12f0 <luaV_equalobj+0x120>
    12a6:	48 8b 44 24 10       	mov    rax,QWORD PTR [rsp+0x10]
    12ab:	48 39 44 24 08       	cmp    QWORD PTR [rsp+0x8],rax
    12b0:	0f 94 c0             	sete   al
    12b3:	0f b6 c0             	movzx  eax,al
    12b6:	e9 56 ff ff ff       	jmp    1211 <luaV_equalobj+0x41>
    12bb:	0f 1f 44 00 00       	nop    DWORD PTR [rax+rax*1+0x0]
    case LUA_TLIGHTUSERDATA: return pvalue(t1) == pvalue(t2);
    12c0:	48 8b 03             	mov    rax,QWORD PTR [rbx]
    12c3:	48 39 06             	cmp    QWORD PTR [rsi],rax
    12c6:	0f 94 c0             	sete   al
    12c9:	0f b6 c0             	movzx  eax,al
    12cc:	e9 40 ff ff ff       	jmp    1211 <luaV_equalobj+0x41>
    12d1:	0f 1f 80 00 00 00 00 	nop    DWORD PTR [rax+0x0]
    case LUA_TSHRSTR: return eqshrstr(tsvalue(t1), tsvalue(t2));
    12d8:	48 8b 03             	mov    rax,QWORD PTR [rbx]
    12db:	48 39 45 00          	cmp    QWORD PTR [rbp+0x0],rax
    12df:	0f 94 c0             	sete   al
    12e2:	0f b6 c0             	movzx  eax,al
    12e5:	e9 27 ff ff ff       	jmp    1211 <luaV_equalobj+0x41>
    12ea:	66 0f 1f 44 00 00    	nop    WORD PTR [rax+rax*1+0x0]
      return (tointegerns(t1, &i1) && tointegerns(t2, &i2) && i1 == i2);
    12f0:	31 c0                	xor    eax,eax
    12f2:	e9 1a ff ff ff       	jmp    1211 <luaV_equalobj+0x41>
    12f7:	66 0f 1f 84 00 00 00 	nop    WORD PTR [rax+rax*1+0x0]
    12fe:	00 00 
    case LUA_TNIL: return 1;
    1300:	b8 01 00 00 00       	mov    eax,0x1
    1305:	e9 07 ff ff ff       	jmp    1211 <luaV_equalobj+0x41>
    130a:	66 0f 1f 44 00 00    	nop    WORD PTR [rax+rax*1+0x0]
    case LUA_TBOOLEAN: return bvalue(t1) == bvalue(t2);  /* true must be 1 !! */
    1310:	8b 03                	mov    eax,DWORD PTR [rbx]
    1312:	39 06                	cmp    DWORD PTR [rsi],eax
    1314:	0f 94 c0             	sete   al
    1317:	0f b6 c0             	movzx  eax,al
    131a:	e9 f2 fe ff ff       	jmp    1211 <luaV_equalobj+0x41>
    131f:	90                   	nop
    case LUA_TNUMFLT: return luai_numeq(fltvalue(t1), fltvalue(t2));
    1320:	31 c0                	xor    eax,eax
    1322:	f2 0f 10 06          	movsd  xmm0,QWORD PTR [rsi]
    1326:	66 0f 2e 03          	ucomisd xmm0,QWORD PTR [rbx]
    132a:	ba 00 00 00 00       	mov    edx,0x0
    132f:	0f 9b c0             	setnp  al
    1332:	0f 45 c2             	cmovne eax,edx
    1335:	e9 d7 fe ff ff       	jmp    1211 <luaV_equalobj+0x41>
    133a:	66 0f 1f 44 00 00    	nop    WORD PTR [rax+rax*1+0x0]
      if (hvalue(t1) == hvalue(t2)) return 1;
    1340:	48 8b 06             	mov    rax,QWORD PTR [rsi]
    1343:	48 8b 13             	mov    rdx,QWORD PTR [rbx]
    1346:	48 39 d0             	cmp    rax,rdx
    1349:	0f 84 8a 00 00 00    	je     13d9 <luaV_equalobj+0x209>
      else if (L == NULL) return 0;
    134f:	48 85 ff             	test   rdi,rdi
    1352:	0f 84 b7 fe ff ff    	je     120f <luaV_equalobj+0x3f>
      tm = fasttm(L, hvalue(t1)->metatable, TM_EQ);
    1358:	48 8b 78 28          	mov    rdi,QWORD PTR [rax+0x28]
    135c:	48 85 ff             	test   rdi,rdi
    135f:	74 0a                	je     136b <luaV_equalobj+0x19b>
    1361:	f6 47 0a 20          	test   BYTE PTR [rdi+0xa],0x20
    1365:	0f 84 7c 01 00 00    	je     14e7 <luaV_equalobj+0x317>
        tm = fasttm(L, hvalue(t2)->metatable, TM_EQ);
    136b:	48 8b 7a 28          	mov    rdi,QWORD PTR [rdx+0x28]
    136f:	48 85 ff             	test   rdi,rdi
    1372:	0f 84 97 fe ff ff    	je     120f <luaV_equalobj+0x3f>
    1378:	f6 47 0a 20          	test   BYTE PTR [rdi+0xa],0x20
    137c:	0f 85 8d fe ff ff    	jne    120f <luaV_equalobj+0x3f>
    1382:	49 8b 44 24 18       	mov    rax,QWORD PTR [r12+0x18]
    1387:	be 05 00 00 00       	mov    esi,0x5
    138c:	48 8b 90 08 01 00 00 	mov    rdx,QWORD PTR [rax+0x108]
    1393:	e8 00 00 00 00       	call   1398 <luaV_equalobj+0x1c8>
  if (tm == NULL)  /* no TM? */
    1398:	48 85 c0             	test   rax,rax
    139b:	0f 84 6e fe ff ff    	je     120f <luaV_equalobj+0x3f>
  luaT_callTM(L, tm, t1, t2, L->top, 1);  /* call TM */
    13a1:	4d 8b 44 24 10       	mov    r8,QWORD PTR [r12+0x10]
    13a6:	48 89 ea             	mov    rdx,rbp
    13a9:	48 89 c6             	mov    rsi,rax
    13ac:	48 89 d9             	mov    rcx,rbx
    13af:	41 b9 01 00 00 00    	mov    r9d,0x1
    13b5:	4c 89 e7             	mov    rdi,r12
    13b8:	e8 00 00 00 00       	call   13bd <luaV_equalobj+0x1ed>
  return !l_isfalse(L->top);
    13bd:	49 8b 54 24 10       	mov    rdx,QWORD PTR [r12+0x10]
    13c2:	0f b7 42 08          	movzx  eax,WORD PTR [rdx+0x8]
    13c6:	66 85 c0             	test   ax,ax
    13c9:	0f 84 40 fe ff ff    	je     120f <luaV_equalobj+0x3f>
    13cf:	66 83 f8 01          	cmp    ax,0x1
    13d3:	0f 84 35 01 00 00    	je     150e <luaV_equalobj+0x33e>
      if (uvalue(t1) == uvalue(t2)) return 1;
    13d9:	b8 01 00 00 00       	mov    eax,0x1
    13de:	e9 2e fe ff ff       	jmp    1211 <luaV_equalobj+0x41>
    13e3:	0f 1f 44 00 00       	nop    DWORD PTR [rax+rax*1+0x0]
    13e8:	48 8b 06             	mov    rax,QWORD PTR [rsi]
    13eb:	48 8b 13             	mov    rdx,QWORD PTR [rbx]
    13ee:	48 39 d0             	cmp    rax,rdx
    13f1:	74 e6                	je     13d9 <luaV_equalobj+0x209>
      else if (L == NULL) return 0;
    13f3:	48 85 ff             	test   rdi,rdi
    13f6:	0f 84 13 fe ff ff    	je     120f <luaV_equalobj+0x3f>
      tm = fasttm(L, uvalue(t1)->metatable, TM_EQ);
    13fc:	48 8b 78 10          	mov    rdi,QWORD PTR [rax+0x10]
    1400:	48 85 ff             	test   rdi,rdi
    1403:	74 0a                	je     140f <luaV_equalobj+0x23f>
    1405:	f6 47 0a 20          	test   BYTE PTR [rdi+0xa],0x20
    1409:	0f 84 b1 00 00 00    	je     14c0 <luaV_equalobj+0x2f0>
        tm = fasttm(L, uvalue(t2)->metatable, TM_EQ);
    140f:	48 8b 7a 10          	mov    rdi,QWORD PTR [rdx+0x10]
    1413:	48 85 ff             	test   rdi,rdi
    1416:	0f 84 f3 fd ff ff    	je     120f <luaV_equalobj+0x3f>
    141c:	f6 47 0a 20          	test   BYTE PTR [rdi+0xa],0x20
    1420:	0f 85 e9 fd ff ff    	jne    120f <luaV_equalobj+0x3f>
    1426:	49 8b 44 24 18       	mov    rax,QWORD PTR [r12+0x18]
    142b:	be 05 00 00 00       	mov    esi,0x5
    1430:	48 8b 90 08 01 00 00 	mov    rdx,QWORD PTR [rax+0x108]
    1437:	e8 00 00 00 00       	call   143c <luaV_equalobj+0x26c>
    143c:	e9 57 ff ff ff       	jmp    1398 <luaV_equalobj+0x1c8>
    1441:	0f 1f 80 00 00 00 00 	nop    DWORD PTR [rax+0x0]
    case LUA_TNUMINT: return (ivalue(t1) == ivalue(t2));
    1448:	48 8b 03             	mov    rax,QWORD PTR [rbx]
    144b:	48 39 06             	cmp    QWORD PTR [rsi],rax
    144e:	0f 94 c0             	sete   al
    1451:	0f b6 c0             	movzx  eax,al
    1454:	e9 b8 fd ff ff       	jmp    1211 <luaV_equalobj+0x41>
    1459:	0f 1f 80 00 00 00 00 	nop    DWORD PTR [rax+0x0]
    case LUA_TLNGSTR: return luaS_eqlngstr(tsvalue(t1), tsvalue(t2));
    1460:	48 8b 33             	mov    rsi,QWORD PTR [rbx]
    1463:	48 8b 7d 00          	mov    rdi,QWORD PTR [rbp+0x0]
    1467:	e8 00 00 00 00       	call   146c <luaV_equalobj+0x29c>
    146c:	e9 a0 fd ff ff       	jmp    1211 <luaV_equalobj+0x41>
    1471:	0f 1f 80 00 00 00 00 	nop    DWORD PTR [rax+0x0]
      if (hvalue(t1) == hvalue(t2)) return 1;
    1478:	48 8b 03             	mov    rax,QWORD PTR [rbx]
    147b:	48 39 06             	cmp    QWORD PTR [rsi],rax
    147e:	0f 94 c0             	sete   al
    1481:	0f b6 c0             	movzx  eax,al
    1484:	e9 88 fd ff ff       	jmp    1211 <luaV_equalobj+0x41>
    1489:	0f 1f 80 00 00 00 00 	nop    DWORD PTR [rax+0x0]
    case LUA_TLCF: return fvalue(t1) == fvalue(t2);
    1490:	48 8b 03             	mov    rax,QWORD PTR [rbx]
    1493:	48 39 06             	cmp    QWORD PTR [rsi],rax
    1496:	0f 94 c0             	sete   al
    1499:	0f b6 c0             	movzx  eax,al
    149c:	e9 70 fd ff ff       	jmp    1211 <luaV_equalobj+0x41>
    14a1:	0f 1f 80 00 00 00 00 	nop    DWORD PTR [rax+0x0]
      return (tointegerns(t1, &i1) && tointegerns(t2, &i2) && i1 == i2);
    14a8:	48 8b 06             	mov    rax,QWORD PTR [rsi]
    14ab:	48 89 44 24 08       	mov    QWORD PTR [rsp+0x8],rax
    14b0:	e9 ce fd ff ff       	jmp    1283 <luaV_equalobj+0xb3>
    14b5:	0f 1f 00             	nop    DWORD PTR [rax]
    14b8:	48 8b 03             	mov    rax,QWORD PTR [rbx]
    14bb:	e9 eb fd ff ff       	jmp    12ab <luaV_equalobj+0xdb>
      tm = fasttm(L, uvalue(t1)->metatable, TM_EQ);
    14c0:	49 8b 44 24 18       	mov    rax,QWORD PTR [r12+0x18]
    14c5:	be 05 00 00 00       	mov    esi,0x5
    14ca:	48 8b 90 08 01 00 00 	mov    rdx,QWORD PTR [rax+0x108]
    14d1:	e8 00 00 00 00       	call   14d6 <luaV_equalobj+0x306>
      if (tm == NULL)
    14d6:	48 85 c0             	test   rax,rax
    14d9:	0f 85 c2 fe ff ff    	jne    13a1 <luaV_equalobj+0x1d1>
    14df:	48 8b 13             	mov    rdx,QWORD PTR [rbx]
    14e2:	e9 28 ff ff ff       	jmp    140f <luaV_equalobj+0x23f>
      tm = fasttm(L, hvalue(t1)->metatable, TM_EQ);
    14e7:	49 8b 44 24 18       	mov    rax,QWORD PTR [r12+0x18]
    14ec:	be 05 00 00 00       	mov    esi,0x5
    14f1:	48 8b 90 08 01 00 00 	mov    rdx,QWORD PTR [rax+0x108]
    14f8:	e8 00 00 00 00       	call   14fd <luaV_equalobj+0x32d>
      if (tm == NULL)
    14fd:	48 85 c0             	test   rax,rax
    1500:	0f 85 9b fe ff ff    	jne    13a1 <luaV_equalobj+0x1d1>
    1506:	48 8b 13             	mov    rdx,QWORD PTR [rbx]
    1509:	e9 5d fe ff ff       	jmp    136b <luaV_equalobj+0x19b>
  return !l_isfalse(L->top);
    150e:	8b 02                	mov    eax,DWORD PTR [rdx]
    1510:	85 c0                	test   eax,eax
    1512:	0f 85 c1 fe ff ff    	jne    13d9 <luaV_equalobj+0x209>
    1518:	e9 f2 fc ff ff       	jmp    120f <luaV_equalobj+0x3f>
}
    151d:	e8 00 00 00 00       	call   1522 <luaV_equalobj+0x352>
    1522:	66 66 2e 0f 1f 84 00 	data16 nop WORD PTR cs:[rax+rax*1+0x0]
    1529:	00 00 00 00 
    152d:	0f 1f 00             	nop    DWORD PTR [rax]

0000000000001530 <luaV_concat>:
void luaV_concat (lua_State *L, int total) {
    1530:	41 57                	push   r15
    1532:	41 56                	push   r14
    1534:	41 55                	push   r13
    1536:	41 54                	push   r12
    1538:	55                   	push   rbp
    1539:	89 f5                	mov    ebp,esi
    153b:	53                   	push   rbx
    153c:	48 89 fb             	mov    rbx,rdi
    153f:	48 83 ec 68          	sub    rsp,0x68
    1543:	4c 8b 7f 10          	mov    r15,QWORD PTR [rdi+0x10]
    1547:	64 48 8b 04 25 28 00 	mov    rax,QWORD PTR fs:0x28
    154e:	00 00 
    1550:	48 89 44 24 58       	mov    QWORD PTR [rsp+0x58],rax
    1555:	31 c0                	xor    eax,eax
        copy2buff(top, n, buff);  /* copy strings to buffer */
    1557:	48 8d 44 24 30       	lea    rax,[rsp+0x30]
    155c:	48 89 44 24 28       	mov    QWORD PTR [rsp+0x28],rax
    1561:	eb 4e                	jmp    15b1 <luaV_concat+0x81>
    1563:	0f 1f 44 00 00       	nop    DWORD PTR [rax+rax*1+0x0]
    if (!(ttisstring(top-2) || cvt2str(top-2)) || !tostring(L, top-1))
    1568:	41 0f b7 47 f8       	movzx  eax,WORD PTR [r15-0x8]
    156d:	89 c6                	mov    esi,eax
    156f:	83 e6 0f             	and    esi,0xf
    1572:	66 83 fe 04          	cmp    si,0x4
    1576:	74 6d                	je     15e5 <luaV_concat+0xb5>
    1578:	49 8d 57 f0          	lea    rdx,[r15-0x10]
    157c:	66 83 fe 03          	cmp    si,0x3
    1580:	74 4e                	je     15d0 <luaV_concat+0xa0>
      luaT_trybinTM(L, top-2, top-1, top-2, TM_CONCAT);
    1582:	49 8d 77 e0          	lea    rsi,[r15-0x20]
    1586:	41 b8 16 00 00 00    	mov    r8d,0x16
    158c:	48 89 df             	mov    rdi,rbx
    158f:	83 ed 01             	sub    ebp,0x1
    1592:	48 89 f1             	mov    rcx,rsi
    1595:	e8 00 00 00 00       	call   159a <luaV_concat+0x6a>
    159a:	49 c7 c0 f0 ff ff ff 	mov    r8,0xfffffffffffffff0
    L->top -= n-1;  /* popped 'n' strings and pushed one */
    15a1:	4c 8b 7b 10          	mov    r15,QWORD PTR [rbx+0x10]
    15a5:	4d 01 c7             	add    r15,r8
    15a8:	4c 89 7b 10          	mov    QWORD PTR [rbx+0x10],r15
  } while (total > 1);  /* repeat until only 1 result left */
    15ac:	83 fd 01             	cmp    ebp,0x1
    15af:	7e 7f                	jle    1630 <luaV_concat+0x100>
    if (!(ttisstring(top-2) || cvt2str(top-2)) || !tostring(L, top-1))
    15b1:	41 0f b7 57 e8       	movzx  edx,WORD PTR [r15-0x18]
    15b6:	89 d0                	mov    eax,edx
    15b8:	83 e0 0f             	and    eax,0xf
    15bb:	83 e8 03             	sub    eax,0x3
    15be:	83 f8 01             	cmp    eax,0x1
    15c1:	76 a5                	jbe    1568 <luaV_concat+0x38>
    15c3:	49 8d 57 f0          	lea    rdx,[r15-0x10]
    15c7:	eb b9                	jmp    1582 <luaV_concat+0x52>
    15c9:	0f 1f 80 00 00 00 00 	nop    DWORD PTR [rax+0x0]
    15d0:	48 89 d6             	mov    rsi,rdx
    15d3:	48 89 df             	mov    rdi,rbx
    15d6:	e8 00 00 00 00       	call   15db <luaV_concat+0xab>
    15db:	41 0f b7 47 f8       	movzx  eax,WORD PTR [r15-0x8]
    15e0:	41 0f b7 57 e8       	movzx  edx,WORD PTR [r15-0x18]
    else if (isemptystr(top - 1))  /* second operand is empty? */
    15e5:	49 8b 77 f0          	mov    rsi,QWORD PTR [r15-0x10]
    15e9:	66 3d 04 80          	cmp    ax,0x8004
    15ed:	0f 84 35 01 00 00    	je     1728 <luaV_concat+0x1f8>
    else if (isemptystr(top - 2)) {  /* first operand is an empty string? */
    15f3:	66 81 fa 04 80       	cmp    dx,0x8004
    15f8:	75 5e                	jne    1658 <luaV_concat+0x128>
    15fa:	49 8b 57 e0          	mov    rdx,QWORD PTR [r15-0x20]
    15fe:	80 7a 0b 00          	cmp    BYTE PTR [rdx+0xb],0x0
    1602:	75 54                	jne    1658 <luaV_concat+0x128>
      setobjs2s(L, top - 2, top - 1);  /* result is second op. */
    1604:	49 8b 57 f0          	mov    rdx,QWORD PTR [r15-0x10]
    1608:	66 41 89 47 e8       	mov    WORD PTR [r15-0x18],ax
    160d:	49 c7 c0 f0 ff ff ff 	mov    r8,0xfffffffffffffff0
    1614:	83 ed 01             	sub    ebp,0x1
    1617:	49 89 57 e0          	mov    QWORD PTR [r15-0x20],rdx
    L->top -= n-1;  /* popped 'n' strings and pushed one */
    161b:	4c 8b 7b 10          	mov    r15,QWORD PTR [rbx+0x10]
    161f:	4d 01 c7             	add    r15,r8
    1622:	4c 89 7b 10          	mov    QWORD PTR [rbx+0x10],r15
  } while (total > 1);  /* repeat until only 1 result left */
    1626:	83 fd 01             	cmp    ebp,0x1
    1629:	7f 86                	jg     15b1 <luaV_concat+0x81>
    162b:	0f 1f 44 00 00       	nop    DWORD PTR [rax+rax*1+0x0]
}
    1630:	48 8b 44 24 58       	mov    rax,QWORD PTR [rsp+0x58]
    1635:	64 48 33 04 25 28 00 	xor    rax,QWORD PTR fs:0x28
    163c:	00 00 
    163e:	0f 85 2e 02 00 00    	jne    1872 <luaV_concat+0x342>
    1644:	48 83 c4 68          	add    rsp,0x68
    1648:	5b                   	pop    rbx
    1649:	5d                   	pop    rbp
    164a:	41 5c                	pop    r12
    164c:	41 5d                	pop    r13
    164e:	41 5e                	pop    r14
    1650:	41 5f                	pop    r15
    1652:	c3                   	ret    
    1653:	0f 1f 44 00 00       	nop    DWORD PTR [rax+rax*1+0x0]
      size_t tl = vslen(top - 1);
    1658:	80 7e 08 04          	cmp    BYTE PTR [rsi+0x8],0x4
    165c:	0f 84 de 01 00 00    	je     1840 <luaV_concat+0x310>
    1662:	4c 8b 76 10          	mov    r14,QWORD PTR [rsi+0x10]
      for (n = 1; n < total && tostring(L, top - n - 1); n++) {
    1666:	83 fd 01             	cmp    ebp,0x1
    1669:	0f 8e db 01 00 00    	jle    184a <luaV_concat+0x31a>
    166f:	44 8d 65 fe          	lea    r12d,[rbp-0x2]
    1673:	4d 8d 47 e0          	lea    r8,[r15-0x20]
    1677:	49 8d 44 24 02       	lea    rax,[r12+0x2]
    167c:	41 bc 01 00 00 00    	mov    r12d,0x1
    1682:	48 89 44 24 18       	mov    QWORD PTR [rsp+0x18],rax
    1687:	eb 3b                	jmp    16c4 <luaV_concat+0x194>
    1689:	0f 1f 80 00 00 00 00 	nop    DWORD PTR [rax+0x0]
        size_t l = vslen(top - n - 1);
    1690:	48 8b 52 10          	mov    rdx,QWORD PTR [rdx+0x10]
        if (l >= (MAX_SIZE/sizeof(char)) - tl)
    1694:	48 be ff ff ff ff ff 	movabs rsi,0x7fffffffffffffff
    169b:	ff ff 7f 
    169e:	4c 29 f6             	sub    rsi,r14
    16a1:	48 39 d6             	cmp    rsi,rdx
    16a4:	0f 86 b7 01 00 00    	jbe    1861 <luaV_concat+0x331>
        tl += l;
    16aa:	49 01 d6             	add    r14,rdx
    16ad:	45 8d 4d 01          	lea    r9d,[r13+0x1]
    16b1:	49 83 c4 01          	add    r12,0x1
    16b5:	49 83 e8 10          	sub    r8,0x10
      for (n = 1; n < total && tostring(L, top - n - 1); n++) {
    16b9:	4c 39 64 24 18       	cmp    QWORD PTR [rsp+0x18],r12
    16be:	0f 84 a4 00 00 00    	je     1768 <luaV_concat+0x238>
    16c4:	41 0f b7 50 08       	movzx  edx,WORD PTR [r8+0x8]
    16c9:	4c 89 e6             	mov    rsi,r12
    16cc:	45 89 e5             	mov    r13d,r12d
    16cf:	44 89 64 24 24       	mov    DWORD PTR [rsp+0x24],r12d
    16d4:	48 c1 e6 04          	shl    rsi,0x4
    16d8:	4d 89 c3             	mov    r11,r8
    16db:	83 e2 0f             	and    edx,0xf
    16de:	66 83 fa 04          	cmp    dx,0x4
    16e2:	74 29                	je     170d <luaV_concat+0x1dd>
    16e4:	66 83 fa 03          	cmp    dx,0x3
    16e8:	0f 85 2a 01 00 00    	jne    1818 <luaV_concat+0x2e8>
    16ee:	4c 89 c6             	mov    rsi,r8
    16f1:	48 89 df             	mov    rdi,rbx
    16f4:	4c 89 44 24 10       	mov    QWORD PTR [rsp+0x10],r8
    16f9:	4c 89 44 24 08       	mov    QWORD PTR [rsp+0x8],r8
    16fe:	e8 00 00 00 00       	call   1703 <luaV_concat+0x1d3>
    1703:	4c 8b 44 24 08       	mov    r8,QWORD PTR [rsp+0x8]
    1708:	4c 8b 5c 24 10       	mov    r11,QWORD PTR [rsp+0x10]
        size_t l = vslen(top - n - 1);
    170d:	49 8b 13             	mov    rdx,QWORD PTR [r11]
    1710:	80 7a 08 04          	cmp    BYTE PTR [rdx+0x8],0x4
    1714:	0f 85 76 ff ff ff    	jne    1690 <luaV_concat+0x160>
    171a:	0f b6 52 0b          	movzx  edx,BYTE PTR [rdx+0xb]
    171e:	e9 71 ff ff ff       	jmp    1694 <luaV_concat+0x164>
    1723:	0f 1f 44 00 00       	nop    DWORD PTR [rax+rax*1+0x0]
    else if (isemptystr(top - 1))  /* second operand is empty? */
    1728:	80 7e 0b 00          	cmp    BYTE PTR [rsi+0xb],0x0
    172c:	0f 85 c1 fe ff ff    	jne    15f3 <luaV_concat+0xc3>
      cast_void(tostring(L, top - 2));  /* result is first operand */
    1732:	83 e2 0f             	and    edx,0xf
    1735:	83 ed 01             	sub    ebp,0x1
    1738:	49 c7 c0 f0 ff ff ff 	mov    r8,0xfffffffffffffff0
    173f:	66 83 fa 03          	cmp    dx,0x3
    1743:	0f 85 58 fe ff ff    	jne    15a1 <luaV_concat+0x71>
    1749:	49 8d 77 e0          	lea    rsi,[r15-0x20]
    174d:	48 89 df             	mov    rdi,rbx
    1750:	e8 00 00 00 00       	call   1755 <luaV_concat+0x225>
    1755:	49 c7 c0 f0 ff ff ff 	mov    r8,0xfffffffffffffff0
    175c:	e9 40 fe ff ff       	jmp    15a1 <luaV_concat+0x71>
    1761:	0f 1f 80 00 00 00 00 	nop    DWORD PTR [rax+0x0]
    1768:	4d 63 c1             	movsxd r8,r9d
    176b:	2b 6c 24 24          	sub    ebp,DWORD PTR [rsp+0x24]
    176f:	4d 89 c4             	mov    r12,r8
    1772:	49 f7 d8             	neg    r8
    1775:	49 c1 e4 04          	shl    r12,0x4
    1779:	49 c1 e0 04          	shl    r8,0x4
    177d:	49 f7 dc             	neg    r12
    1780:	49 83 c0 10          	add    r8,0x10
    1784:	4c 89 64 24 08       	mov    QWORD PTR [rsp+0x8],r12
      if (tl <= LUAI_MAXSHORTLEN) {  /* is result a short string? */
    1789:	49 83 fe 28          	cmp    r14,0x28
    178d:	77 51                	ja     17e0 <luaV_concat+0x2b0>
        copy2buff(top, n, buff);  /* copy strings to buffer */
    178f:	4c 8b 6c 24 28       	mov    r13,QWORD PTR [rsp+0x28]
    1794:	44 89 ce             	mov    esi,r9d
    1797:	4c 89 ff             	mov    rdi,r15
    179a:	4c 89 44 24 10       	mov    QWORD PTR [rsp+0x10],r8
    179f:	4c 89 ea             	mov    rdx,r13
    17a2:	e8 99 e9 ff ff       	call   140 <copy2buff>
        ts = luaS_newlstr(L, buff, tl);
    17a7:	4c 89 ee             	mov    rsi,r13
    17aa:	4c 89 f2             	mov    rdx,r14
    17ad:	48 89 df             	mov    rdi,rbx
    17b0:	e8 00 00 00 00       	call   17b5 <luaV_concat+0x285>
    17b5:	4c 8b 44 24 10       	mov    r8,QWORD PTR [rsp+0x10]
    17ba:	49 89 c5             	mov    r13,rax
      setsvalue2s(L, top - n, ts);  /* create result */
    17bd:	4c 8b 64 24 08       	mov    r12,QWORD PTR [rsp+0x8]
    17c2:	4d 01 fc             	add    r12,r15
    17c5:	4d 89 2c 24          	mov    QWORD PTR [r12],r13
    17c9:	41 0f b6 45 08       	movzx  eax,BYTE PTR [r13+0x8]
    17ce:	66 0d 00 80          	or     ax,0x8000
    17d2:	66 41 89 44 24 08    	mov    WORD PTR [r12+0x8],ax
    17d8:	e9 c4 fd ff ff       	jmp    15a1 <luaV_concat+0x71>
    17dd:	0f 1f 00             	nop    DWORD PTR [rax]
        ts = luaS_createlngstrobj(L, tl);
    17e0:	4c 89 f6             	mov    rsi,r14
    17e3:	48 89 df             	mov    rdi,rbx
    17e6:	4c 89 44 24 18       	mov    QWORD PTR [rsp+0x18],r8
    17eb:	44 89 4c 24 10       	mov    DWORD PTR [rsp+0x10],r9d
    17f0:	e8 00 00 00 00       	call   17f5 <luaV_concat+0x2c5>
        copy2buff(top, n, getstr(ts));
    17f5:	44 8b 4c 24 10       	mov    r9d,DWORD PTR [rsp+0x10]
    17fa:	4c 89 ff             	mov    rdi,r15
    17fd:	48 8d 50 18          	lea    rdx,[rax+0x18]
        ts = luaS_createlngstrobj(L, tl);
    1801:	49 89 c5             	mov    r13,rax
        copy2buff(top, n, getstr(ts));
    1804:	44 89 ce             	mov    esi,r9d
    1807:	e8 34 e9 ff ff       	call   140 <copy2buff>
    180c:	4c 8b 44 24 18       	mov    r8,QWORD PTR [rsp+0x18]
    1811:	eb aa                	jmp    17bd <luaV_concat+0x28d>
    1813:	0f 1f 44 00 00       	nop    DWORD PTR [rax+rax*1+0x0]
    1818:	4d 89 e0             	mov    r8,r12
    181b:	45 8d 4c 24 ff       	lea    r9d,[r12-0x1]
    1820:	48 f7 de             	neg    rsi
    1823:	49 f7 d8             	neg    r8
    1826:	44 29 cd             	sub    ebp,r9d
    1829:	48 89 74 24 08       	mov    QWORD PTR [rsp+0x8],rsi
      for (n = 1; n < total && tostring(L, top - n - 1); n++) {
    182e:	45 89 e1             	mov    r9d,r12d
    1831:	49 c1 e0 04          	shl    r8,0x4
    1835:	49 83 c0 10          	add    r8,0x10
    1839:	e9 4b ff ff ff       	jmp    1789 <luaV_concat+0x259>
    183e:	66 90                	xchg   ax,ax
      size_t tl = vslen(top - 1);
    1840:	44 0f b6 76 0b       	movzx  r14d,BYTE PTR [rsi+0xb]
    1845:	e9 1c fe ff ff       	jmp    1666 <luaV_concat+0x136>
      for (n = 1; n < total && tostring(L, top - n - 1); n++) {
    184a:	45 31 c0             	xor    r8d,r8d
    184d:	41 b9 01 00 00 00    	mov    r9d,0x1
    1853:	48 c7 44 24 08 f0 ff 	mov    QWORD PTR [rsp+0x8],0xfffffffffffffff0
    185a:	ff ff 
    185c:	e9 28 ff ff ff       	jmp    1789 <luaV_concat+0x259>
          luaG_runerror(L, "string length overflow");
    1861:	48 8d 35 00 00 00 00 	lea    rsi,[rip+0x0]        # 1868 <luaV_concat+0x338>
    1868:	48 89 df             	mov    rdi,rbx
    186b:	31 c0                	xor    eax,eax
    186d:	e8 00 00 00 00       	call   1872 <luaV_concat+0x342>
}
    1872:	e8 00 00 00 00       	call   1877 <luaV_concat+0x347>
    1877:	66 0f 1f 84 00 00 00 	nop    WORD PTR [rax+rax*1+0x0]
    187e:	00 00 

0000000000001880 <luaV_objlen>:
void luaV_objlen (lua_State *L, StkId ra, const TValue *rb) {
    1880:	41 55                	push   r13
    1882:	41 54                	push   r12
    1884:	49 89 fc             	mov    r12,rdi
    1887:	55                   	push   rbp
    1888:	48 89 f5             	mov    rbp,rsi
    188b:	53                   	push   rbx
    188c:	48 89 d3             	mov    rbx,rdx
    188f:	48 83 ec 08          	sub    rsp,0x8
  switch (ttype(rb)) {
    1893:	0f b7 42 08          	movzx  eax,WORD PTR [rdx+0x8]
    1897:	83 e0 7f             	and    eax,0x7f
    189a:	83 e8 04             	sub    eax,0x4
    189d:	66 83 f8 21          	cmp    ax,0x21
    18a1:	0f 87 c9 00 00 00    	ja     1970 <luaV_objlen+0xf0>
    18a7:	48 8d 15 00 00 00 00 	lea    rdx,[rip+0x0]        # 18ae <luaV_objlen+0x2e>
    18ae:	0f b7 c0             	movzx  eax,ax
    18b1:	48 63 04 82          	movsxd rax,DWORD PTR [rdx+rax*4]
    18b5:	48 01 d0             	add    rax,rdx
    18b8:	ff e0                	jmp    rax
    18ba:	66 0f 1f 44 00 00    	nop    WORD PTR [rax+rax*1+0x0]
      setivalue(ra, raviH_getn(h));
    18c0:	48 8b 3b             	mov    rdi,QWORD PTR [rbx]
    18c3:	e8 00 00 00 00       	call   18c8 <luaV_objlen+0x48>
    18c8:	be 13 00 00 00       	mov    esi,0x13
    18cd:	48 98                	cdqe   
    18cf:	66 89 75 08          	mov    WORD PTR [rbp+0x8],si
    18d3:	48 89 45 00          	mov    QWORD PTR [rbp+0x0],rax
}
    18d7:	48 83 c4 08          	add    rsp,0x8
    18db:	5b                   	pop    rbx
    18dc:	5d                   	pop    rbp
    18dd:	41 5c                	pop    r12
    18df:	41 5d                	pop    r13
    18e1:	c3                   	ret    
    18e2:	66 0f 1f 44 00 00    	nop    WORD PTR [rax+rax*1+0x0]
      setivalue(ra, tsvalue(rb)->u.lnglen);
    18e8:	48 8b 03             	mov    rax,QWORD PTR [rbx]
    18eb:	48 8b 40 10          	mov    rax,QWORD PTR [rax+0x10]
    18ef:	48 89 06             	mov    QWORD PTR [rsi],rax
    18f2:	b8 13 00 00 00       	mov    eax,0x13
    18f7:	66 89 46 08          	mov    WORD PTR [rsi+0x8],ax
}
    18fb:	48 83 c4 08          	add    rsp,0x8
    18ff:	5b                   	pop    rbx
    1900:	5d                   	pop    rbp
    1901:	41 5c                	pop    r12
    1903:	41 5d                	pop    r13
    1905:	c3                   	ret    
    1906:	66 2e 0f 1f 84 00 00 	nop    WORD PTR cs:[rax+rax*1+0x0]
    190d:	00 00 00 
      Table *h = hvalue(rb);
    1910:	4c 8b 2b             	mov    r13,QWORD PTR [rbx]
      tm = fasttm(L, h->metatable, TM_LEN);
    1913:	49 8b 7d 28          	mov    rdi,QWORD PTR [r13+0x28]
    1917:	48 85 ff             	test   rdi,rdi
    191a:	74 0a                	je     1926 <luaV_objlen+0xa6>
    191c:	f6 47 0a 10          	test   BYTE PTR [rdi+0xa],0x10
    1920:	0f 84 8a 00 00 00    	je     19b0 <luaV_objlen+0x130>
      setivalue(ra, luaH_getn(h));  /* else primitive len */
    1926:	4c 89 ef             	mov    rdi,r13
    1929:	e8 00 00 00 00       	call   192e <luaV_objlen+0xae>
    192e:	b9 13 00 00 00       	mov    ecx,0x13
    1933:	48 98                	cdqe   
    1935:	66 89 4d 08          	mov    WORD PTR [rbp+0x8],cx
    1939:	48 89 45 00          	mov    QWORD PTR [rbp+0x0],rax
}
    193d:	48 83 c4 08          	add    rsp,0x8
    1941:	5b                   	pop    rbx
    1942:	5d                   	pop    rbp
    1943:	41 5c                	pop    r12
    1945:	41 5d                	pop    r13
    1947:	c3                   	ret    
    1948:	0f 1f 84 00 00 00 00 	nop    DWORD PTR [rax+rax*1+0x0]
    194f:	00 
      setivalue(ra, tsvalue(rb)->shrlen);
    1950:	48 8b 03             	mov    rax,QWORD PTR [rbx]
    1953:	ba 13 00 00 00       	mov    edx,0x13
    1958:	0f b6 40 0b          	movzx  eax,BYTE PTR [rax+0xb]
    195c:	66 89 56 08          	mov    WORD PTR [rsi+0x8],dx
    1960:	48 89 06             	mov    QWORD PTR [rsi],rax
}
    1963:	48 83 c4 08          	add    rsp,0x8
    1967:	5b                   	pop    rbx
    1968:	5d                   	pop    rbp
    1969:	41 5c                	pop    r12
    196b:	41 5d                	pop    r13
    196d:	c3                   	ret    
    196e:	66 90                	xchg   ax,ax
      tm = luaT_gettmbyobj(L, rb, TM_LEN);
    1970:	ba 04 00 00 00       	mov    edx,0x4
    1975:	48 89 de             	mov    rsi,rbx
    1978:	4c 89 e7             	mov    rdi,r12
    197b:	e8 00 00 00 00       	call   1980 <luaV_objlen+0x100>
      if (ttisnil(tm))  /* no metamethod? */
    1980:	66 83 78 08 00       	cmp    WORD PTR [rax+0x8],0x0
    1985:	74 49                	je     19d0 <luaV_objlen+0x150>
}
    1987:	48 83 c4 08          	add    rsp,0x8
  luaT_callTM(L, tm, rb, rb, ra, 1);
    198b:	49 89 e8             	mov    r8,rbp
    198e:	48 89 d9             	mov    rcx,rbx
    1991:	48 89 da             	mov    rdx,rbx
    1994:	4c 89 e7             	mov    rdi,r12
}
    1997:	5b                   	pop    rbx
  luaT_callTM(L, tm, rb, rb, ra, 1);
    1998:	41 b9 01 00 00 00    	mov    r9d,0x1
}
    199e:	5d                   	pop    rbp
  luaT_callTM(L, tm, rb, rb, ra, 1);
    199f:	48 89 c6             	mov    rsi,rax
}
    19a2:	41 5c                	pop    r12
    19a4:	41 5d                	pop    r13
  luaT_callTM(L, tm, rb, rb, ra, 1);
    19a6:	e9 00 00 00 00       	jmp    19ab <luaV_objlen+0x12b>
    19ab:	0f 1f 44 00 00       	nop    DWORD PTR [rax+rax*1+0x0]
      tm = fasttm(L, h->metatable, TM_LEN);
    19b0:	49 8b 44 24 18       	mov    rax,QWORD PTR [r12+0x18]
    19b5:	be 04 00 00 00       	mov    esi,0x4
    19ba:	48 8b 90 00 01 00 00 	mov    rdx,QWORD PTR [rax+0x100]
    19c1:	e8 00 00 00 00       	call   19c6 <luaV_objlen+0x146>
      if (tm) break;  /* metamethod? break switch to call it */
    19c6:	48 85 c0             	test   rax,rax
    19c9:	75 bc                	jne    1987 <luaV_objlen+0x107>
    19cb:	e9 56 ff ff ff       	jmp    1926 <luaV_objlen+0xa6>
        luaG_typeerror(L, rb, "get length of");
    19d0:	48 8d 15 00 00 00 00 	lea    rdx,[rip+0x0]        # 19d7 <luaV_objlen+0x157>
    19d7:	48 89 de             	mov    rsi,rbx
    19da:	4c 89 e7             	mov    rdi,r12
    19dd:	e8 00 00 00 00       	call   19e2 <luaV_objlen+0x162>
    19e2:	66 66 2e 0f 1f 84 00 	data16 nop WORD PTR cs:[rax+rax*1+0x0]
    19e9:	00 00 00 00 
    19ed:	0f 1f 00             	nop    DWORD PTR [rax]

00000000000019f0 <luaV_div>:
  if (l_castS2U(n) + 1u <= 1u) {  /* special cases: -1 or 0 */
    19f0:	48 8d 42 01          	lea    rax,[rdx+0x1]
lua_Integer luaV_div (lua_State *L, lua_Integer m, lua_Integer n) {
    19f4:	48 89 d1             	mov    rcx,rdx
  if (l_castS2U(n) + 1u <= 1u) {  /* special cases: -1 or 0 */
    19f7:	48 83 f8 01          	cmp    rax,0x1
    19fb:	77 13                	ja     1a10 <luaV_div+0x20>
    if (n == 0)
    19fd:	48 85 d2             	test   rdx,rdx
    1a00:	74 2a                	je     1a2c <luaV_div+0x3c>
    return intop(-, 0, m);   /* n==-1; avoid overflow with 0x80000...//-1 */
    1a02:	48 89 f0             	mov    rax,rsi
    1a05:	48 f7 d8             	neg    rax
    1a08:	c3                   	ret    
    1a09:	0f 1f 80 00 00 00 00 	nop    DWORD PTR [rax+0x0]
    lua_Integer q = m / n;  /* perform C division */
    1a10:	48 89 f0             	mov    rax,rsi
    1a13:	48 99                	cqo    
    1a15:	48 f7 f9             	idiv   rcx
    if ((m ^ n) < 0 && m % n != 0)  /* 'm/n' would be negative non-integer? */
    1a18:	48 31 f1             	xor    rcx,rsi
    1a1b:	78 03                	js     1a20 <luaV_div+0x30>
}
    1a1d:	c3                   	ret    
    1a1e:	66 90                	xchg   ax,ax
      q -= 1;  /* correct result for different rounding */
    1a20:	48 8d 48 ff          	lea    rcx,[rax-0x1]
    1a24:	48 85 d2             	test   rdx,rdx
    1a27:	48 0f 45 c1          	cmovne rax,rcx
}
    1a2b:	c3                   	ret    
lua_Integer luaV_div (lua_State *L, lua_Integer m, lua_Integer n) {
    1a2c:	50                   	push   rax
      luaG_runerror(L, "attempt to divide by zero");
    1a2d:	48 8d 35 00 00 00 00 	lea    rsi,[rip+0x0]        # 1a34 <luaV_div+0x44>
    1a34:	31 c0                	xor    eax,eax
    1a36:	e8 00 00 00 00       	call   1a3b <luaV_div+0x4b>
    1a3b:	0f 1f 44 00 00       	nop    DWORD PTR [rax+rax*1+0x0]

0000000000001a40 <luaV_mod>:
  if (l_castS2U(n) + 1u <= 1u) {  /* special cases: -1 or 0 */
    1a40:	48 8d 42 01          	lea    rax,[rdx+0x1]
lua_Integer luaV_mod (lua_State *L, lua_Integer m, lua_Integer n) {
    1a44:	48 89 d1             	mov    rcx,rdx
  if (l_castS2U(n) + 1u <= 1u) {  /* special cases: -1 or 0 */
    1a47:	48 83 f8 01          	cmp    rax,0x1
    1a4b:	77 13                	ja     1a60 <luaV_mod+0x20>
    if (n == 0)
    1a4d:	48 85 d2             	test   rdx,rdx
    1a50:	74 2a                	je     1a7c <luaV_mod+0x3c>
    return 0;   /* m % -1 == 0; avoid overflow with 0x80000...%-1 */
    1a52:	31 d2                	xor    edx,edx
}
    1a54:	48 89 d0             	mov    rax,rdx
    1a57:	c3                   	ret    
    1a58:	0f 1f 84 00 00 00 00 	nop    DWORD PTR [rax+rax*1+0x0]
    1a5f:	00 
    lua_Integer r = m % n;
    1a60:	48 89 f0             	mov    rax,rsi
    1a63:	48 99                	cqo    
    1a65:	48 f7 f9             	idiv   rcx
    if (r != 0 && (m ^ n) < 0)  /* 'm/n' would be non-integer negative? */
    1a68:	48 85 d2             	test   rdx,rdx
    1a6b:	74 e7                	je     1a54 <luaV_mod+0x14>
      r += n;  /* correct result for different rounding */
    1a6d:	48 8d 04 0a          	lea    rax,[rdx+rcx*1]
    1a71:	48 31 f1             	xor    rcx,rsi
    1a74:	48 0f 48 d0          	cmovs  rdx,rax
}
    1a78:	48 89 d0             	mov    rax,rdx
    1a7b:	c3                   	ret    
lua_Integer luaV_mod (lua_State *L, lua_Integer m, lua_Integer n) {
    1a7c:	50                   	push   rax
      luaG_runerror(L, "attempt to perform 'n%%0'");
    1a7d:	48 8d 35 00 00 00 00 	lea    rsi,[rip+0x0]        # 1a84 <luaV_mod+0x44>
    1a84:	31 c0                	xor    eax,eax
    1a86:	e8 00 00 00 00       	call   1a8b <luaV_mod+0x4b>
    1a8b:	0f 1f 44 00 00       	nop    DWORD PTR [rax+rax*1+0x0]

0000000000001a90 <luaV_shiftl>:
  if (y < 0) {  /* shift right? */
    1a90:	48 85 f6             	test   rsi,rsi
    1a93:	78 1b                	js     1ab0 <luaV_shiftl+0x20>
    else return intop(<<, x, y);
    1a95:	89 f1                	mov    ecx,esi
    1a97:	b8 00 00 00 00       	mov    eax,0x0
    1a9c:	48 d3 e7             	shl    rdi,cl
    1a9f:	48 83 fe 40          	cmp    rsi,0x40
    1aa3:	48 0f 4c c7          	cmovl  rax,rdi
}
    1aa7:	c3                   	ret    
    1aa8:	0f 1f 84 00 00 00 00 	nop    DWORD PTR [rax+rax*1+0x0]
    1aaf:	00 
    if (y <= -NBITS) return 0;
    1ab0:	31 c0                	xor    eax,eax
    1ab2:	48 83 fe c1          	cmp    rsi,0xffffffffffffffc1
    1ab6:	7c ef                	jl     1aa7 <luaV_shiftl+0x17>
    else return intop(>>, x, -y);
    1ab8:	89 f1                	mov    ecx,esi
    1aba:	48 89 f8             	mov    rax,rdi
    1abd:	f7 d9                	neg    ecx
    1abf:	48 d3 e8             	shr    rax,cl
    1ac2:	c3                   	ret    
    1ac3:	66 66 2e 0f 1f 84 00 	data16 nop WORD PTR cs:[rax+rax*1+0x0]
    1aca:	00 00 00 00 
    1ace:	66 90                	xchg   ax,ax

0000000000001ad0 <luaV_finishOp>:


/*
** finish execution of an opcode interrupted by an yield
*/
void luaV_finishOp (lua_State *L) {
    1ad0:	41 54                	push   r12
    1ad2:	55                   	push   rbp
    1ad3:	53                   	push   rbx
  CallInfo *ci = L->ci;
    1ad4:	48 8b 6f 20          	mov    rbp,QWORD PTR [rdi+0x20]
  StkId base = ci->u.l.base;
  Instruction inst = *(ci->u.l.savedpc - 1);  /* interrupted instruction */
    1ad8:	48 8b 4d 28          	mov    rcx,QWORD PTR [rbp+0x28]
  StkId base = ci->u.l.base;
    1adc:	4c 8b 45 20          	mov    r8,QWORD PTR [rbp+0x20]
  Instruction inst = *(ci->u.l.savedpc - 1);  /* interrupted instruction */
    1ae0:	8b 59 fc             	mov    ebx,DWORD PTR [rcx-0x4]
  OpCode op = GET_OPCODE(inst);
    1ae3:	0f b6 c3             	movzx  eax,bl
  switch (op) {  /* finish its execution */
    1ae6:	83 e8 06             	sub    eax,0x6
    1ae9:	83 f8 6d             	cmp    eax,0x6d
    1aec:	77 65                	ja     1b53 <luaV_finishOp+0x83>
    1aee:	48 8d 15 00 00 00 00 	lea    rdx,[rip+0x0]        # 1af5 <luaV_finishOp+0x25>
    1af5:	48 63 04 82          	movsxd rax,DWORD PTR [rdx+rax*4]
    1af9:	48 01 d0             	add    rax,rdx
    1afc:	ff e0                	jmp    rax
    1afe:	66 90                	xchg   ax,ax
    case OP_GETTABUP: case OP_GETTABLE: case OP_SELF: {
      setobjs2s(L, base + GETARG_A(inst), --L->top);
      break;
    }
    case OP_LE: case OP_LT: case OP_EQ: {
      int res = !l_isfalse(L->top - 1);
    1b00:	48 8b 47 10          	mov    rax,QWORD PTR [rdi+0x10]
    1b04:	31 d2                	xor    edx,edx
    1b06:	0f b7 70 f8          	movzx  esi,WORD PTR [rax-0x8]
    1b0a:	66 85 f6             	test   si,si
    1b0d:	74 19                	je     1b28 <luaV_finishOp+0x58>
    1b0f:	ba 01 00 00 00       	mov    edx,0x1
    1b14:	66 83 fe 01          	cmp    si,0x1
    1b18:	75 0e                	jne    1b28 <luaV_finishOp+0x58>
    1b1a:	8b 70 f0             	mov    esi,DWORD PTR [rax-0x10]
    1b1d:	31 d2                	xor    edx,edx
    1b1f:	85 f6                	test   esi,esi
    1b21:	0f 95 c2             	setne  dl
    1b24:	0f 1f 40 00          	nop    DWORD PTR [rax+0x0]
      L->top--;
    1b28:	48 83 e8 10          	sub    rax,0x10
    1b2c:	48 89 47 10          	mov    QWORD PTR [rdi+0x10],rax
      if (ci->callstatus & CIST_LEQ) {  /* "<=" using "<" instead? */
    1b30:	0f b7 45 42          	movzx  eax,WORD PTR [rbp+0x42]
    1b34:	a8 80                	test   al,0x80
    1b36:	74 09                	je     1b41 <luaV_finishOp+0x71>
        lua_assert(op == OP_LE);
        ci->callstatus ^= CIST_LEQ;  /* clear mark */
    1b38:	34 80                	xor    al,0x80
    1b3a:	83 f2 01             	xor    edx,0x1
    1b3d:	66 89 45 42          	mov    WORD PTR [rbp+0x42],ax
        res = !res;  /* negate result */
      }
      lua_assert(GET_OPCODE(*ci->u.l.savedpc) == OP_JMP);
      if (res != GETARG_A(inst))  /* condition failed? */
    1b41:	c1 eb 08             	shr    ebx,0x8
    1b44:	83 e3 7f             	and    ebx,0x7f
    1b47:	39 d3                	cmp    ebx,edx
    1b49:	74 08                	je     1b53 <luaV_finishOp+0x83>
        ci->u.l.savedpc++;  /* skip jump instruction */
    1b4b:	48 83 c1 04          	add    rcx,0x4
    1b4f:	48 89 4d 28          	mov    QWORD PTR [rbp+0x28],rcx
    case OP_RAVI_SETI: case OP_RAVI_TABLE_SETFIELD: case OP_RAVI_SETFIELD:
    case OP_TAILCALL: case OP_SETTABUP: case OP_SETTABLE:
      break;
    default: lua_assert(0);
  }
}
    1b53:	5b                   	pop    rbx
    1b54:	5d                   	pop    rbp
    1b55:	41 5c                	pop    r12
    1b57:	c3                   	ret    
    1b58:	0f 1f 84 00 00 00 00 	nop    DWORD PTR [rax+rax*1+0x0]
    1b5f:	00 
      if (GETARG_C(inst) - 1 >= 0)  /* nresults >= 0? */
    1b60:	81 e3 00 00 ff 00    	and    ebx,0xff0000
    1b66:	74 eb                	je     1b53 <luaV_finishOp+0x83>
        L->top = ci->top;  /* adjust results */
    1b68:	48 8b 45 08          	mov    rax,QWORD PTR [rbp+0x8]
    1b6c:	48 89 47 10          	mov    QWORD PTR [rdi+0x10],rax
}
    1b70:	eb e1                	jmp    1b53 <luaV_finishOp+0x83>
    1b72:	66 0f 1f 44 00 00    	nop    WORD PTR [rax+rax*1+0x0]
      setobjs2s(L, base + GETARG_A(inst), --L->top);
    1b78:	48 8b 57 10          	mov    rdx,QWORD PTR [rdi+0x10]
    1b7c:	c1 eb 08             	shr    ebx,0x8
    1b7f:	83 e3 7f             	and    ebx,0x7f
    1b82:	48 8d 4a f0          	lea    rcx,[rdx-0x10]
    1b86:	48 c1 e3 04          	shl    rbx,0x4
    1b8a:	48 89 4f 10          	mov    QWORD PTR [rdi+0x10],rcx
    1b8e:	48 8b 4a f0          	mov    rcx,QWORD PTR [rdx-0x10]
    1b92:	49 8d 04 18          	lea    rax,[r8+rbx*1]
    1b96:	0f b7 52 f8          	movzx  edx,WORD PTR [rdx-0x8]
    1b9a:	48 89 08             	mov    QWORD PTR [rax],rcx
    1b9d:	66 89 50 08          	mov    WORD PTR [rax+0x8],dx
}
    1ba1:	5b                   	pop    rbx
    1ba2:	5d                   	pop    rbp
    1ba3:	41 5c                	pop    r12
    1ba5:	c3                   	ret    
    1ba6:	66 2e 0f 1f 84 00 00 	nop    WORD PTR cs:[rax+rax*1+0x0]
    1bad:	00 00 00 
      L->top = ci->top;  /* correct top */
    1bb0:	48 8b 45 08          	mov    rax,QWORD PTR [rbp+0x8]
    1bb4:	48 89 47 10          	mov    QWORD PTR [rdi+0x10],rax
}
    1bb8:	5b                   	pop    rbx
    1bb9:	5d                   	pop    rbp
    1bba:	41 5c                	pop    r12
    1bbc:	c3                   	ret    
    1bbd:	0f 1f 00             	nop    DWORD PTR [rax]
      StkId top = L->top - 1;  /* top when 'luaT_trybinTM' was called */
    1bc0:	48 8b 57 10          	mov    rdx,QWORD PTR [rdi+0x10]
      int b = GETARG_B(inst);      /* first element to concatenate */
    1bc4:	89 d8                	mov    eax,ebx
    1bc6:	49 89 fc             	mov    r12,rdi
    1bc9:	c1 e8 18             	shr    eax,0x18
      int total = cast_int(top - 1 - (base + b));  /* yet to concatenate */
    1bcc:	48 8d 7a e0          	lea    rdi,[rdx-0x20]
    1bd0:	48 c1 e0 04          	shl    rax,0x4
      setobj2s(L, top - 2, top);  /* put TM result in proper position */
    1bd4:	0f b7 4a f8          	movzx  ecx,WORD PTR [rdx-0x8]
      int total = cast_int(top - 1 - (base + b));  /* yet to concatenate */
    1bd8:	4c 01 c0             	add    rax,r8
    1bdb:	48 89 fe             	mov    rsi,rdi
    1bde:	48 29 c6             	sub    rsi,rax
      setobj2s(L, top - 2, top);  /* put TM result in proper position */
    1be1:	48 8b 42 f0          	mov    rax,QWORD PTR [rdx-0x10]
    1be5:	66 89 4a d8          	mov    WORD PTR [rdx-0x28],cx
      int total = cast_int(top - 1 - (base + b));  /* yet to concatenate */
    1be9:	48 c1 fe 04          	sar    rsi,0x4
      setobj2s(L, top - 2, top);  /* put TM result in proper position */
    1bed:	48 89 42 d0          	mov    QWORD PTR [rdx-0x30],rax
      if (total > 1) {  /* are there elements to concat? */
    1bf1:	83 fe 01             	cmp    esi,0x1
    1bf4:	7e 1a                	jle    1c10 <luaV_finishOp+0x140>
        L->top = top - 1;  /* top is one after last element (at top-2) */
    1bf6:	49 89 7c 24 10       	mov    QWORD PTR [r12+0x10],rdi
        luaV_concat(L, total);  /* concat them (may yield again) */
    1bfb:	4c 89 e7             	mov    rdi,r12
    1bfe:	e8 00 00 00 00       	call   1c03 <luaV_finishOp+0x133>
    1c03:	49 8b 54 24 10       	mov    rdx,QWORD PTR [r12+0x10]
    1c08:	4c 8b 45 20          	mov    r8,QWORD PTR [rbp+0x20]
    1c0c:	0f b7 4a f8          	movzx  ecx,WORD PTR [rdx-0x8]
      setobj2s(L, ci->u.l.base + GETARG_A(inst), L->top - 1);
    1c10:	89 d8                	mov    eax,ebx
    1c12:	48 8b 52 f0          	mov    rdx,QWORD PTR [rdx-0x10]
    1c16:	c1 e8 08             	shr    eax,0x8
    1c19:	83 e0 7f             	and    eax,0x7f
    1c1c:	48 c1 e0 04          	shl    rax,0x4
    1c20:	4c 01 c0             	add    rax,r8
    1c23:	48 89 10             	mov    QWORD PTR [rax],rdx
    1c26:	66 89 48 08          	mov    WORD PTR [rax+0x8],cx
      L->top = ci->top;  /* restore top */
    1c2a:	48 8b 45 08          	mov    rax,QWORD PTR [rbp+0x8]
    1c2e:	49 89 44 24 10       	mov    QWORD PTR [r12+0x10],rax
}
    1c33:	5b                   	pop    rbx
    1c34:	5d                   	pop    rbp
    1c35:	41 5c                	pop    r12
    1c37:	c3                   	ret    
    1c38:	0f 1f 84 00 00 00 00 	nop    DWORD PTR [rax+rax*1+0x0]
    1c3f:	00 

0000000000001c40 <raviV_check_usertype>:


int raviV_check_usertype(lua_State *L, TString *name, const TValue *o)
{
  Table *mt;
  switch (ttnov(o)) {
    1c40:	0f b7 42 08          	movzx  eax,WORD PTR [rdx+0x8]
    1c44:	83 e0 0f             	and    eax,0xf
    1c47:	66 83 f8 05          	cmp    ax,0x5
    1c4b:	0f 84 7f 00 00 00    	je     1cd0 <raviV_check_usertype+0x90>
    1c51:	66 83 f8 07          	cmp    ax,0x7
    1c55:	75 59                	jne    1cb0 <raviV_check_usertype+0x70>
  case LUA_TTABLE:
    mt = hvalue(o)->metatable;
    break;
  case LUA_TUSERDATA:
    mt = uvalue(o)->metatable;
    1c57:	48 8b 02             	mov    rax,QWORD PTR [rdx]
    1c5a:	48 8b 48 10          	mov    rcx,QWORD PTR [rax+0x10]
    break;
  default:
    mt = NULL;
  }
  if (mt == NULL)
    1c5e:	48 85 c9             	test   rcx,rcx
    1c61:	74 79                	je     1cdc <raviV_check_usertype+0x9c>
    return 0;
  /* get global table from registry */
  Table *reg = hvalue(&G(L)->l_registry);
    1c63:	48 8b 47 18          	mov    rax,QWORD PTR [rdi+0x18]
#if defined(RAVI_ENABLED)
/*
** search function for short strings
*/
static RAVI_ALWAYS_INLINE const TValue *luaH_getshortstr(Table *t, TString *key) {
  Node *n = hashstr(t, key);
    1c67:	8b 56 0c             	mov    edx,DWORD PTR [rsi+0xc]
    1c6a:	48 8b 40 40          	mov    rax,QWORD PTR [rax+0x40]
    1c6e:	23 50 50             	and    edx,DWORD PTR [rax+0x50]
    1c71:	48 c1 e2 05          	shl    rdx,0x5
    1c75:	48 03 50 18          	add    rdx,QWORD PTR [rax+0x18]
    1c79:	eb 14                	jmp    1c8f <raviV_check_usertype+0x4f>
    1c7b:	0f 1f 44 00 00       	nop    DWORD PTR [rax+rax*1+0x0]
  for (;;) {  /* check whether 'key' is somewhere in the chain */
    const TValue *k = gkey(n);
    if (ttisshrstring(k) && eqshrstr(tsvalue(k), key))
      return gval(n);  /* that's it */
    else {
      int nx = gnext(n);
    1c80:	48 63 42 1c          	movsxd rax,DWORD PTR [rdx+0x1c]
      if (nx == 0)
    1c84:	85 c0                	test   eax,eax
    1c86:	74 30                	je     1cb8 <raviV_check_usertype+0x78>
        return luaO_nilobject;  /* not found */
      n += nx;
    1c88:	48 c1 e0 05          	shl    rax,0x5
    1c8c:	48 01 c2             	add    rdx,rax
    if (ttisshrstring(k) && eqshrstr(tsvalue(k), key))
    1c8f:	66 81 7a 18 04 80    	cmp    WORD PTR [rdx+0x18],0x8004
    1c95:	75 e9                	jne    1c80 <raviV_check_usertype+0x40>
    1c97:	48 3b 72 10          	cmp    rsi,QWORD PTR [rdx+0x10]
    1c9b:	75 e3                	jne    1c80 <raviV_check_usertype+0x40>
  const TValue *metatab = luaH_getshortstr(reg, name);
  return (!ttisnil(metatab) && ttisLtable(metatab) && hvalue(metatab) == mt) || 0;
    1c9d:	31 c0                	xor    eax,eax
    1c9f:	66 81 7a 08 05 80    	cmp    WORD PTR [rdx+0x8],0x8005
    1ca5:	74 39                	je     1ce0 <raviV_check_usertype+0xa0>
}
    1ca7:	c3                   	ret    
    1ca8:	0f 1f 84 00 00 00 00 	nop    DWORD PTR [rax+rax*1+0x0]
    1caf:	00 
    return 0;
    1cb0:	31 c0                	xor    eax,eax
    1cb2:	c3                   	ret    
    1cb3:	0f 1f 44 00 00       	nop    DWORD PTR [rax+rax*1+0x0]
        return luaO_nilobject;  /* not found */
    1cb8:	48 8d 15 00 00 00 00 	lea    rdx,[rip+0x0]        # 1cbf <raviV_check_usertype+0x7f>
  return (!ttisnil(metatab) && ttisLtable(metatab) && hvalue(metatab) == mt) || 0;
    1cbf:	31 c0                	xor    eax,eax
    1cc1:	66 81 7a 08 05 80    	cmp    WORD PTR [rdx+0x8],0x8005
    1cc7:	75 de                	jne    1ca7 <raviV_check_usertype+0x67>
    1cc9:	eb 15                	jmp    1ce0 <raviV_check_usertype+0xa0>
    1ccb:	0f 1f 44 00 00       	nop    DWORD PTR [rax+rax*1+0x0]
    mt = hvalue(o)->metatable;
    1cd0:	48 8b 02             	mov    rax,QWORD PTR [rdx]
    1cd3:	48 8b 48 28          	mov    rcx,QWORD PTR [rax+0x28]
  if (mt == NULL)
    1cd7:	48 85 c9             	test   rcx,rcx
    1cda:	75 87                	jne    1c63 <raviV_check_usertype+0x23>
  return (!ttisnil(metatab) && ttisLtable(metatab) && hvalue(metatab) == mt) || 0;
    1cdc:	31 c0                	xor    eax,eax
}
    1cde:	c3                   	ret    
    1cdf:	90                   	nop
  return (!ttisnil(metatab) && ttisLtable(metatab) && hvalue(metatab) == mt) || 0;
    1ce0:	31 c0                	xor    eax,eax
    1ce2:	48 39 0a             	cmp    QWORD PTR [rdx],rcx
    1ce5:	0f 94 c0             	sete   al
    1ce8:	c3                   	ret    
    1ce9:	0f 1f 80 00 00 00 00 	nop    DWORD PTR [rax+0x0]

0000000000001cf0 <luaV_execute>:

int luaV_execute (lua_State *L) {
    1cf0:	41 57                	push   r15
    1cf2:	41 56                	push   r14
  for (;;) {
    Instruction i;
    OpCode op;
    StkId ra;

    vmfetch;
    1cf4:	4c 8d 35 00 00 00 00 	lea    r14,[rip+0x0]        # 1cfb <luaV_execute+0xb>
int luaV_execute (lua_State *L) {
    1cfb:	41 55                	push   r13
    1cfd:	41 54                	push   r12
    1cff:	55                   	push   rbp
    1d00:	53                   	push   rbx
    1d01:	48 81 ec 18 01 00 00 	sub    rsp,0x118
    1d08:	64 48 8b 04 25 28 00 	mov    rax,QWORD PTR fs:0x28
    1d0f:	00 00 
    1d11:	48 89 84 24 08 01 00 	mov    QWORD PTR [rsp+0x108],rax
    1d18:	00 
    1d19:	31 c0                	xor    eax,eax
  CallInfo *ci = L->ci;
    1d1b:	48 8b 47 20          	mov    rax,QWORD PTR [rdi+0x20]
    1d1f:	48 89 7c 24 08       	mov    QWORD PTR [rsp+0x8],rdi
  ci->callstatus |= CIST_FRESH;  /* fresh invocation of 'luaV_execute" */
    1d24:	66 83 48 42 08       	or     WORD PTR [rax+0x42],0x8
    1d29:	0f b6 97 c8 00 00 00 	movzx  edx,BYTE PTR [rdi+0xc8]
  CallInfo *ci = L->ci;
    1d30:	48 89 44 24 18       	mov    QWORD PTR [rsp+0x18],rax
  ci->callstatus |= CIST_FRESH;  /* fresh invocation of 'luaV_execute" */
    1d35:	48 8b 40 28          	mov    rax,QWORD PTR [rax+0x28]
  cl = clLvalue(ci->func);  /* local reference to function's closure */
    1d39:	48 8b 7c 24 18       	mov    rdi,QWORD PTR [rsp+0x18]
    1d3e:	45 31 ed             	xor    r13d,r13d
    vmfetch;
    1d41:	83 e2 0c             	and    edx,0xc
    1d44:	48 8d 58 04          	lea    rbx,[rax+0x4]
    1d48:	44 8b 00             	mov    r8d,DWORD PTR [rax]
  cl = clLvalue(ci->func);  /* local reference to function's closure */
    1d4b:	48 8b 0f             	mov    rcx,QWORD PTR [rdi]
  base = ci->u.l.base;  /* local copy of function's base */
    1d4e:	4c 8b 67 20          	mov    r12,QWORD PTR [rdi+0x20]
  cl = clLvalue(ci->func);  /* local reference to function's closure */
    1d52:	48 8b 09             	mov    rcx,QWORD PTR [rcx]
    1d55:	48 89 4c 24 20       	mov    QWORD PTR [rsp+0x20],rcx
  k = cl->p->k;  /* local reference to function's constant table */
    1d5a:	48 8b 49 18          	mov    rcx,QWORD PTR [rcx+0x18]
    1d5e:	48 8b 71 30          	mov    rsi,QWORD PTR [rcx+0x30]
    1d62:	48 89 74 24 10       	mov    QWORD PTR [rsp+0x10],rsi
    vmfetch;
    1d67:	0f 85 5c 57 00 00    	jne    74c9 <luaV_execute+0x57d9>
    1d6d:	44 89 c5             	mov    ebp,r8d
    1d70:	41 0f b6 c0          	movzx  eax,r8b
    1d74:	c1 ed 08             	shr    ebp,0x8
    1d77:	48 89 c2             	mov    rdx,rax
    1d7a:	83 e5 7f             	and    ebp,0x7f
    1d7d:	48 c1 e5 04          	shl    rbp,0x4
    1d81:	4c 01 e5             	add    rbp,r12
    1d84:	41 ff 24 c6          	jmp    QWORD PTR [r14+rax*8]
      vmcase(OP_RAVI_TABLE_GETFIELD) {
        /* This opcode is used when the key is known to be
           short string and the variable is known to be
           a table
        */
        StkId rb = RB(i);
    1d88:	44 89 c6             	mov    esi,r8d
    1d8b:	c1 ee 18             	shr    esi,0x18
    1d8e:	48 c1 e6 04          	shl    rsi,0x4
    1d92:	4c 01 e6             	add    rsi,r12
        if (op == OP_RAVI_TABLE_SELF_SK) { setobjs2s(L, ra + 1, rb); }
    1d95:	83 fa 6d             	cmp    edx,0x6d
    1d98:	75 0f                	jne    1da9 <luaV_execute+0xb9>
    1d9a:	48 8b 06             	mov    rax,QWORD PTR [rsi]
    1d9d:	48 89 45 10          	mov    QWORD PTR [rbp+0x10],rax
    1da1:	0f b7 46 08          	movzx  eax,WORD PTR [rsi+0x8]
    1da5:	66 89 45 18          	mov    WORD PTR [rbp+0x18],ax
        {
          lua_assert(ISK(GETARG_C(i)));
          TValue *rc = k + INDEXK(GETARG_C(i));
    1da9:	44 89 c2             	mov    edx,r8d
          TString *key = tsvalue(rc);
          lua_assert(key->tt == LUA_TSHRSTR);
          Table *h = hvalue(rb);
    1dac:	48 8b 06             	mov    rax,QWORD PTR [rsi]
          TValue *rc = k + INDEXK(GETARG_C(i));
    1daf:	c1 ea 10             	shr    edx,0x10
    1db2:	83 e2 7f             	and    edx,0x7f
    1db5:	48 c1 e2 04          	shl    rdx,0x4
    1db9:	48 03 54 24 10       	add    rdx,QWORD PTR [rsp+0x10]
          TString *key = tsvalue(rc);
    1dbe:	48 8b 0a             	mov    rcx,QWORD PTR [rdx]
  Node *n = hashstr(t, key);
    1dc1:	44 8b 41 0c          	mov    r8d,DWORD PTR [rcx+0xc]
    1dc5:	44 23 40 50          	and    r8d,DWORD PTR [rax+0x50]
    1dc9:	49 c1 e0 05          	shl    r8,0x5
    1dcd:	4c 03 40 18          	add    r8,QWORD PTR [rax+0x18]
    1dd1:	eb 18                	jmp    1deb <luaV_execute+0xfb>
    1dd3:	0f 1f 44 00 00       	nop    DWORD PTR [rax+rax*1+0x0]
      int nx = gnext(n);
    1dd8:	49 63 40 1c          	movsxd rax,DWORD PTR [r8+0x1c]
      if (nx == 0)
    1ddc:	85 c0                	test   eax,eax
    1dde:	0f 84 fc 37 00 00    	je     55e0 <luaV_execute+0x38f0>
      n += nx;
    1de4:	48 c1 e0 05          	shl    rax,0x5
    1de8:	49 01 c0             	add    r8,rax
    if (ttisshrstring(k) && eqshrstr(tsvalue(k), key))
    1deb:	66 41 81 78 18 04 80 	cmp    WORD PTR [r8+0x18],0x8004
    1df2:	75 e4                	jne    1dd8 <luaV_execute+0xe8>
    1df4:	49 3b 48 10          	cmp    rcx,QWORD PTR [r8+0x10]
    1df8:	75 de                	jne    1dd8 <luaV_execute+0xe8>
          const TValue *v = luaH_getshortstr(h, key);
          if (RAVI_LIKELY(!ttisnil(v))) {
    1dfa:	41 0f b7 40 08       	movzx  eax,WORD PTR [r8+0x8]
    1dff:	66 85 c0             	test   ax,ax
    1e02:	0f 84 ed 37 00 00    	je     55f5 <luaV_execute+0x3905>
            setobj2s(L, ra, v);
    1e08:	49 8b 10             	mov    rdx,QWORD PTR [r8]
    1e0b:	66 89 45 08          	mov    WORD PTR [rbp+0x8],ax
          }
          else {
            Protect(luaV_finishget(L, rb, rc, ra, v));
          }
        }
        vmbreak;
    1e0f:	48 89 d8             	mov    rax,rbx
    1e12:	48 83 c3 04          	add    rbx,0x4
            setobj2s(L, ra, v);
    1e16:	48 89 55 00          	mov    QWORD PTR [rbp+0x0],rdx
        vmbreak;
    1e1a:	44 8b 00             	mov    r8d,DWORD PTR [rax]
    1e1d:	45 85 ed             	test   r13d,r13d
    1e20:	0f 85 0b 38 00 00    	jne    5631 <luaV_execute+0x3941>
    1e26:	44 89 c5             	mov    ebp,r8d
    1e29:	41 0f b6 c0          	movzx  eax,r8b
    1e2d:	c1 ed 08             	shr    ebp,0x8
    1e30:	48 89 c2             	mov    rdx,rax
    1e33:	83 e5 7f             	and    ebp,0x7f
    1e36:	48 c1 e5 04          	shl    rbp,0x4
    1e3a:	4c 01 e5             	add    rbp,r12
    1e3d:	41 ff 24 c6          	jmp    QWORD PTR [r14+rax*8]
        TValue *pstep = RAVI_LIKELY((op == OP_RAVI_FORPREP_I1)) ? NULL : ra + 2;
    1e41:	83 fa 59             	cmp    edx,0x59
    1e44:	0f 85 9e 57 00 00    	jne    75e8 <luaV_execute+0x58f8>
        lua_Integer initv = ivalue(pinit);
    1e4a:	48 8b 45 00          	mov    rax,QWORD PTR [rbp+0x0]
        lua_Integer istep = RAVI_LIKELY((op == OP_RAVI_FORPREP_I1)) ? 1 : ivalue(pstep);
    1e4e:	ba 01 00 00 00       	mov    edx,0x1
        setivalue(pinit, initv - istep);
    1e53:	48 29 d0             	sub    rax,rdx
        pc += GETARG_sBx(i);
    1e56:	41 c1 e8 10          	shr    r8d,0x10
        setivalue(pinit, initv - istep);
    1e5a:	41 bf 13 00 00 00    	mov    r15d,0x13
    1e60:	48 89 45 00          	mov    QWORD PTR [rbp+0x0],rax
        pc += GETARG_sBx(i);
    1e64:	4a 8d 84 83 00 00 fe 	lea    rax,[rbx+r8*4-0x20000]
    1e6b:	ff 
        setivalue(pinit, initv - istep);
    1e6c:	66 44 89 7d 08       	mov    WORD PTR [rbp+0x8],r15w
        vmbreak;
    1e71:	48 8d 58 04          	lea    rbx,[rax+0x4]
    1e75:	44 8b 00             	mov    r8d,DWORD PTR [rax]
    1e78:	45 85 ed             	test   r13d,r13d
    1e7b:	0f 85 74 57 00 00    	jne    75f5 <luaV_execute+0x5905>
    1e81:	44 89 c5             	mov    ebp,r8d
    1e84:	41 0f b6 c0          	movzx  eax,r8b
    1e88:	c1 ed 08             	shr    ebp,0x8
    1e8b:	48 89 c2             	mov    rdx,rax
    1e8e:	83 e5 7f             	and    ebp,0x7f
    1e91:	48 c1 e5 04          	shl    rbp,0x4
    1e95:	4c 01 e5             	add    rbp,r12
    1e98:	41 ff 24 c6          	jmp    QWORD PTR [r14+rax*8]
        lua_Integer step = op == OP_RAVI_FORLOOP_I1 ? 1 : ivalue(ra + 2);
    1e9c:	b8 01 00 00 00       	mov    eax,0x1
    1ea1:	83 fa 57             	cmp    edx,0x57
    1ea4:	74 04                	je     1eaa <luaV_execute+0x1ba>
    1ea6:	48 8b 45 20          	mov    rax,QWORD PTR [rbp+0x20]
        lua_Integer idx = ivalue(ra) + step; /* increment index */
    1eaa:	48 03 45 00          	add    rax,QWORD PTR [rbp+0x0]
        if (idx <= limit) {
    1eae:	48 89 da             	mov    rdx,rbx
    1eb1:	48 3b 45 10          	cmp    rax,QWORD PTR [rbp+0x10]
    1eb5:	7f 20                	jg     1ed7 <luaV_execute+0x1e7>
          chgivalue(ra, idx);               /* update internal index... */
    1eb7:	48 89 45 00          	mov    QWORD PTR [rbp+0x0],rax
          pc += GETARG_sBx(i); /* jump back */
    1ebb:	41 c1 e8 10          	shr    r8d,0x10
          setivalue(ra + 3, idx);           /* ...and external index */
    1ebf:	48 89 45 30          	mov    QWORD PTR [rbp+0x30],rax
    1ec3:	b8 13 00 00 00       	mov    eax,0x13
          pc += GETARG_sBx(i); /* jump back */
    1ec8:	44 89 c1             	mov    ecx,r8d
          setivalue(ra + 3, idx);           /* ...and external index */
    1ecb:	66 89 45 38          	mov    WORD PTR [rbp+0x38],ax
          pc += GETARG_sBx(i); /* jump back */
    1ecf:	48 8d 94 8b 00 00 fe 	lea    rdx,[rbx+rcx*4-0x20000]
    1ed6:	ff 
        vmbreak;
    1ed7:	48 8d 5a 04          	lea    rbx,[rdx+0x4]
    1edb:	44 8b 02             	mov    r8d,DWORD PTR [rdx]
    1ede:	45 85 ed             	test   r13d,r13d
    1ee1:	0f 85 85 57 00 00    	jne    766c <luaV_execute+0x597c>
    1ee7:	44 89 c5             	mov    ebp,r8d
    1eea:	41 0f b6 c0          	movzx  eax,r8b
    1eee:	c1 ed 08             	shr    ebp,0x8
    1ef1:	48 89 c2             	mov    rdx,rax
    1ef4:	83 e5 7f             	and    ebp,0x7f
    1ef7:	48 c1 e5 04          	shl    rbp,0x4
    1efb:	4c 01 e5             	add    rbp,r12
    1efe:	41 ff 24 c6          	jmp    QWORD PTR [r14+rax*8]
        setobjs2s(L, cb+2, ra+2);
    1f02:	48 8b 45 20          	mov    rax,QWORD PTR [rbp+0x20]
        StkId cb = ra + 3;  /* call base */
    1f06:	48 8d 75 30          	lea    rsi,[rbp+0x30]
        L->top = cb + 3;  /* func. + 2 args (state and index) */
    1f0a:	48 83 c5 60          	add    rbp,0x60
        Protect(luaD_call(L, cb, GETARG_C(i)));
    1f0e:	41 c1 e8 10          	shr    r8d,0x10
        L->top = cb + 3;  /* func. + 2 args (state and index) */
    1f12:	4c 8b 7c 24 08       	mov    r15,QWORD PTR [rsp+0x8]
        Protect(luaD_call(L, cb, GETARG_C(i)));
    1f17:	41 0f b6 d0          	movzx  edx,r8b
        setobjs2s(L, cb+2, ra+2);
    1f1b:	48 89 46 20          	mov    QWORD PTR [rsi+0x20],rax
    1f1f:	0f b7 45 c8          	movzx  eax,WORD PTR [rbp-0x38]
        L->top = cb + 3;  /* func. + 2 args (state and index) */
    1f23:	4c 89 ff             	mov    rdi,r15
        setobjs2s(L, cb+2, ra+2);
    1f26:	66 89 46 28          	mov    WORD PTR [rsi+0x28],ax
        setobjs2s(L, cb+1, ra+1);
    1f2a:	48 8b 45 b0          	mov    rax,QWORD PTR [rbp-0x50]
    1f2e:	48 89 46 10          	mov    QWORD PTR [rsi+0x10],rax
    1f32:	0f b7 45 b8          	movzx  eax,WORD PTR [rbp-0x48]
    1f36:	66 89 46 18          	mov    WORD PTR [rsi+0x18],ax
        setobjs2s(L, cb, ra);
    1f3a:	48 8b 45 a0          	mov    rax,QWORD PTR [rbp-0x60]
    1f3e:	48 89 45 d0          	mov    QWORD PTR [rbp-0x30],rax
    1f42:	0f b7 45 a8          	movzx  eax,WORD PTR [rbp-0x58]
    1f46:	66 89 46 08          	mov    WORD PTR [rsi+0x8],ax
        L->top = cb + 3;  /* func. + 2 args (state and index) */
    1f4a:	49 89 6f 10          	mov    QWORD PTR [r15+0x10],rbp
        Protect(luaD_call(L, cb, GETARG_C(i)));
    1f4e:	48 8b 6c 24 18       	mov    rbp,QWORD PTR [rsp+0x18]
    1f53:	48 89 5d 28          	mov    QWORD PTR [rbp+0x28],rbx
        i = *(pc++);  /* go to next instruction */
    1f57:	48 83 c3 04          	add    rbx,0x4
        Protect(luaD_call(L, cb, GETARG_C(i)));
    1f5b:	e8 00 00 00 00       	call   1f60 <luaV_execute+0x270>
        i = *(pc++);  /* go to next instruction */
    1f60:	44 8b 43 fc          	mov    r8d,DWORD PTR [rbx-0x4]
        Protect(luaD_call(L, cb, GETARG_C(i)));
    1f64:	4c 8b 65 20          	mov    r12,QWORD PTR [rbp+0x20]
        L->top = ci->top;
    1f68:	48 8b 45 08          	mov    rax,QWORD PTR [rbp+0x8]
        Protect(luaD_call(L, cb, GETARG_C(i)));
    1f6c:	45 0f b6 af c8 00 00 	movzx  r13d,BYTE PTR [r15+0xc8]
    1f73:	00 
        ra = RA(i);
    1f74:	44 89 c5             	mov    ebp,r8d
    1f77:	c1 ed 08             	shr    ebp,0x8
        L->top = ci->top;
    1f7a:	49 89 47 10          	mov    QWORD PTR [r15+0x10],rax
        Protect(luaD_call(L, cb, GETARG_C(i)));
    1f7e:	41 83 e5 0c          	and    r13d,0xc
        ra = RA(i);
    1f82:	83 e5 7f             	and    ebp,0x7f
    1f85:	48 c1 e5 04          	shl    rbp,0x4
    1f89:	4c 01 e5             	add    rbp,r12
        if (!ttisnil(ra + 1)) {  /* continue loop? */
    1f8c:	0f b7 55 18          	movzx  edx,WORD PTR [rbp+0x18]
    1f90:	48 89 d8             	mov    rax,rbx
    1f93:	66 85 d2             	test   dx,dx
    1f96:	74 1b                	je     1fb3 <luaV_execute+0x2c3>
          setobjs2s(L, ra, ra + 1);  /* save control variable */
    1f98:	48 8b 4d 10          	mov    rcx,QWORD PTR [rbp+0x10]
          pc += GETARG_sBx(i);  /* jump back */
    1f9c:	41 c1 e8 10          	shr    r8d,0x10
          setobjs2s(L, ra, ra + 1);  /* save control variable */
    1fa0:	66 89 55 08          	mov    WORD PTR [rbp+0x8],dx
          pc += GETARG_sBx(i);  /* jump back */
    1fa4:	44 89 c2             	mov    edx,r8d
          setobjs2s(L, ra, ra + 1);  /* save control variable */
    1fa7:	48 89 4d 00          	mov    QWORD PTR [rbp+0x0],rcx
          pc += GETARG_sBx(i);  /* jump back */
    1fab:	48 8d 84 93 00 00 fe 	lea    rax,[rbx+rdx*4-0x20000]
    1fb2:	ff 
        vmbreak;
    1fb3:	48 8d 58 04          	lea    rbx,[rax+0x4]
    1fb7:	44 8b 00             	mov    r8d,DWORD PTR [rax]
    1fba:	45 85 ed             	test   r13d,r13d
    1fbd:	0f 85 de 56 00 00    	jne    76a1 <luaV_execute+0x59b1>
    1fc3:	44 89 c5             	mov    ebp,r8d
    1fc6:	41 0f b6 c0          	movzx  eax,r8b
    1fca:	c1 ed 08             	shr    ebp,0x8
    1fcd:	48 89 c2             	mov    rdx,rax
    1fd0:	83 e5 7f             	and    ebp,0x7f
    1fd3:	48 c1 e5 04          	shl    rbp,0x4
    1fd7:	4c 01 e5             	add    rbp,r12
    1fda:	41 ff 24 c6          	jmp    QWORD PTR [r14+rax*8]
        TValue *rb = RKB(i);
    1fde:	44 89 c2             	mov    edx,r8d
    1fe1:	c1 ea 18             	shr    edx,0x18
    1fe4:	f6 c2 80             	test   dl,0x80
    1fe7:	0f 84 5f 37 00 00    	je     574c <luaV_execute+0x3a5c>
    1fed:	83 e2 7f             	and    edx,0x7f
    1ff0:	48 c1 e2 04          	shl    rdx,0x4
    1ff4:	48 03 54 24 10       	add    rdx,QWORD PTR [rsp+0x10]
        TValue *rc = RKC(i);
    1ff9:	41 c1 e8 10          	shr    r8d,0x10
    1ffd:	41 f6 c0 80          	test   r8b,0x80
    2001:	0f 84 ed 36 00 00    	je     56f4 <luaV_execute+0x3a04>
    2007:	48 8b 44 24 10       	mov    rax,QWORD PTR [rsp+0x10]
    200c:	41 83 e0 7f          	and    r8d,0x7f
    2010:	49 c1 e0 04          	shl    r8,0x4
    2014:	4a 8d 0c 00          	lea    rcx,[rax+r8*1]
        SETTABLE_INLINE_SSKEY_PROTECTED(L, ra, rb, rc);
    2018:	0f b7 45 08          	movzx  eax,WORD PTR [rbp+0x8]
    201c:	66 3d 05 80          	cmp    ax,0x8005
    2020:	0f 85 e8 36 00 00    	jne    570e <luaV_execute+0x3a1e>
    2026:	48 8b 45 00          	mov    rax,QWORD PTR [rbp+0x0]
    202a:	48 8b 32             	mov    rsi,QWORD PTR [rdx]
  Node *n = hashstr(t, key);
    202d:	44 8b 40 50          	mov    r8d,DWORD PTR [rax+0x50]
    2031:	44 23 46 0c          	and    r8d,DWORD PTR [rsi+0xc]
    2035:	49 c1 e0 05          	shl    r8,0x5
    2039:	4c 03 40 18          	add    r8,QWORD PTR [rax+0x18]
    203d:	eb 14                	jmp    2053 <luaV_execute+0x363>
    203f:	90                   	nop
      int nx = gnext(n);
    2040:	49 63 40 1c          	movsxd rax,DWORD PTR [r8+0x1c]
      if (nx == 0)
    2044:	85 c0                	test   eax,eax
    2046:	0f 84 24 36 00 00    	je     5670 <luaV_execute+0x3980>
      n += nx;
    204c:	48 c1 e0 05          	shl    rax,0x5
    2050:	49 01 c0             	add    r8,rax
    if (ttisshrstring(k) && eqshrstr(tsvalue(k), key))
    2053:	66 41 81 78 18 04 80 	cmp    WORD PTR [r8+0x18],0x8004
    205a:	75 e4                	jne    2040 <luaV_execute+0x350>
    205c:	49 3b 70 10          	cmp    rsi,QWORD PTR [r8+0x10]
    2060:	75 de                	jne    2040 <luaV_execute+0x350>
    2062:	66 41 83 78 08 00    	cmp    WORD PTR [r8+0x8],0x0
    2068:	0f 84 15 36 00 00    	je     5683 <luaV_execute+0x3993>
    206e:	48 8b 01             	mov    rax,QWORD PTR [rcx]
    2071:	49 89 00             	mov    QWORD PTR [r8],rax
    2074:	0f b7 41 08          	movzx  eax,WORD PTR [rcx+0x8]
    2078:	66 41 89 40 08       	mov    WORD PTR [r8+0x8],ax
    207d:	66 83 79 08 00       	cmp    WORD PTR [rcx+0x8],0x0
    2082:	0f 88 12 4d 00 00    	js     6d9a <luaV_execute+0x50aa>
        vmbreak;
    2088:	48 89 d8             	mov    rax,rbx
    208b:	48 83 c3 04          	add    rbx,0x4
    208f:	44 8b 00             	mov    r8d,DWORD PTR [rax]
    2092:	45 85 ed             	test   r13d,r13d
    2095:	0f 85 24 36 00 00    	jne    56bf <luaV_execute+0x39cf>
    209b:	44 89 c5             	mov    ebp,r8d
    209e:	41 0f b6 c0          	movzx  eax,r8b
    20a2:	c1 ed 08             	shr    ebp,0x8
    20a5:	48 89 c2             	mov    rdx,rax
    20a8:	83 e5 7f             	and    ebp,0x7f
    20ab:	48 c1 e5 04          	shl    rbp,0x4
    20af:	4c 01 e5             	add    rbp,r12
    20b2:	41 ff 24 c6          	jmp    QWORD PTR [r14+rax*8]
        savepc(L);  /* in case of allocation errors */
    20b6:	48 8b 7c 24 18       	mov    rdi,QWORD PTR [rsp+0x18]
        t = raviH_new(L, RAVI_TARRAYINT, 0);
    20bb:	4c 8b 7c 24 08       	mov    r15,QWORD PTR [rsp+0x8]
    20c0:	31 d2                	xor    edx,edx
    20c2:	be 03 00 00 00       	mov    esi,0x3
        savepc(L);  /* in case of allocation errors */
    20c7:	48 89 5f 28          	mov    QWORD PTR [rdi+0x28],rbx
        t = raviH_new(L, RAVI_TARRAYINT, 0);
    20cb:	4c 89 ff             	mov    rdi,r15
    20ce:	e8 00 00 00 00       	call   20d3 <luaV_execute+0x3e3>
        setiarrayvalue(L, ra, t);
    20d3:	41 bb 15 80 ff ff    	mov    r11d,0xffff8015
    20d9:	48 89 45 00          	mov    QWORD PTR [rbp+0x0],rax
        checkGC(L, ra + 1);
    20dd:	49 8b 47 18          	mov    rax,QWORD PTR [r15+0x18]
        setiarrayvalue(L, ra, t);
    20e1:	66 44 89 5d 08       	mov    WORD PTR [rbp+0x8],r11w
        checkGC(L, ra + 1);
    20e6:	48 83 78 18 00       	cmp    QWORD PTR [rax+0x18],0x0
    20eb:	0f 8f 88 47 00 00    	jg     6879 <luaV_execute+0x4b89>
        vmbreak;
    20f1:	48 89 d8             	mov    rax,rbx
    20f4:	48 83 c3 04          	add    rbx,0x4
    20f8:	44 8b 00             	mov    r8d,DWORD PTR [rax]
    20fb:	45 85 ed             	test   r13d,r13d
    20fe:	0f 85 67 67 00 00    	jne    886b <luaV_execute+0x6b7b>
    2104:	44 89 c5             	mov    ebp,r8d
    2107:	41 0f b6 c0          	movzx  eax,r8b
    210b:	c1 ed 08             	shr    ebp,0x8
    210e:	48 89 c2             	mov    rdx,rax
    2111:	83 e5 7f             	and    ebp,0x7f
    2114:	48 c1 e5 04          	shl    rbp,0x4
    2118:	4c 01 e5             	add    rbp,r12
    211b:	41 ff 24 c6          	jmp    QWORD PTR [r14+rax*8]
        TValue *rb = RKB(i);
    211f:	44 89 c0             	mov    eax,r8d
    2122:	c1 e8 18             	shr    eax,0x18
    2125:	a8 80                	test   al,0x80
    2127:	0f 85 6b 3e 00 00    	jne    5f98 <luaV_execute+0x42a8>
        TValue *rc = RKC(i);
    212d:	44 89 c2             	mov    edx,r8d
        TValue *rb = RKB(i);
    2130:	48 c1 e0 04          	shl    rax,0x4
        TValue *rc = RKC(i);
    2134:	c1 ea 10             	shr    edx,0x10
        TValue *rb = RKB(i);
    2137:	4c 01 e0             	add    rax,r12
        TValue *rc = RKC(i);
    213a:	f6 c2 80             	test   dl,0x80
    213d:	0f 84 70 3e 00 00    	je     5fb3 <luaV_execute+0x42c3>
    2143:	83 e2 7f             	and    edx,0x7f
    2146:	48 c1 e2 04          	shl    rdx,0x4
    214a:	48 03 54 24 10       	add    rdx,QWORD PTR [rsp+0x10]
        if (lessequals != GETARG_A(i))
    214f:	41 c1 e8 08          	shr    r8d,0x8
        int lessequals = (fltvalue(rb) <= fltvalue(rc));
    2153:	f2 0f 10 02          	movsd  xmm0,QWORD PTR [rdx]
        if (lessequals != GETARG_A(i))
    2157:	41 83 e0 7f          	and    r8d,0x7f
        int lessequals = (fltvalue(rb) <= fltvalue(rc));
    215b:	66 0f 2f 00          	comisd xmm0,QWORD PTR [rax]
    215f:	0f 93 c0             	setae  al
    2162:	0f b6 c0             	movzx  eax,al
        if (lessequals != GETARG_A(i))
    2165:	41 39 c0             	cmp    r8d,eax
    2168:	0f 84 68 4e 00 00    	je     6fd6 <luaV_execute+0x52e6>
          pc++;
    216e:	48 8d 43 04          	lea    rax,[rbx+0x4]
        vmbreak;
    2172:	48 8d 58 04          	lea    rbx,[rax+0x4]
    2176:	44 8b 00             	mov    r8d,DWORD PTR [rax]
    2179:	45 85 ed             	test   r13d,r13d
    217c:	0f 85 53 58 00 00    	jne    79d5 <luaV_execute+0x5ce5>
    2182:	44 89 c5             	mov    ebp,r8d
    2185:	41 0f b6 c0          	movzx  eax,r8b
    2189:	c1 ed 08             	shr    ebp,0x8
    218c:	48 89 c2             	mov    rdx,rax
    218f:	83 e5 7f             	and    ebp,0x7f
    2192:	48 c1 e5 04          	shl    rbp,0x4
    2196:	4c 01 e5             	add    rbp,r12
    2199:	41 ff 24 c6          	jmp    QWORD PTR [r14+rax*8]
        StkId rb = RB(i); /* variable - may not be a table */
    219d:	44 89 c6             	mov    esi,r8d
        TValue *rc = k + INDEXK(GETARG_C(i));
    21a0:	44 89 c2             	mov    edx,r8d
        StkId rb = RB(i); /* variable - may not be a table */
    21a3:	c1 ee 18             	shr    esi,0x18
        TValue *rc = k + INDEXK(GETARG_C(i));
    21a6:	c1 ea 10             	shr    edx,0x10
        StkId rb = RB(i); /* variable - may not be a table */
    21a9:	48 c1 e6 04          	shl    rsi,0x4
        TValue *rc = k + INDEXK(GETARG_C(i));
    21ad:	83 e2 7f             	and    edx,0x7f
        StkId rb = RB(i); /* variable - may not be a table */
    21b0:	4c 01 e6             	add    rsi,r12
        TValue *rc = k + INDEXK(GETARG_C(i));
    21b3:	48 c1 e2 04          	shl    rdx,0x4
    21b7:	48 03 54 24 10       	add    rdx,QWORD PTR [rsp+0x10]
        GETTABLE_INLINE_SSKEY_PROTECTED(L, rb, rc, ra);
    21bc:	0f b7 46 08          	movzx  eax,WORD PTR [rsi+0x8]
    21c0:	66 3d 05 80          	cmp    ax,0x8005
    21c4:	0f 85 0b 67 00 00    	jne    88d5 <luaV_execute+0x6be5>
    21ca:	48 8b 06             	mov    rax,QWORD PTR [rsi]
    21cd:	48 8b 0a             	mov    rcx,QWORD PTR [rdx]
  Node *n = hashstr(t, key);
    21d0:	44 8b 41 0c          	mov    r8d,DWORD PTR [rcx+0xc]
    21d4:	44 23 40 50          	and    r8d,DWORD PTR [rax+0x50]
    21d8:	49 c1 e0 05          	shl    r8,0x5
    21dc:	4c 03 40 18          	add    r8,QWORD PTR [rax+0x18]
    21e0:	eb 19                	jmp    21fb <luaV_execute+0x50b>
    21e2:	66 0f 1f 44 00 00    	nop    WORD PTR [rax+rax*1+0x0]
      int nx = gnext(n);
    21e8:	49 63 40 1c          	movsxd rax,DWORD PTR [r8+0x1c]
      if (nx == 0)
    21ec:	85 c0                	test   eax,eax
    21ee:	0f 84 94 4a 00 00    	je     6c88 <luaV_execute+0x4f98>
      n += nx;
    21f4:	48 c1 e0 05          	shl    rax,0x5
    21f8:	49 01 c0             	add    r8,rax
    if (ttisshrstring(k) && eqshrstr(tsvalue(k), key))
    21fb:	66 41 81 78 18 04 80 	cmp    WORD PTR [r8+0x18],0x8004
    2202:	75 e4                	jne    21e8 <luaV_execute+0x4f8>
    2204:	49 3b 48 10          	cmp    rcx,QWORD PTR [r8+0x10]
    2208:	75 de                	jne    21e8 <luaV_execute+0x4f8>
    220a:	41 0f b7 40 08       	movzx  eax,WORD PTR [r8+0x8]
    220f:	66 85 c0             	test   ax,ax
    2212:	0f 84 14 6d 00 00    	je     8f2c <luaV_execute+0x723c>
    2218:	49 8b 10             	mov    rdx,QWORD PTR [r8]
    221b:	66 89 45 08          	mov    WORD PTR [rbp+0x8],ax
    221f:	48 89 55 00          	mov    QWORD PTR [rbp+0x0],rdx
        vmbreak;
    2223:	48 89 d8             	mov    rax,rbx
    2226:	48 83 c3 04          	add    rbx,0x4
    222a:	44 8b 00             	mov    r8d,DWORD PTR [rax]
    222d:	45 85 ed             	test   r13d,r13d
    2230:	0f 85 75 60 00 00    	jne    82ab <luaV_execute+0x65bb>
    2236:	44 89 c5             	mov    ebp,r8d
    2239:	41 0f b6 c0          	movzx  eax,r8b
    223d:	c1 ed 08             	shr    ebp,0x8
    2240:	48 89 c2             	mov    rdx,rax
    2243:	83 e5 7f             	and    ebp,0x7f
    2246:	48 c1 e5 04          	shl    rbp,0x4
    224a:	4c 01 e5             	add    rbp,r12
    224d:	41 ff 24 c6          	jmp    QWORD PTR [r14+rax*8]
        StkId rb = cl->upvals[GETARG_B(i)]->v; /* variable - may not be a table */
    2251:	48 8b 74 24 20       	mov    rsi,QWORD PTR [rsp+0x20]
    2256:	44 89 c0             	mov    eax,r8d
        TValue *rc = k + INDEXK(GETARG_C(i));
    2259:	44 89 c2             	mov    edx,r8d
        StkId rb = cl->upvals[GETARG_B(i)]->v; /* variable - may not be a table */
    225c:	c1 e8 18             	shr    eax,0x18
        TValue *rc = k + INDEXK(GETARG_C(i));
    225f:	c1 ea 10             	shr    edx,0x10
        StkId rb = cl->upvals[GETARG_B(i)]->v; /* variable - may not be a table */
    2262:	48 8b 44 c6 20       	mov    rax,QWORD PTR [rsi+rax*8+0x20]
        TValue *rc = k + INDEXK(GETARG_C(i));
    2267:	83 e2 7f             	and    edx,0x7f
    226a:	48 c1 e2 04          	shl    rdx,0x4
    226e:	48 03 54 24 10       	add    rdx,QWORD PTR [rsp+0x10]
        StkId rb = cl->upvals[GETARG_B(i)]->v; /* variable - may not be a table */
    2273:	48 8b 30             	mov    rsi,QWORD PTR [rax]
        GETTABLE_INLINE_SSKEY_PROTECTED(L, rb, rc, ra);
    2276:	0f b7 46 08          	movzx  eax,WORD PTR [rsi+0x8]
    227a:	66 3d 05 80          	cmp    ax,0x8005
    227e:	0f 85 5c 60 00 00    	jne    82e0 <luaV_execute+0x65f0>
    2284:	48 8b 06             	mov    rax,QWORD PTR [rsi]
    2287:	48 8b 0a             	mov    rcx,QWORD PTR [rdx]
  Node *n = hashstr(t, key);
    228a:	44 8b 41 0c          	mov    r8d,DWORD PTR [rcx+0xc]
    228e:	44 23 40 50          	and    r8d,DWORD PTR [rax+0x50]
    2292:	49 c1 e0 05          	shl    r8,0x5
    2296:	4c 03 40 18          	add    r8,QWORD PTR [rax+0x18]
    229a:	eb 17                	jmp    22b3 <luaV_execute+0x5c3>
    229c:	0f 1f 40 00          	nop    DWORD PTR [rax+0x0]
      int nx = gnext(n);
    22a0:	49 63 40 1c          	movsxd rax,DWORD PTR [r8+0x1c]
      if (nx == 0)
    22a4:	85 c0                	test   eax,eax
    22a6:	0f 84 e8 49 00 00    	je     6c94 <luaV_execute+0x4fa4>
      n += nx;
    22ac:	48 c1 e0 05          	shl    rax,0x5
    22b0:	49 01 c0             	add    r8,rax
    if (ttisshrstring(k) && eqshrstr(tsvalue(k), key))
    22b3:	66 41 81 78 18 04 80 	cmp    WORD PTR [r8+0x18],0x8004
    22ba:	75 e4                	jne    22a0 <luaV_execute+0x5b0>
    22bc:	49 3b 48 10          	cmp    rcx,QWORD PTR [r8+0x10]
    22c0:	75 de                	jne    22a0 <luaV_execute+0x5b0>
    22c2:	41 0f b7 40 08       	movzx  eax,WORD PTR [r8+0x8]
    22c7:	66 85 c0             	test   ax,ax
    22ca:	0f 84 29 6d 00 00    	je     8ff9 <luaV_execute+0x7309>
    22d0:	49 8b 10             	mov    rdx,QWORD PTR [r8]
    22d3:	66 89 45 08          	mov    WORD PTR [rbp+0x8],ax
    22d7:	48 89 55 00          	mov    QWORD PTR [rbp+0x0],rdx
        vmbreak;
    22db:	48 89 d8             	mov    rax,rbx
    22de:	48 83 c3 04          	add    rbx,0x4
    22e2:	44 8b 00             	mov    r8d,DWORD PTR [rax]
    22e5:	45 85 ed             	test   r13d,r13d
    22e8:	0f 85 30 60 00 00    	jne    831e <luaV_execute+0x662e>
    22ee:	44 89 c5             	mov    ebp,r8d
    22f1:	41 0f b6 c0          	movzx  eax,r8b
    22f5:	c1 ed 08             	shr    ebp,0x8
    22f8:	48 89 c2             	mov    rdx,rax
    22fb:	83 e5 7f             	and    ebp,0x7f
    22fe:	48 c1 e5 04          	shl    rbp,0x4
    2302:	4c 01 e5             	add    rbp,r12
    2305:	41 ff 24 c6          	jmp    QWORD PTR [r14+rax*8]
        TValue *rb = RKB(i);
    2309:	44 89 c0             	mov    eax,r8d
    230c:	c1 e8 18             	shr    eax,0x18
    230f:	a8 80                	test   al,0x80
    2311:	0f 85 ab 3c 00 00    	jne    5fc2 <luaV_execute+0x42d2>
    2317:	48 c1 e0 04          	shl    rax,0x4
    231b:	49 8d 14 04          	lea    rdx,[r12+rax*1]
        TValue *rc = RKC(i);
    231f:	44 89 c0             	mov    eax,r8d
    2322:	c1 e8 10             	shr    eax,0x10
    2325:	a8 80                	test   al,0x80
    2327:	0f 84 b3 3c 00 00    	je     5fe0 <luaV_execute+0x42f0>
    232d:	83 e0 7f             	and    eax,0x7f
    2330:	48 c1 e0 04          	shl    rax,0x4
    2334:	48 03 44 24 10       	add    rax,QWORD PTR [rsp+0x10]
        if (lessequals != GETARG_A(i))
    2339:	41 c1 e8 08          	shr    r8d,0x8
        int lessequals = (ivalue(rb) <= ivalue(rc));
    233d:	48 8b 00             	mov    rax,QWORD PTR [rax]
        if (lessequals != GETARG_A(i))
    2340:	41 83 e0 7f          	and    r8d,0x7f
        int lessequals = (ivalue(rb) <= ivalue(rc));
    2344:	48 39 02             	cmp    QWORD PTR [rdx],rax
    2347:	0f 9e c0             	setle  al
    234a:	0f b6 c0             	movzx  eax,al
        if (lessequals != GETARG_A(i))
    234d:	41 39 c0             	cmp    r8d,eax
    2350:	0f 84 ec 4b 00 00    	je     6f42 <luaV_execute+0x5252>
          pc++;
    2356:	48 8d 43 04          	lea    rax,[rbx+0x4]
        vmbreak;
    235a:	48 8d 58 04          	lea    rbx,[rax+0x4]
    235e:	44 8b 00             	mov    r8d,DWORD PTR [rax]
    2361:	45 85 ed             	test   r13d,r13d
    2364:	0f 85 36 56 00 00    	jne    79a0 <luaV_execute+0x5cb0>
    236a:	44 89 c5             	mov    ebp,r8d
    236d:	41 0f b6 c0          	movzx  eax,r8b
    2371:	c1 ed 08             	shr    ebp,0x8
    2374:	48 89 c2             	mov    rdx,rax
    2377:	83 e5 7f             	and    ebp,0x7f
    237a:	48 c1 e5 04          	shl    rbp,0x4
    237e:	4c 01 e5             	add    rbp,r12
    2381:	41 ff 24 c6          	jmp    QWORD PTR [r14+rax*8]
        TValue *rb = RKB(i);
    2385:	44 89 c0             	mov    eax,r8d
    2388:	c1 e8 18             	shr    eax,0x18
    238b:	a8 80                	test   al,0x80
    238d:	0f 85 5c 3c 00 00    	jne    5fef <luaV_execute+0x42ff>
        TValue *rc = RKC(i);
    2393:	44 89 c2             	mov    edx,r8d
        TValue *rb = RKB(i);
    2396:	48 c1 e0 04          	shl    rax,0x4
        TValue *rc = RKC(i);
    239a:	c1 ea 10             	shr    edx,0x10
        TValue *rb = RKB(i);
    239d:	4c 01 e0             	add    rax,r12
        TValue *rc = RKC(i);
    23a0:	f6 c2 80             	test   dl,0x80
    23a3:	0f 84 61 3c 00 00    	je     600a <luaV_execute+0x431a>
    23a9:	83 e2 7f             	and    edx,0x7f
    23ac:	48 c1 e2 04          	shl    rdx,0x4
    23b0:	48 03 54 24 10       	add    rdx,QWORD PTR [rsp+0x10]
        if (lessthan != GETARG_A(i))
    23b5:	41 c1 e8 08          	shr    r8d,0x8
        int lessthan = (fltvalue(rb) < fltvalue(rc));
    23b9:	f2 0f 10 02          	movsd  xmm0,QWORD PTR [rdx]
        if (lessthan != GETARG_A(i))
    23bd:	41 83 e0 7f          	and    r8d,0x7f
        int lessthan = (fltvalue(rb) < fltvalue(rc));
    23c1:	66 0f 2f 00          	comisd xmm0,QWORD PTR [rax]
    23c5:	0f 97 c0             	seta   al
    23c8:	0f b6 c0             	movzx  eax,al
        if (lessthan != GETARG_A(i))
    23cb:	41 39 c0             	cmp    r8d,eax
    23ce:	0f 84 37 4b 00 00    	je     6f0b <luaV_execute+0x521b>
          pc++;
    23d4:	48 8d 43 04          	lea    rax,[rbx+0x4]
        vmbreak;
    23d8:	48 8d 58 04          	lea    rbx,[rax+0x4]
    23dc:	44 8b 00             	mov    r8d,DWORD PTR [rax]
    23df:	45 85 ed             	test   r13d,r13d
    23e2:	0f 85 83 55 00 00    	jne    796b <luaV_execute+0x5c7b>
    23e8:	44 89 c5             	mov    ebp,r8d
    23eb:	41 0f b6 c0          	movzx  eax,r8b
    23ef:	c1 ed 08             	shr    ebp,0x8
    23f2:	48 89 c2             	mov    rdx,rax
    23f5:	83 e5 7f             	and    ebp,0x7f
    23f8:	48 c1 e5 04          	shl    rbp,0x4
    23fc:	4c 01 e5             	add    rbp,r12
    23ff:	41 ff 24 c6          	jmp    QWORD PTR [r14+rax*8]
        TValue *rb = RKB(i);
    2403:	44 89 c0             	mov    eax,r8d
    2406:	c1 e8 18             	shr    eax,0x18
    2409:	a8 80                	test   al,0x80
    240b:	0f 85 28 3a 00 00    	jne    5e39 <luaV_execute+0x4149>
    2411:	48 c1 e0 04          	shl    rax,0x4
    2415:	49 8d 14 04          	lea    rdx,[r12+rax*1]
        TValue *rc = RKC(i);
    2419:	44 89 c0             	mov    eax,r8d
    241c:	c1 e8 10             	shr    eax,0x10
    241f:	a8 80                	test   al,0x80
    2421:	0f 84 30 3a 00 00    	je     5e57 <luaV_execute+0x4167>
    2427:	83 e0 7f             	and    eax,0x7f
    242a:	48 c1 e0 04          	shl    rax,0x4
    242e:	48 03 44 24 10       	add    rax,QWORD PTR [rsp+0x10]
        if (lessthan != GETARG_A(i))
    2433:	41 c1 e8 08          	shr    r8d,0x8
        int lessthan = (ivalue(rb) < ivalue(rc));
    2437:	48 8b 00             	mov    rax,QWORD PTR [rax]
        if (lessthan != GETARG_A(i))
    243a:	41 83 e0 7f          	and    r8d,0x7f
        int lessthan = (ivalue(rb) < ivalue(rc));
    243e:	48 39 02             	cmp    QWORD PTR [rdx],rax
    2441:	0f 9c c0             	setl   al
    2444:	0f b6 c0             	movzx  eax,al
        if (lessthan != GETARG_A(i))
    2447:	41 39 c0             	cmp    r8d,eax
    244a:	0f 84 29 4b 00 00    	je     6f79 <luaV_execute+0x5289>
          pc++;
    2450:	48 8d 43 04          	lea    rax,[rbx+0x4]
        vmbreak;
    2454:	48 8d 58 04          	lea    rbx,[rax+0x4]
    2458:	44 8b 00             	mov    r8d,DWORD PTR [rax]
    245b:	45 85 ed             	test   r13d,r13d
    245e:	0f 85 25 57 00 00    	jne    7b89 <luaV_execute+0x5e99>
    2464:	44 89 c5             	mov    ebp,r8d
    2467:	41 0f b6 c0          	movzx  eax,r8b
    246b:	c1 ed 08             	shr    ebp,0x8
    246e:	48 89 c2             	mov    rdx,rax
    2471:	83 e5 7f             	and    ebp,0x7f
    2474:	48 c1 e5 04          	shl    rbp,0x4
    2478:	4c 01 e5             	add    rbp,r12
    247b:	41 ff 24 c6          	jmp    QWORD PTR [r14+rax*8]
        TValue *rb = RKB(i);
    247f:	44 89 c0             	mov    eax,r8d
    2482:	c1 e8 18             	shr    eax,0x18
    2485:	a8 80                	test   al,0x80
    2487:	0f 85 de 3a 00 00    	jne    5f6b <luaV_execute+0x427b>
    248d:	48 c1 e0 04          	shl    rax,0x4
    2491:	49 8d 14 04          	lea    rdx,[r12+rax*1]
        TValue *rc = RKC(i);
    2495:	44 89 c0             	mov    eax,r8d
    2498:	c1 e8 10             	shr    eax,0x10
    249b:	a8 80                	test   al,0x80
    249d:	0f 84 e6 3a 00 00    	je     5f89 <luaV_execute+0x4299>
    24a3:	83 e0 7f             	and    eax,0x7f
    24a6:	48 c1 e0 04          	shl    rax,0x4
    24aa:	48 03 44 24 10       	add    rax,QWORD PTR [rsp+0x10]
        if (equals != GETARG_A(i))
    24af:	41 c1 e8 08          	shr    r8d,0x8
        int equals = (fltvalue(rb) == fltvalue(rc));
    24b3:	f2 0f 10 02          	movsd  xmm0,QWORD PTR [rdx]
    24b7:	31 d2                	xor    edx,edx
        if (equals != GETARG_A(i))
    24b9:	41 83 e0 7f          	and    r8d,0x7f
        int equals = (fltvalue(rb) == fltvalue(rc));
    24bd:	66 0f 2e 00          	ucomisd xmm0,QWORD PTR [rax]
    24c1:	b8 00 00 00 00       	mov    eax,0x0
    24c6:	0f 9b c2             	setnp  dl
    24c9:	0f 44 c2             	cmove  eax,edx
        if (equals != GETARG_A(i))
    24cc:	41 39 c0             	cmp    r8d,eax
    24cf:	0f 84 38 4b 00 00    	je     700d <luaV_execute+0x531d>
          pc++;
    24d5:	48 8d 43 04          	lea    rax,[rbx+0x4]
        vmbreak;
    24d9:	48 8d 58 04          	lea    rbx,[rax+0x4]
    24dd:	44 8b 00             	mov    r8d,DWORD PTR [rax]
    24e0:	45 85 ed             	test   r13d,r13d
    24e3:	0f 85 21 55 00 00    	jne    7a0a <luaV_execute+0x5d1a>
    24e9:	44 89 c5             	mov    ebp,r8d
    24ec:	41 0f b6 c0          	movzx  eax,r8b
    24f0:	c1 ed 08             	shr    ebp,0x8
    24f3:	48 89 c2             	mov    rdx,rax
    24f6:	83 e5 7f             	and    ebp,0x7f
    24f9:	48 c1 e5 04          	shl    rbp,0x4
    24fd:	4c 01 e5             	add    rbp,r12
    2500:	41 ff 24 c6          	jmp    QWORD PTR [r14+rax*8]
        TValue *rb = RKB(i);
    2504:	44 89 c0             	mov    eax,r8d
    2507:	c1 e8 18             	shr    eax,0x18
    250a:	a8 80                	test   al,0x80
    250c:	0f 85 cd 39 00 00    	jne    5edf <luaV_execute+0x41ef>
    2512:	48 c1 e0 04          	shl    rax,0x4
    2516:	49 8d 14 04          	lea    rdx,[r12+rax*1]
        TValue *rc = RKC(i);
    251a:	44 89 c0             	mov    eax,r8d
    251d:	c1 e8 10             	shr    eax,0x10
    2520:	a8 80                	test   al,0x80
    2522:	0f 84 d5 39 00 00    	je     5efd <luaV_execute+0x420d>
    2528:	83 e0 7f             	and    eax,0x7f
    252b:	48 c1 e0 04          	shl    rax,0x4
    252f:	48 03 44 24 10       	add    rax,QWORD PTR [rsp+0x10]
        if (equals != GETARG_A(i))
    2534:	41 c1 e8 08          	shr    r8d,0x8
        int equals = (ivalue(rb) == ivalue(rc));
    2538:	48 8b 00             	mov    rax,QWORD PTR [rax]
        if (equals != GETARG_A(i))
    253b:	41 83 e0 7f          	and    r8d,0x7f
        int equals = (ivalue(rb) == ivalue(rc));
    253f:	48 39 02             	cmp    QWORD PTR [rdx],rax
    2542:	0f 94 c0             	sete   al
    2545:	0f b6 c0             	movzx  eax,al
        if (equals != GETARG_A(i))
    2548:	41 39 c0             	cmp    r8d,eax
    254b:	0f 84 f3 4a 00 00    	je     7044 <luaV_execute+0x5354>
          pc++;
    2551:	48 8d 43 04          	lea    rax,[rbx+0x4]
        vmbreak;
    2555:	48 8d 58 04          	lea    rbx,[rax+0x4]
    2559:	44 8b 00             	mov    r8d,DWORD PTR [rax]
    255c:	45 85 ed             	test   r13d,r13d
    255f:	0f 85 50 55 00 00    	jne    7ab5 <luaV_execute+0x5dc5>
    2565:	44 89 c5             	mov    ebp,r8d
    2568:	41 0f b6 c0          	movzx  eax,r8b
    256c:	c1 ed 08             	shr    ebp,0x8
    256f:	48 89 c2             	mov    rdx,rax
    2572:	83 e5 7f             	and    ebp,0x7f
    2575:	48 c1 e5 04          	shl    rbp,0x4
    2579:	4c 01 e5             	add    rbp,r12
    257c:	41 ff 24 c6          	jmp    QWORD PTR [r14+rax*8]
        TValue *rb = RB(i);
    2580:	41 c1 e8 18          	shr    r8d,0x18
    2584:	44 89 c0             	mov    eax,r8d
        lua_Integer ib = ivalue(rb);
    2587:	48 c1 e0 04          	shl    rax,0x4
        setivalue(ra, intop(^, ~l_castS2U(0), ib));
    258b:	49 8b 04 04          	mov    rax,QWORD PTR [r12+rax*1]
    258f:	48 f7 d0             	not    rax
    2592:	48 89 45 00          	mov    QWORD PTR [rbp+0x0],rax
    2596:	b8 13 00 00 00       	mov    eax,0x13
    259b:	66 89 45 08          	mov    WORD PTR [rbp+0x8],ax
        vmbreak;
    259f:	48 89 d8             	mov    rax,rbx
    25a2:	48 83 c3 04          	add    rbx,0x4
    25a6:	44 8b 00             	mov    r8d,DWORD PTR [rax]
    25a9:	45 85 ed             	test   r13d,r13d
    25ac:	0f 85 ee 62 00 00    	jne    88a0 <luaV_execute+0x6bb0>
    25b2:	44 89 c5             	mov    ebp,r8d
    25b5:	41 0f b6 c0          	movzx  eax,r8b
    25b9:	c1 ed 08             	shr    ebp,0x8
    25bc:	48 89 c2             	mov    rdx,rax
    25bf:	83 e5 7f             	and    ebp,0x7f
    25c2:	48 c1 e5 04          	shl    rbp,0x4
    25c6:	4c 01 e5             	add    rbp,r12
    25c9:	41 ff 24 c6          	jmp    QWORD PTR [r14+rax*8]
        TValue *rb = RKB(i);
    25cd:	44 89 c0             	mov    eax,r8d
    25d0:	c1 e8 18             	shr    eax,0x18
    25d3:	a8 80                	test   al,0x80
    25d5:	0f 85 ba 38 00 00    	jne    5e95 <luaV_execute+0x41a5>
    25db:	48 c1 e0 04          	shl    rax,0x4
        TValue *rc = RKC(i);
    25df:	41 c1 e8 10          	shr    r8d,0x10
        TValue *rb = RKB(i);
    25e3:	4c 01 e0             	add    rax,r12
        TValue *rc = RKC(i);
    25e6:	41 f6 c0 80          	test   r8b,0x80
    25ea:	0f 84 bf 38 00 00    	je     5eaf <luaV_execute+0x41bf>
    25f0:	48 8b 4c 24 10       	mov    rcx,QWORD PTR [rsp+0x10]
    25f5:	41 83 e0 7f          	and    r8d,0x7f
    25f9:	49 c1 e0 04          	shl    r8,0x4
    25fd:	4a 8d 14 01          	lea    rdx,[rcx+r8*1]
        lua_Integer ic = ivalue(rc);
    2601:	48 8b 0a             	mov    rcx,QWORD PTR [rdx]
        setivalue(ra, luaV_shiftl(ivalue(rb), -ic));
    2604:	48 8b 10             	mov    rdx,QWORD PTR [rax]
  if (y < 0) {  /* shift right? */
    2607:	48 85 c9             	test   rcx,rcx
    260a:	0f 8f ba 38 00 00    	jg     5eca <luaV_execute+0x41da>
    if (y <= -NBITS) return 0;
    2610:	31 c0                	xor    eax,eax
    if (y >= NBITS) return 0;
    2612:	48 83 f9 c1          	cmp    rcx,0xffffffffffffffc1
    2616:	7c 09                	jl     2621 <luaV_execute+0x931>
        setivalue(ra, luaV_shiftl(ivalue(rb), -ic));
    2618:	48 f7 d9             	neg    rcx
    else return intop(<<, x, y);
    261b:	48 89 d0             	mov    rax,rdx
    261e:	48 d3 e0             	shl    rax,cl
        setivalue(ra, luaV_shiftl(ivalue(rb), -ic));
    2621:	48 89 45 00          	mov    QWORD PTR [rbp+0x0],rax
    2625:	b8 13 00 00 00       	mov    eax,0x13
    262a:	66 89 45 08          	mov    WORD PTR [rbp+0x8],ax
        vmbreak;
    262e:	48 89 d8             	mov    rax,rbx
    2631:	48 83 c3 04          	add    rbx,0x4
    2635:	44 8b 00             	mov    r8d,DWORD PTR [rax]
    2638:	45 85 ed             	test   r13d,r13d
    263b:	0f 85 a9 54 00 00    	jne    7aea <luaV_execute+0x5dfa>
    2641:	44 89 c5             	mov    ebp,r8d
    2644:	41 0f b6 c0          	movzx  eax,r8b
    2648:	c1 ed 08             	shr    ebp,0x8
    264b:	48 89 c2             	mov    rdx,rax
    264e:	83 e5 7f             	and    ebp,0x7f
    2651:	48 c1 e5 04          	shl    rbp,0x4
    2655:	4c 01 e5             	add    rbp,r12
    2658:	41 ff 24 c6          	jmp    QWORD PTR [r14+rax*8]
        TValue *rb = RKB(i);
    265c:	44 89 c0             	mov    eax,r8d
    265f:	c1 e8 18             	shr    eax,0x18
    2662:	a8 80                	test   al,0x80
    2664:	0f 84 b8 38 00 00    	je     5f22 <luaV_execute+0x4232>
    266a:	83 e0 7f             	and    eax,0x7f
        TValue *rc = RKC(i);
    266d:	41 c1 e8 10          	shr    r8d,0x10
        TValue *rb = RKB(i);
    2671:	48 c1 e0 04          	shl    rax,0x4
    2675:	48 03 44 24 10       	add    rax,QWORD PTR [rsp+0x10]
        TValue *rc = RKC(i);
    267a:	41 f6 c0 80          	test   r8b,0x80
    267e:	0f 84 b3 38 00 00    	je     5f37 <luaV_execute+0x4247>
    2684:	41 83 e0 7f          	and    r8d,0x7f
    2688:	48 8b 7c 24 10       	mov    rdi,QWORD PTR [rsp+0x10]
    268d:	49 c1 e0 04          	shl    r8,0x4
    2691:	4a 8d 14 07          	lea    rdx,[rdi+r8*1]
        setivalue(ra, luaV_shiftl(ivalue(rb), ivalue(rc)));
    2695:	48 8b 0a             	mov    rcx,QWORD PTR [rdx]
    2698:	48 8b 10             	mov    rdx,QWORD PTR [rax]
  if (y < 0) {  /* shift right? */
    269b:	48 85 c9             	test   rcx,rcx
    269e:	0f 88 ae 38 00 00    	js     5f52 <luaV_execute+0x4262>
    else return intop(<<, x, y);
    26a4:	48 d3 e2             	shl    rdx,cl
    26a7:	b8 00 00 00 00       	mov    eax,0x0
    26ac:	48 83 f9 40          	cmp    rcx,0x40
    26b0:	48 0f 4c c2          	cmovl  rax,rdx
        setivalue(ra, luaV_shiftl(ivalue(rb), ivalue(rc)));
    26b4:	48 89 45 00          	mov    QWORD PTR [rbp+0x0],rax
    26b8:	b8 13 00 00 00       	mov    eax,0x13
    26bd:	66 89 45 08          	mov    WORD PTR [rbp+0x8],ax
        vmbreak;
    26c1:	48 89 d8             	mov    rax,rbx
    26c4:	48 83 c3 04          	add    rbx,0x4
    26c8:	44 8b 00             	mov    r8d,DWORD PTR [rax]
    26cb:	45 85 ed             	test   r13d,r13d
    26ce:	0f 85 4b 54 00 00    	jne    7b1f <luaV_execute+0x5e2f>
    26d4:	44 89 c5             	mov    ebp,r8d
    26d7:	41 0f b6 c0          	movzx  eax,r8b
    26db:	c1 ed 08             	shr    ebp,0x8
    26de:	48 89 c2             	mov    rdx,rax
    26e1:	83 e5 7f             	and    ebp,0x7f
    26e4:	48 c1 e5 04          	shl    rbp,0x4
    26e8:	4c 01 e5             	add    rbp,r12
    26eb:	41 ff 24 c6          	jmp    QWORD PTR [r14+rax*8]
        TValue *rb = RB(i);
    26ef:	45 89 c7             	mov    r15d,r8d
        TValue *rc = RKC(i);
    26f2:	41 c1 e8 10          	shr    r8d,0x10
        TValue *rb = RB(i);
    26f6:	41 c1 ef 18          	shr    r15d,0x18
    26fa:	49 c1 e7 04          	shl    r15,0x4
    26fe:	4d 01 e7             	add    r15,r12
        TValue *rc = RKC(i);
    2701:	41 f6 c0 80          	test   r8b,0x80
    2705:	0f 85 01 38 00 00    	jne    5f0c <luaV_execute+0x421c>
    270b:	45 0f b6 c0          	movzx  r8d,r8b
    270f:	49 c1 e0 04          	shl    r8,0x4
    2713:	4b 8d 14 04          	lea    rdx,[r12+r8*1]
        GETTABLE_INLINE_PROTECTED_I(L, rb, rc, ra);
    2717:	41 0f b7 47 08       	movzx  eax,WORD PTR [r15+0x8]
    271c:	66 3d 05 80          	cmp    ax,0x8005
    2720:	0f 85 4e 53 00 00    	jne    7a74 <luaV_execute+0x5d84>
    2726:	49 8b 3f             	mov    rdi,QWORD PTR [r15]
    2729:	48 8b 32             	mov    rsi,QWORD PTR [rdx]
    272c:	8b 47 0c             	mov    eax,DWORD PTR [rdi+0xc]
    272f:	48 8d 4e ff          	lea    rcx,[rsi-0x1]
    2733:	48 39 c1             	cmp    rcx,rax
    2736:	0f 83 a2 6b 00 00    	jae    92de <luaV_execute+0x75ee>
    273c:	48 8b 47 10          	mov    rax,QWORD PTR [rdi+0x10]
    2740:	48 c1 e6 04          	shl    rsi,0x4
    2744:	4c 8d 44 30 f0       	lea    r8,[rax+rsi*1-0x10]
    2749:	41 0f b7 40 08       	movzx  eax,WORD PTR [r8+0x8]
    274e:	66 85 c0             	test   ax,ax
    2751:	0f 84 54 6b 00 00    	je     92ab <luaV_execute+0x75bb>
    2757:	49 8b 10             	mov    rdx,QWORD PTR [r8]
    275a:	66 89 45 08          	mov    WORD PTR [rbp+0x8],ax
    275e:	48 89 55 00          	mov    QWORD PTR [rbp+0x0],rdx
        vmbreak;
    2762:	48 89 d8             	mov    rax,rbx
    2765:	48 83 c3 04          	add    rbx,0x4
    2769:	44 8b 00             	mov    r8d,DWORD PTR [rax]
    276c:	45 85 ed             	test   r13d,r13d
    276f:	0f 85 ca 52 00 00    	jne    7a3f <luaV_execute+0x5d4f>
    2775:	44 89 c5             	mov    ebp,r8d
    2778:	41 0f b6 c0          	movzx  eax,r8b
    277c:	c1 ed 08             	shr    ebp,0x8
    277f:	48 89 c2             	mov    rdx,rax
    2782:	83 e5 7f             	and    ebp,0x7f
    2785:	48 c1 e5 04          	shl    rbp,0x4
    2789:	4c 01 e5             	add    rbp,r12
    278c:	41 ff 24 c6          	jmp    QWORD PTR [r14+rax*8]
        savepc(L);  /* in case of allocation errors */
    2790:	48 8b 7c 24 18       	mov    rdi,QWORD PTR [rsp+0x18]
        t = raviH_new(L, RAVI_TARRAYFLT, 0);
    2795:	4c 8b 7c 24 08       	mov    r15,QWORD PTR [rsp+0x8]
    279a:	31 d2                	xor    edx,edx
    279c:	be 04 00 00 00       	mov    esi,0x4
        savepc(L);  /* in case of allocation errors */
    27a1:	48 89 5f 28          	mov    QWORD PTR [rdi+0x28],rbx
        t = raviH_new(L, RAVI_TARRAYFLT, 0);
    27a5:	4c 89 ff             	mov    rdi,r15
    27a8:	e8 00 00 00 00       	call   27ad <luaV_execute+0xabd>
        setfarrayvalue(L, ra, t);
    27ad:	41 ba 25 80 ff ff    	mov    r10d,0xffff8025
    27b3:	48 89 45 00          	mov    QWORD PTR [rbp+0x0],rax
        checkGC(L, ra + 1);
    27b7:	49 8b 47 18          	mov    rax,QWORD PTR [r15+0x18]
        setfarrayvalue(L, ra, t);
    27bb:	66 44 89 55 08       	mov    WORD PTR [rbp+0x8],r10w
        checkGC(L, ra + 1);
    27c0:	48 83 78 18 00       	cmp    QWORD PTR [rax+0x18],0x0
    27c5:	0f 8f 78 40 00 00    	jg     6843 <luaV_execute+0x4b53>
        vmbreak;
    27cb:	48 89 d8             	mov    rax,rbx
    27ce:	48 83 c3 04          	add    rbx,0x4
    27d2:	44 8b 00             	mov    r8d,DWORD PTR [rax]
    27d5:	45 85 ed             	test   r13d,r13d
    27d8:	0f 85 6a 64 00 00    	jne    8c48 <luaV_execute+0x6f58>
    27de:	44 89 c5             	mov    ebp,r8d
    27e1:	41 0f b6 c0          	movzx  eax,r8b
    27e5:	c1 ed 08             	shr    ebp,0x8
    27e8:	48 89 c2             	mov    rdx,rax
    27eb:	83 e5 7f             	and    ebp,0x7f
    27ee:	48 c1 e5 04          	shl    rbp,0x4
    27f2:	4c 01 e5             	add    rbp,r12
    27f5:	41 ff 24 c6          	jmp    QWORD PTR [r14+rax*8]
        int n = cast_int(base - ci->func) - cl->p->numparams - 1;
    27f9:	48 8b 7c 24 20       	mov    rdi,QWORD PTR [rsp+0x20]
    27fe:	48 8b 4c 24 18       	mov    rcx,QWORD PTR [rsp+0x18]
    2803:	4c 89 e0             	mov    rax,r12
        int b = GETARG_B(i) - 1;  /* required results */
    2806:	44 89 c6             	mov    esi,r8d
    2809:	c1 ee 18             	shr    esi,0x18
    280c:	41 bf 00 00 00 00    	mov    r15d,0x0
        int n = cast_int(base - ci->func) - cl->p->numparams - 1;
    2812:	48 8b 57 18          	mov    rdx,QWORD PTR [rdi+0x18]
    2816:	48 2b 01             	sub    rax,QWORD PTR [rcx]
        int b = GETARG_B(i) - 1;  /* required results */
    2819:	83 ee 01             	sub    esi,0x1
        int n = cast_int(base - ci->func) - cl->p->numparams - 1;
    281c:	48 c1 f8 04          	sar    rax,0x4
    2820:	0f b6 52 0a          	movzx  edx,BYTE PTR [rdx+0xa]
    2824:	29 d0                	sub    eax,edx
        if (n < 0)  /* less arguments than parameters? */
    2826:	83 e8 01             	sub    eax,0x1
    2829:	44 0f 49 f8          	cmovns r15d,eax
        if (b < 0) {  /* B == 0? */
    282d:	83 fe ff             	cmp    esi,0xffffffff
    2830:	0f 84 17 41 00 00    	je     694d <luaV_execute+0x4c5d>
    2836:	41 39 f7             	cmp    r15d,esi
    2839:	89 f7                	mov    edi,esi
    283b:	41 0f 4e ff          	cmovle edi,r15d
        for (j = 0; j < b && j < n; j++)
    283f:	85 ff                	test   edi,edi
    2841:	74 39                	je     287c <luaV_execute+0xb8c>
    2843:	44 8d 47 ff          	lea    r8d,[rdi-0x1]
    2847:	4d 63 ff             	movsxd r15,r15d
    284a:	4c 89 e2             	mov    rdx,r12
    284d:	31 c0                	xor    eax,eax
    284f:	49 83 c0 01          	add    r8,0x1
    2853:	49 c1 e7 04          	shl    r15,0x4
    2857:	49 c1 e0 04          	shl    r8,0x4
    285b:	4c 29 fa             	sub    rdx,r15
    285e:	66 90                	xchg   ax,ax
          setobjs2s(L, ra + j, base - n + j);
    2860:	48 8b 0c 02          	mov    rcx,QWORD PTR [rdx+rax*1]
    2864:	48 89 4c 05 00       	mov    QWORD PTR [rbp+rax*1+0x0],rcx
    2869:	0f b7 4c 02 08       	movzx  ecx,WORD PTR [rdx+rax*1+0x8]
    286e:	66 89 4c 05 08       	mov    WORD PTR [rbp+rax*1+0x8],cx
    2873:	48 83 c0 10          	add    rax,0x10
        for (j = 0; j < b && j < n; j++)
    2877:	49 39 c0             	cmp    r8,rax
    287a:	75 e4                	jne    2860 <luaV_execute+0xb70>
        for (; j < b; j++)  /* complete required results with nil */
    287c:	39 f7                	cmp    edi,esi
    287e:	7d 2f                	jge    28af <luaV_execute+0xbbf>
    2880:	8d 56 ff             	lea    edx,[rsi-0x1]
    2883:	48 63 cf             	movsxd rcx,edi
    2886:	29 fa                	sub    edx,edi
    2888:	48 89 c8             	mov    rax,rcx
    288b:	48 01 ca             	add    rdx,rcx
    288e:	48 c1 e0 04          	shl    rax,0x4
    2892:	48 c1 e2 04          	shl    rdx,0x4
    2896:	48 01 e8             	add    rax,rbp
    2899:	48 8d 54 15 10       	lea    rdx,[rbp+rdx*1+0x10]
    289e:	66 90                	xchg   ax,ax
          setnilvalue(ra + j);
    28a0:	31 c9                	xor    ecx,ecx
    28a2:	48 83 c0 10          	add    rax,0x10
    28a6:	66 89 48 f8          	mov    WORD PTR [rax-0x8],cx
        for (; j < b; j++)  /* complete required results with nil */
    28aa:	48 39 c2             	cmp    rdx,rax
    28ad:	75 f1                	jne    28a0 <luaV_execute+0xbb0>
        vmbreak;
    28af:	48 89 d8             	mov    rax,rbx
    28b2:	48 83 c3 04          	add    rbx,0x4
    28b6:	44 8b 00             	mov    r8d,DWORD PTR [rax]
    28b9:	45 85 ed             	test   r13d,r13d
    28bc:	0f 85 c8 5d 00 00    	jne    868a <luaV_execute+0x699a>
    28c2:	44 89 c5             	mov    ebp,r8d
    28c5:	41 0f b6 c0          	movzx  eax,r8b
    28c9:	c1 ed 08             	shr    ebp,0x8
    28cc:	48 89 c2             	mov    rdx,rax
    28cf:	83 e5 7f             	and    ebp,0x7f
    28d2:	48 c1 e5 04          	shl    rbp,0x4
    28d6:	4c 01 e5             	add    rbp,r12
    28d9:	41 ff 24 c6          	jmp    QWORD PTR [r14+rax*8]
        Proto *p = cl->p->p[GETARG_Bx(i)];
    28dd:	48 8b 7c 24 20       	mov    rdi,QWORD PTR [rsp+0x20]
    28e2:	41 c1 e8 10          	shr    r8d,0x10
    28e6:	44 89 c0             	mov    eax,r8d
    28e9:	48 8b 57 18          	mov    rdx,QWORD PTR [rdi+0x18]
        LClosure *ncl = getcached(p, cl->upvals, base);  /* cached closure */
    28ed:	4c 8d 7f 20          	lea    r15,[rdi+0x20]
    28f1:	4c 89 fe             	mov    rsi,r15
        Proto *p = cl->p->p[GETARG_Bx(i)];
    28f4:	48 8b 52 40          	mov    rdx,QWORD PTR [rdx+0x40]
    28f8:	4c 8b 1c c2          	mov    r11,QWORD PTR [rdx+rax*8]
        LClosure *ncl = getcached(p, cl->upvals, base);  /* cached closure */
    28fc:	4c 89 e2             	mov    rdx,r12
    28ff:	4c 89 df             	mov    rdi,r11
    2902:	e8 f9 d6 ff ff       	call   0 <getcached>
        if (ncl == NULL) { /* no match? */
    2907:	48 85 c0             	test   rax,rax
    290a:	0f 84 d3 4d 00 00    	je     76e3 <luaV_execute+0x59f3>
          setclLvalue(L, ra, ncl);  /* push cashed closure */
    2910:	be 06 80 ff ff       	mov    esi,0xffff8006
    2915:	48 89 45 00          	mov    QWORD PTR [rbp+0x0],rax
    2919:	66 89 75 08          	mov    WORD PTR [rbp+0x8],si
        checkGC(L, ra + 1);
    291d:	4c 8b 7c 24 08       	mov    r15,QWORD PTR [rsp+0x8]
    2922:	49 8b 47 18          	mov    rax,QWORD PTR [r15+0x18]
    2926:	4c 89 ff             	mov    rdi,r15
    2929:	48 83 78 18 00       	cmp    QWORD PTR [rax+0x18],0x0
    292e:	0f 8f ae 3f 00 00    	jg     68e2 <luaV_execute+0x4bf2>
        vmbreak;
    2934:	48 89 d8             	mov    rax,rbx
    2937:	48 83 c3 04          	add    rbx,0x4
    293b:	44 8b 00             	mov    r8d,DWORD PTR [rax]
    293e:	45 85 ed             	test   r13d,r13d
    2941:	0f 85 a0 63 00 00    	jne    8ce7 <luaV_execute+0x6ff7>
    2947:	44 89 c5             	mov    ebp,r8d
    294a:	41 0f b6 c0          	movzx  eax,r8b
    294e:	c1 ed 08             	shr    ebp,0x8
    2951:	48 89 c2             	mov    rdx,rax
    2954:	83 e5 7f             	and    ebp,0x7f
    2957:	48 c1 e5 04          	shl    rbp,0x4
    295b:	4c 01 e5             	add    rbp,r12
    295e:	41 ff 24 c6          	jmp    QWORD PTR [r14+rax*8]
        TValue *rb = RKB(i);
    2962:	44 89 c0             	mov    eax,r8d
    2965:	c1 e8 18             	shr    eax,0x18
    2968:	a8 80                	test   al,0x80
    296a:	0f 85 e0 36 00 00    	jne    6050 <luaV_execute+0x4360>
    2970:	48 c1 e0 04          	shl    rax,0x4
        TValue *rc = RKC(i);
    2974:	41 c1 e8 10          	shr    r8d,0x10
        TValue *rb = RKB(i);
    2978:	49 8d 14 04          	lea    rdx,[r12+rax*1]
        TValue *rc = RKC(i);
    297c:	41 f6 c0 80          	test   r8b,0x80
    2980:	0f 84 e8 36 00 00    	je     606e <luaV_execute+0x437e>
    2986:	41 83 e0 7f          	and    r8d,0x7f
    298a:	48 8b 44 24 10       	mov    rax,QWORD PTR [rsp+0x10]
    298f:	49 c1 e0 04          	shl    r8,0x4
    2993:	4c 01 c0             	add    rax,r8
        setivalue(ra, intop(^, ivalue(rb), ivalue(rc)));
    2996:	48 8b 12             	mov    rdx,QWORD PTR [rdx]
    2999:	48 33 10             	xor    rdx,QWORD PTR [rax]
    299c:	b8 13 00 00 00       	mov    eax,0x13
    29a1:	66 89 45 08          	mov    WORD PTR [rbp+0x8],ax
        vmbreak;
    29a5:	48 89 d8             	mov    rax,rbx
    29a8:	48 83 c3 04          	add    rbx,0x4
        setivalue(ra, intop(^, ivalue(rb), ivalue(rc)));
    29ac:	48 89 55 00          	mov    QWORD PTR [rbp+0x0],rdx
        vmbreak;
    29b0:	44 8b 00             	mov    r8d,DWORD PTR [rax]
    29b3:	45 85 ed             	test   r13d,r13d
    29b6:	0f 85 7a 4f 00 00    	jne    7936 <luaV_execute+0x5c46>
    29bc:	44 89 c5             	mov    ebp,r8d
    29bf:	41 0f b6 c0          	movzx  eax,r8b
    29c3:	c1 ed 08             	shr    ebp,0x8
    29c6:	48 89 c2             	mov    rdx,rax
    29c9:	83 e5 7f             	and    ebp,0x7f
    29cc:	48 c1 e5 04          	shl    rbp,0x4
    29d0:	4c 01 e5             	add    rbp,r12
    29d3:	41 ff 24 c6          	jmp    QWORD PTR [r14+rax*8]
        TValue *rb = RKB(i);
    29d7:	44 89 c0             	mov    eax,r8d
    29da:	c1 e8 18             	shr    eax,0x18
    29dd:	a8 80                	test   al,0x80
    29df:	0f 85 9a 36 00 00    	jne    607f <luaV_execute+0x438f>
    29e5:	48 c1 e0 04          	shl    rax,0x4
        TValue *rc = RKC(i);
    29e9:	41 c1 e8 10          	shr    r8d,0x10
        TValue *rb = RKB(i);
    29ed:	49 8d 14 04          	lea    rdx,[r12+rax*1]
        TValue *rc = RKC(i);
    29f1:	41 f6 c0 80          	test   r8b,0x80
    29f5:	0f 84 a2 36 00 00    	je     609d <luaV_execute+0x43ad>
    29fb:	41 83 e0 7f          	and    r8d,0x7f
    29ff:	48 8b 44 24 10       	mov    rax,QWORD PTR [rsp+0x10]
    2a04:	49 c1 e0 04          	shl    r8,0x4
    2a08:	4c 01 c0             	add    rax,r8
        setivalue(ra, intop(| , ivalue(rb), ivalue(rc)));
    2a0b:	48 8b 12             	mov    rdx,QWORD PTR [rdx]
    2a0e:	48 0b 10             	or     rdx,QWORD PTR [rax]
    2a11:	b8 13 00 00 00       	mov    eax,0x13
    2a16:	66 89 45 08          	mov    WORD PTR [rbp+0x8],ax
        vmbreak;
    2a1a:	48 89 d8             	mov    rax,rbx
    2a1d:	48 83 c3 04          	add    rbx,0x4
        setivalue(ra, intop(| , ivalue(rb), ivalue(rc)));
    2a21:	48 89 55 00          	mov    QWORD PTR [rbp+0x0],rdx
        vmbreak;
    2a25:	44 8b 00             	mov    r8d,DWORD PTR [rax]
    2a28:	45 85 ed             	test   r13d,r13d
    2a2b:	0f 85 d0 4e 00 00    	jne    7901 <luaV_execute+0x5c11>
    2a31:	44 89 c5             	mov    ebp,r8d
    2a34:	41 0f b6 c0          	movzx  eax,r8b
    2a38:	c1 ed 08             	shr    ebp,0x8
    2a3b:	48 89 c2             	mov    rdx,rax
    2a3e:	83 e5 7f             	and    ebp,0x7f
    2a41:	48 c1 e5 04          	shl    rbp,0x4
    2a45:	4c 01 e5             	add    rbp,r12
    2a48:	41 ff 24 c6          	jmp    QWORD PTR [r14+rax*8]
        TValue *rb = RKB(i);
    2a4c:	44 89 c0             	mov    eax,r8d
    2a4f:	c1 e8 18             	shr    eax,0x18
    2a52:	a8 80                	test   al,0x80
    2a54:	0f 85 0c 34 00 00    	jne    5e66 <luaV_execute+0x4176>
    2a5a:	48 c1 e0 04          	shl    rax,0x4
        TValue *rc = RKC(i);
    2a5e:	41 c1 e8 10          	shr    r8d,0x10
        TValue *rb = RKB(i);
    2a62:	49 8d 14 04          	lea    rdx,[r12+rax*1]
        TValue *rc = RKC(i);
    2a66:	41 f6 c0 80          	test   r8b,0x80
    2a6a:	0f 84 14 34 00 00    	je     5e84 <luaV_execute+0x4194>
    2a70:	41 83 e0 7f          	and    r8d,0x7f
    2a74:	48 8b 44 24 10       	mov    rax,QWORD PTR [rsp+0x10]
    2a79:	49 c1 e0 04          	shl    r8,0x4
    2a7d:	4c 01 c0             	add    rax,r8
        setivalue(ra, intop(&, ivalue(rb), ivalue(rc)));
    2a80:	48 8b 12             	mov    rdx,QWORD PTR [rdx]
    2a83:	48 23 10             	and    rdx,QWORD PTR [rax]
        vmbreak;
    2a86:	48 89 d8             	mov    rax,rbx
    2a89:	48 83 c3 04          	add    rbx,0x4
        setivalue(ra, intop(&, ivalue(rb), ivalue(rc)));
    2a8d:	48 89 55 00          	mov    QWORD PTR [rbp+0x0],rdx
    2a91:	ba 13 00 00 00       	mov    edx,0x13
        vmbreak;
    2a96:	44 8b 00             	mov    r8d,DWORD PTR [rax]
        setivalue(ra, intop(&, ivalue(rb), ivalue(rc)));
    2a99:	66 89 55 08          	mov    WORD PTR [rbp+0x8],dx
        vmbreak;
    2a9d:	45 85 ed             	test   r13d,r13d
    2aa0:	0f 85 ae 50 00 00    	jne    7b54 <luaV_execute+0x5e64>
    2aa6:	44 89 c5             	mov    ebp,r8d
    2aa9:	41 0f b6 c0          	movzx  eax,r8b
    2aad:	c1 ed 08             	shr    ebp,0x8
    2ab0:	48 89 c2             	mov    rdx,rax
    2ab3:	83 e5 7f             	and    ebp,0x7f
    2ab6:	48 c1 e5 04          	shl    rbp,0x4
    2aba:	4c 01 e5             	add    rbp,r12
    2abd:	41 ff 24 c6          	jmp    QWORD PTR [r14+rax*8]
        vmbreak;
    2ac1:	48 89 d8             	mov    rax,rbx
    2ac4:	48 83 c3 04          	add    rbx,0x4
    2ac8:	44 8b 00             	mov    r8d,DWORD PTR [rax]
    2acb:	45 85 ed             	test   r13d,r13d
    2ace:	0f 85 ea 50 00 00    	jne    7bbe <luaV_execute+0x5ece>
    2ad4:	44 89 c5             	mov    ebp,r8d
    2ad7:	41 0f b6 c0          	movzx  eax,r8b
    2adb:	c1 ed 08             	shr    ebp,0x8
    2ade:	48 89 c2             	mov    rdx,rax
    2ae1:	83 e5 7f             	and    ebp,0x7f
    2ae4:	48 c1 e5 04          	shl    rbp,0x4
    2ae8:	4c 01 e5             	add    rbp,r12
    2aeb:	41 ff 24 c6          	jmp    QWORD PTR [r14+rax*8]
        if (ttisinteger(init) && ttisinteger(pstep) &&
    2aef:	66 83 7d 08 13       	cmp    WORD PTR [rbp+0x8],0x13
        TValue *plimit = ra + 1;
    2af4:	4c 8d 4d 10          	lea    r9,[rbp+0x10]
        TValue *pstep = ra + 2;
    2af8:	4c 8d 7d 20          	lea    r15,[rbp+0x20]
        if (ttisinteger(init) && ttisinteger(pstep) &&
    2afc:	0f 84 ed 3e 00 00    	je     69ef <luaV_execute+0x4cff>
          savepc(L);  /* in case of errors */
    2b02:	48 8b 44 24 18       	mov    rax,QWORD PTR [rsp+0x18]
          if (!tonumber(plimit, &nlimit))
    2b07:	66 41 83 79 08 03    	cmp    WORD PTR [r9+0x8],0x3
          savepc(L);  /* in case of errors */
    2b0d:	48 89 58 28          	mov    QWORD PTR [rax+0x28],rbx
          if (!tonumber(plimit, &nlimit))
    2b11:	0f 85 ab 63 00 00    	jne    8ec2 <luaV_execute+0x71d2>
    2b17:	f2 41 0f 10 01       	movsd  xmm0,QWORD PTR [r9]
    2b1c:	f2 0f 11 84 24 c8 00 	movsd  QWORD PTR [rsp+0xc8],xmm0
    2b23:	00 00 
          setfltvalue(plimit, nlimit);
    2b25:	41 ba 03 00 00 00    	mov    r10d,0x3
    2b2b:	f2 41 0f 11 01       	movsd  QWORD PTR [r9],xmm0
    2b30:	66 45 89 51 08       	mov    WORD PTR [r9+0x8],r10w
          if (!tonumber(pstep, &nstep))
    2b35:	66 41 83 7f 08 03    	cmp    WORD PTR [r15+0x8],0x3
    2b3b:	0f 85 bb 63 00 00    	jne    8efc <luaV_execute+0x720c>
    2b41:	f2 41 0f 10 0f       	movsd  xmm1,QWORD PTR [r15]
    2b46:	f2 0f 11 8c 24 d0 00 	movsd  QWORD PTR [rsp+0xd0],xmm1
    2b4d:	00 00 
          setfltvalue(pstep, nstep);
    2b4f:	41 b9 03 00 00 00    	mov    r9d,0x3
    2b55:	f2 41 0f 11 0f       	movsd  QWORD PTR [r15],xmm1
    2b5a:	66 45 89 4f 08       	mov    WORD PTR [r15+0x8],r9w
          if (!tonumber(init, &ninit))
    2b5f:	66 83 7d 08 03       	cmp    WORD PTR [rbp+0x8],0x3
    2b64:	0f 85 65 66 00 00    	jne    91cf <luaV_execute+0x74df>
    2b6a:	f2 0f 10 45 00       	movsd  xmm0,QWORD PTR [rbp+0x0]
          setfltvalue(init, luai_numsub(L, ninit, nstep));
    2b6f:	f2 0f 5c c1          	subsd  xmm0,xmm1
    2b73:	bf 03 00 00 00       	mov    edi,0x3
    2b78:	66 89 7d 08          	mov    WORD PTR [rbp+0x8],di
    2b7c:	f2 0f 11 45 00       	movsd  QWORD PTR [rbp+0x0],xmm0
        pc += GETARG_sBx(i);
    2b81:	41 c1 e8 10          	shr    r8d,0x10
    2b85:	44 89 c0             	mov    eax,r8d
    2b88:	48 8d 84 83 00 00 fe 	lea    rax,[rbx+rax*4-0x20000]
    2b8f:	ff 
        vmbreak;
    2b90:	48 8d 58 04          	lea    rbx,[rax+0x4]
    2b94:	44 8b 00             	mov    r8d,DWORD PTR [rax]
    2b97:	45 85 ed             	test   r13d,r13d
    2b9a:	0f 85 b0 5f 00 00    	jne    8b50 <luaV_execute+0x6e60>
    2ba0:	44 89 c5             	mov    ebp,r8d
    2ba3:	41 0f b6 c0          	movzx  eax,r8b
    2ba7:	c1 ed 08             	shr    ebp,0x8
    2baa:	48 89 c2             	mov    rdx,rax
    2bad:	83 e5 7f             	and    ebp,0x7f
    2bb0:	48 c1 e5 04          	shl    rbp,0x4
    2bb4:	4c 01 e5             	add    rbp,r12
    2bb7:	41 ff 24 c6          	jmp    QWORD PTR [r14+rax*8]
        if (RAVI_LIKELY(ttisinteger(ra))) {  /* integer loop? */
    2bbb:	66 83 7d 08 13       	cmp    WORD PTR [rbp+0x8],0x13
    2bc0:	0f 85 bf 5f 00 00    	jne    8b85 <luaV_execute+0x6e95>
          lua_Integer step = ivalue(ra + 2);
    2bc6:	48 8b 45 20          	mov    rax,QWORD PTR [rbp+0x20]
          lua_Integer idx = intop(+, ivalue(ra), step); /* increment index */
    2bca:	48 8b 55 00          	mov    rdx,QWORD PTR [rbp+0x0]
          lua_Integer limit = ivalue(ra + 1);
    2bce:	48 8b 4d 10          	mov    rcx,QWORD PTR [rbp+0x10]
          lua_Integer idx = intop(+, ivalue(ra), step); /* increment index */
    2bd2:	48 01 c2             	add    rdx,rax
          if (RAVI_LIKELY((0 < step)) ? (idx <= limit) : (limit <= idx)) {
    2bd5:	48 85 c0             	test   rax,rax
    2bd8:	0f 8e 2a 66 00 00    	jle    9208 <luaV_execute+0x7518>
    2bde:	48 39 ca             	cmp    rdx,rcx
    2be1:	0f 9e c1             	setle  cl
    2be4:	48 89 d8             	mov    rax,rbx
    2be7:	84 c9                	test   cl,cl
    2be9:	0f 85 1d 3c 00 00    	jne    680c <luaV_execute+0x4b1c>
        vmbreak;
    2bef:	48 8d 58 04          	lea    rbx,[rax+0x4]
    2bf3:	44 8b 00             	mov    r8d,DWORD PTR [rax]
    2bf6:	45 85 ed             	test   r13d,r13d
    2bf9:	0f 85 37 5c 00 00    	jne    8836 <luaV_execute+0x6b46>
    2bff:	44 89 c5             	mov    ebp,r8d
    2c02:	41 0f b6 c0          	movzx  eax,r8b
    2c06:	c1 ed 08             	shr    ebp,0x8
    2c09:	48 89 c2             	mov    rdx,rax
    2c0c:	83 e5 7f             	and    ebp,0x7f
    2c0f:	48 c1 e5 04          	shl    rbp,0x4
    2c13:	4c 01 e5             	add    rbp,r12
    2c16:	41 ff 24 c6          	jmp    QWORD PTR [r14+rax*8]
        if (cl->p->sizep > 0) luaF_close(L, base);
    2c1a:	48 8b 44 24 20       	mov    rax,QWORD PTR [rsp+0x20]
        int b = GETARG_B(i);
    2c1f:	41 c1 e8 18          	shr    r8d,0x18
    2c23:	45 89 c5             	mov    r13d,r8d
        if (cl->p->sizep > 0) luaF_close(L, base);
    2c26:	48 8b 40 18          	mov    rax,QWORD PTR [rax+0x18]
    2c2a:	8b 78 20             	mov    edi,DWORD PTR [rax+0x20]
    2c2d:	85 ff                	test   edi,edi
    2c2f:	0f 8f fc 3b 00 00    	jg     6831 <luaV_execute+0x4b41>
        savepc(L);
    2c35:	48 8b 44 24 18       	mov    rax,QWORD PTR [rsp+0x18]
        int nres = (b != 0 ? b - 1 : cast_int(L->top - ra));
    2c3a:	41 8d 4d ff          	lea    ecx,[r13-0x1]
        savepc(L);
    2c3e:	48 89 58 28          	mov    QWORD PTR [rax+0x28],rbx
        int nres = (b != 0 ? b - 1 : cast_int(L->top - ra));
    2c42:	45 85 ed             	test   r13d,r13d
    2c45:	0f 84 e8 33 00 00    	je     6033 <luaV_execute+0x4343>
        b = luaD_poscall(L, ci, ra, nres);
    2c4b:	4c 8b 7c 24 18       	mov    r15,QWORD PTR [rsp+0x18]
    2c50:	48 8b 5c 24 08       	mov    rbx,QWORD PTR [rsp+0x8]
    2c55:	48 89 ea             	mov    rdx,rbp
    2c58:	4c 89 fe             	mov    rsi,r15
    2c5b:	48 89 df             	mov    rdi,rbx
    2c5e:	e8 00 00 00 00       	call   2c63 <luaV_execute+0xf73>
        if (ci->callstatus & CIST_FRESH) /* 'ci' still the called one */ {
    2c63:	41 f6 47 42 08       	test   BYTE PTR [r15+0x42],0x8
    2c68:	0f 85 3b 6b 00 00    	jne    97a9 <luaV_execute+0x7ab9>
          ci = L->ci;
    2c6e:	48 8b 4b 20          	mov    rcx,QWORD PTR [rbx+0x20]
    2c72:	0f b6 93 c8 00 00 00 	movzx  edx,BYTE PTR [rbx+0xc8]
    2c79:	48 89 4c 24 18       	mov    QWORD PTR [rsp+0x18],rcx
          if (b) L->top = ci->top;
    2c7e:	85 c0                	test   eax,eax
    2c80:	0f 84 78 3b 00 00    	je     67fe <luaV_execute+0x4b0e>
    2c86:	48 8b 41 08          	mov    rax,QWORD PTR [rcx+0x8]
    2c8a:	48 89 43 10          	mov    QWORD PTR [rbx+0x10],rax
    2c8e:	48 8b 41 28          	mov    rax,QWORD PTR [rcx+0x28]
    2c92:	e9 a2 f0 ff ff       	jmp    1d39 <luaV_execute+0x49>
        if (b != 0) L->top = ra+b;  /* else previous instruction set top */
    2c97:	41 c1 e8 18          	shr    r8d,0x18
    2c9b:	0f 85 78 33 00 00    	jne    6019 <luaV_execute+0x4329>
        savepc(L);
    2ca1:	4c 8b 7c 24 18       	mov    r15,QWORD PTR [rsp+0x18]
        if (luaD_precall(L, ra, LUA_MULTRET,
    2ca6:	48 89 ee             	mov    rsi,rbp
    2ca9:	48 8b 6c 24 08       	mov    rbp,QWORD PTR [rsp+0x8]
    2cae:	b9 01 00 00 00       	mov    ecx,0x1
    2cb3:	ba ff ff ff ff       	mov    edx,0xffffffff
        savepc(L);
    2cb8:	49 89 5f 28          	mov    QWORD PTR [r15+0x28],rbx
        if (luaD_precall(L, ra, LUA_MULTRET,
    2cbc:	48 89 ef             	mov    rdi,rbp
    2cbf:	e8 00 00 00 00       	call   2cc4 <luaV_execute+0xfd4>
    2cc4:	85 c0                	test   eax,eax
    2cc6:	0f 84 19 6a 00 00    	je     96e5 <luaV_execute+0x79f5>
        vmbreak;
    2ccc:	48 89 d8             	mov    rax,rbx
          Protect((void)0);  /* update 'base' */
    2ccf:	49 89 5f 28          	mov    QWORD PTR [r15+0x28],rbx
    2cd3:	4d 8b 67 20          	mov    r12,QWORD PTR [r15+0x20]
        vmbreak;
    2cd7:	48 83 c3 04          	add    rbx,0x4
    2cdb:	44 8b 00             	mov    r8d,DWORD PTR [rax]
    2cde:	f6 85 c8 00 00 00 0c 	test   BYTE PTR [rbp+0xc8],0xc
    2ce5:	0f 85 45 64 00 00    	jne    9130 <luaV_execute+0x7440>
    2ceb:	45 31 ed             	xor    r13d,r13d
    2cee:	44 89 c5             	mov    ebp,r8d
    2cf1:	41 0f b6 c0          	movzx  eax,r8b
    2cf5:	c1 ed 08             	shr    ebp,0x8
    2cf8:	48 89 c2             	mov    rdx,rax
    2cfb:	83 e5 7f             	and    ebp,0x7f
    2cfe:	48 c1 e5 04          	shl    rbp,0x4
    2d02:	4c 01 e5             	add    rbp,r12
    2d05:	41 ff 24 c6          	jmp    QWORD PTR [r14+rax*8]
        int nresults = GETARG_C(i) - 1;
    2d09:	45 89 c5             	mov    r13d,r8d
    2d0c:	41 c1 ed 10          	shr    r13d,0x10
    2d10:	45 0f b6 ed          	movzx  r13d,r13b
    2d14:	41 83 ed 01          	sub    r13d,0x1
        if (b != 0)  /* fixed number of arguments? */
    2d18:	41 c1 e8 18          	shr    r8d,0x18
    2d1c:	0f 85 fd 30 00 00    	jne    5e1f <luaV_execute+0x412f>
        Protect(c_or_compiled = luaD_precall(L, ra, nresults, 1 /* OP_CALL */));
    2d22:	4c 8b 7c 24 18       	mov    r15,QWORD PTR [rsp+0x18]
    2d27:	48 89 ee             	mov    rsi,rbp
    2d2a:	48 8b 6c 24 08       	mov    rbp,QWORD PTR [rsp+0x8]
    2d2f:	44 89 ea             	mov    edx,r13d
    2d32:	b9 01 00 00 00       	mov    ecx,0x1
    2d37:	49 89 5f 28          	mov    QWORD PTR [r15+0x28],rbx
    2d3b:	48 89 ef             	mov    rdi,rbp
    2d3e:	e8 00 00 00 00       	call   2d43 <luaV_execute+0x1053>
    2d43:	0f b6 95 c8 00 00 00 	movzx  edx,BYTE PTR [rbp+0xc8]
    2d4a:	4d 8b 67 20          	mov    r12,QWORD PTR [r15+0x20]
    2d4e:	89 d1                	mov    ecx,edx
    2d50:	83 e1 0c             	and    ecx,0xc
        if (c_or_compiled) { /* C or Lua JITed function? */
    2d53:	85 c0                	test   eax,eax
    2d55:	0f 84 77 6a 00 00    	je     97d2 <luaV_execute+0x7ae2>
          if (c_or_compiled == 1 && nresults >= 0) {
    2d5b:	83 f8 01             	cmp    eax,0x1
    2d5e:	75 0d                	jne    2d6d <luaV_execute+0x107d>
    2d60:	45 85 ed             	test   r13d,r13d
    2d63:	78 08                	js     2d6d <luaV_execute+0x107d>
            L->top = ci->top; /* adjust results */
    2d65:	49 8b 47 08          	mov    rax,QWORD PTR [r15+0x8]
    2d69:	48 89 45 10          	mov    QWORD PTR [rbp+0x10],rax
        vmbreak;
    2d6d:	48 89 d8             	mov    rax,rbx
    2d70:	45 31 ed             	xor    r13d,r13d
    2d73:	48 83 c3 04          	add    rbx,0x4
    2d77:	44 8b 00             	mov    r8d,DWORD PTR [rax]
    2d7a:	84 c9                	test   cl,cl
    2d7c:	0f 85 18 64 00 00    	jne    919a <luaV_execute+0x74aa>
    2d82:	44 89 c5             	mov    ebp,r8d
    2d85:	41 0f b6 c0          	movzx  eax,r8b
    2d89:	c1 ed 08             	shr    ebp,0x8
    2d8c:	48 89 c2             	mov    rdx,rax
    2d8f:	83 e5 7f             	and    ebp,0x7f
    2d92:	48 c1 e5 04          	shl    rbp,0x4
    2d96:	4c 01 e5             	add    rbp,r12
    2d99:	41 ff 24 c6          	jmp    QWORD PTR [r14+rax*8]
        TValue *rb = RB(i);
    2d9d:	44 89 c0             	mov    eax,r8d
    2da0:	c1 e8 18             	shr    eax,0x18
    2da3:	48 c1 e0 04          	shl    rax,0x4
    2da7:	4c 01 e0             	add    rax,r12
        if (GETARG_C(i) ? l_isfalse(rb) : !l_isfalse(rb))
    2daa:	41 81 e0 00 00 ff 00 	and    r8d,0xff0000
    2db1:	0f 84 04 30 00 00    	je     5dbb <luaV_execute+0x40cb>
    2db7:	0f b7 50 08          	movzx  edx,WORD PTR [rax+0x8]
    2dbb:	66 85 d2             	test   dx,dx
    2dbe:	0f 85 65 44 00 00    	jne    7229 <luaV_execute+0x5539>
          pc++;
    2dc4:	48 8d 43 04          	lea    rax,[rbx+0x4]
        vmbreak;
    2dc8:	48 8d 58 04          	lea    rbx,[rax+0x4]
    2dcc:	44 8b 00             	mov    r8d,DWORD PTR [rax]
    2dcf:	45 85 ed             	test   r13d,r13d
    2dd2:	0f 85 1b 4e 00 00    	jne    7bf3 <luaV_execute+0x5f03>
    2dd8:	44 89 c5             	mov    ebp,r8d
    2ddb:	41 0f b6 c0          	movzx  eax,r8b
    2ddf:	c1 ed 08             	shr    ebp,0x8
    2de2:	48 89 c2             	mov    rdx,rax
    2de5:	83 e5 7f             	and    ebp,0x7f
    2de8:	48 c1 e5 04          	shl    rbp,0x4
    2dec:	4c 01 e5             	add    rbp,r12
    2def:	41 ff 24 c6          	jmp    QWORD PTR [r14+rax*8]
        if (GETARG_C(i) ? l_isfalse(ra) : !l_isfalse(ra))
    2df3:	41 81 e0 00 00 ff 00 	and    r8d,0xff0000
    2dfa:	0f 84 f1 2e 00 00    	je     5cf1 <luaV_execute+0x4001>
    2e00:	0f b7 45 08          	movzx  eax,WORD PTR [rbp+0x8]
    2e04:	66 85 c0             	test   ax,ax
    2e07:	0f 85 37 44 00 00    	jne    7244 <luaV_execute+0x5554>
          pc++;
    2e0d:	48 8d 43 04          	lea    rax,[rbx+0x4]
        vmbreak;
    2e11:	48 8d 58 04          	lea    rbx,[rax+0x4]
    2e15:	44 8b 00             	mov    r8d,DWORD PTR [rax]
    2e18:	45 85 ed             	test   r13d,r13d
    2e1b:	0f 85 07 4e 00 00    	jne    7c28 <luaV_execute+0x5f38>
    2e21:	44 89 c5             	mov    ebp,r8d
    2e24:	41 0f b6 c0          	movzx  eax,r8b
    2e28:	c1 ed 08             	shr    ebp,0x8
    2e2b:	48 89 c2             	mov    rdx,rax
    2e2e:	83 e5 7f             	and    ebp,0x7f
    2e31:	48 c1 e5 04          	shl    rbp,0x4
    2e35:	4c 01 e5             	add    rbp,r12
    2e38:	41 ff 24 c6          	jmp    QWORD PTR [r14+rax*8]
        TValue *rb = RKB(i);
    2e3c:	44 89 c0             	mov    eax,r8d
    2e3f:	c1 e8 18             	shr    eax,0x18
    2e42:	a8 80                	test   al,0x80
    2e44:	0f 85 fa 2d 00 00    	jne    5c44 <luaV_execute+0x3f54>
        TValue *rc = RKC(i);
    2e4a:	44 89 c2             	mov    edx,r8d
        TValue *rb = RKB(i);
    2e4d:	48 c1 e0 04          	shl    rax,0x4
        TValue *rc = RKC(i);
    2e51:	c1 ea 10             	shr    edx,0x10
        TValue *rb = RKB(i);
    2e54:	4c 01 e0             	add    rax,r12
        TValue *rc = RKC(i);
    2e57:	f6 c2 80             	test   dl,0x80
    2e5a:	0f 84 ff 2d 00 00    	je     5c5f <luaV_execute+0x3f6f>
        if (ttisinteger(rb) && ttisinteger(rc))
    2e60:	0f b7 70 08          	movzx  esi,WORD PTR [rax+0x8]
        TValue *rc = RKC(i);
    2e64:	83 e2 7f             	and    edx,0x7f
    2e67:	48 c1 e2 04          	shl    rdx,0x4
    2e6b:	48 03 54 24 10       	add    rdx,QWORD PTR [rsp+0x10]
        if (ttisinteger(rb) && ttisinteger(rc))
    2e70:	66 83 fe 13          	cmp    si,0x13
    2e74:	0f 84 fd 2d 00 00    	je     5c77 <luaV_execute+0x3f87>
        else if (ttisnumber(rb) && ttisnumber(rc))
    2e7a:	89 f1                	mov    ecx,esi
    2e7c:	83 e1 0f             	and    ecx,0xf
    2e7f:	66 83 f9 03          	cmp    cx,0x3
    2e83:	0f 84 ef 46 00 00    	je     7578 <luaV_execute+0x5888>
        else Protect(
    2e89:	4c 8b 7c 24 18       	mov    r15,QWORD PTR [rsp+0x18]
    2e8e:	48 8b 6c 24 08       	mov    rbp,QWORD PTR [rsp+0x8]
    2e93:	48 89 c6             	mov    rsi,rax
    2e96:	44 89 44 24 28       	mov    DWORD PTR [rsp+0x28],r8d
    2e9b:	49 89 5f 28          	mov    QWORD PTR [r15+0x28],rbx
    2e9f:	48 89 ef             	mov    rdi,rbp
    2ea2:	e8 00 00 00 00       	call   2ea7 <luaV_execute+0x11b7>
    2ea7:	4d 8b 67 20          	mov    r12,QWORD PTR [r15+0x20]
    2eab:	44 8b 44 24 28       	mov    r8d,DWORD PTR [rsp+0x28]
    2eb0:	44 0f b6 ad c8 00 00 	movzx  r13d,BYTE PTR [rbp+0xc8]
    2eb7:	00 
    2eb8:	41 83 e5 0c          	and    r13d,0xc
        if (res != GETARG_A(i))
    2ebc:	41 c1 e8 08          	shr    r8d,0x8
    2ec0:	41 83 e0 7f          	and    r8d,0x7f
    2ec4:	41 39 c0             	cmp    r8d,eax
    2ec7:	0f 84 ed 2d 00 00    	je     5cba <luaV_execute+0x3fca>
          pc++;
    2ecd:	48 8d 43 04          	lea    rax,[rbx+0x4]
        vmbreak;
    2ed1:	48 8d 58 04          	lea    rbx,[rax+0x4]
    2ed5:	44 8b 00             	mov    r8d,DWORD PTR [rax]
    2ed8:	45 85 ed             	test   r13d,r13d
    2edb:	0f 85 b1 4d 00 00    	jne    7c92 <luaV_execute+0x5fa2>
    2ee1:	44 89 c5             	mov    ebp,r8d
    2ee4:	41 0f b6 c0          	movzx  eax,r8b
    2ee8:	c1 ed 08             	shr    ebp,0x8
    2eeb:	48 89 c2             	mov    rdx,rax
    2eee:	83 e5 7f             	and    ebp,0x7f
    2ef1:	48 c1 e5 04          	shl    rbp,0x4
    2ef5:	4c 01 e5             	add    rbp,r12
    2ef8:	41 ff 24 c6          	jmp    QWORD PTR [r14+rax*8]
        TValue *rb = RKB(i);
    2efc:	44 89 c0             	mov    eax,r8d
    2eff:	c1 e8 18             	shr    eax,0x18
    2f02:	a8 80                	test   al,0x80
    2f04:	0f 85 a6 29 00 00    	jne    58b0 <luaV_execute+0x3bc0>
        TValue *rc = RKC(i);
    2f0a:	44 89 c2             	mov    edx,r8d
        TValue *rb = RKB(i);
    2f0d:	48 c1 e0 04          	shl    rax,0x4
        TValue *rc = RKC(i);
    2f11:	c1 ea 10             	shr    edx,0x10
        TValue *rb = RKB(i);
    2f14:	4c 01 e0             	add    rax,r12
        TValue *rc = RKC(i);
    2f17:	f6 c2 80             	test   dl,0x80
    2f1a:	0f 84 ab 29 00 00    	je     58cb <luaV_execute+0x3bdb>
        if (ttisinteger(rb) && ttisinteger(rc))
    2f20:	0f b7 70 08          	movzx  esi,WORD PTR [rax+0x8]
        TValue *rc = RKC(i);
    2f24:	83 e2 7f             	and    edx,0x7f
    2f27:	48 c1 e2 04          	shl    rdx,0x4
    2f2b:	48 03 54 24 10       	add    rdx,QWORD PTR [rsp+0x10]
        if (ttisinteger(rb) && ttisinteger(rc))
    2f30:	66 83 fe 13          	cmp    si,0x13
    2f34:	0f 84 a9 29 00 00    	je     58e3 <luaV_execute+0x3bf3>
        else if (ttisnumber(rb) && ttisnumber(rc))
    2f3a:	89 f1                	mov    ecx,esi
    2f3c:	83 e1 0f             	and    ecx,0xf
    2f3f:	66 83 f9 03          	cmp    cx,0x3
    2f43:	0f 84 47 46 00 00    	je     7590 <luaV_execute+0x58a0>
        else Protect(
    2f49:	4c 8b 7c 24 18       	mov    r15,QWORD PTR [rsp+0x18]
    2f4e:	48 8b 6c 24 08       	mov    rbp,QWORD PTR [rsp+0x8]
    2f53:	48 89 c6             	mov    rsi,rax
    2f56:	44 89 44 24 28       	mov    DWORD PTR [rsp+0x28],r8d
    2f5b:	49 89 5f 28          	mov    QWORD PTR [r15+0x28],rbx
    2f5f:	48 89 ef             	mov    rdi,rbp
    2f62:	e8 00 00 00 00       	call   2f67 <luaV_execute+0x1277>
    2f67:	4d 8b 67 20          	mov    r12,QWORD PTR [r15+0x20]
    2f6b:	44 8b 44 24 28       	mov    r8d,DWORD PTR [rsp+0x28]
    2f70:	44 0f b6 ad c8 00 00 	movzx  r13d,BYTE PTR [rbp+0xc8]
    2f77:	00 
    2f78:	41 83 e5 0c          	and    r13d,0xc
        if (res != GETARG_A(i))
    2f7c:	41 c1 e8 08          	shr    r8d,0x8
    2f80:	41 83 e0 7f          	and    r8d,0x7f
    2f84:	41 39 c0             	cmp    r8d,eax
    2f87:	0f 84 99 29 00 00    	je     5926 <luaV_execute+0x3c36>
          pc++;
    2f8d:	48 8d 43 04          	lea    rax,[rbx+0x4]
        vmbreak;
    2f91:	48 8d 58 04          	lea    rbx,[rax+0x4]
    2f95:	44 8b 00             	mov    r8d,DWORD PTR [rax]
    2f98:	45 85 ed             	test   r13d,r13d
    2f9b:	0f 85 28 4e 00 00    	jne    7dc9 <luaV_execute+0x60d9>
    2fa1:	44 89 c5             	mov    ebp,r8d
    2fa4:	41 0f b6 c0          	movzx  eax,r8b
    2fa8:	c1 ed 08             	shr    ebp,0x8
    2fab:	48 89 c2             	mov    rdx,rax
    2fae:	83 e5 7f             	and    ebp,0x7f
    2fb1:	48 c1 e5 04          	shl    rbp,0x4
    2fb5:	4c 01 e5             	add    rbp,r12
    2fb8:	41 ff 24 c6          	jmp    QWORD PTR [r14+rax*8]
        TValue *rb = RKB(i);
    2fbc:	44 89 c0             	mov    eax,r8d
    2fbf:	c1 e8 18             	shr    eax,0x18
    2fc2:	a8 80                	test   al,0x80
    2fc4:	0f 85 b8 28 00 00    	jne    5882 <luaV_execute+0x3b92>
    2fca:	48 c1 e0 04          	shl    rax,0x4
    2fce:	49 8d 34 04          	lea    rsi,[r12+rax*1]
        TValue *rc = RKC(i);
    2fd2:	44 89 c0             	mov    eax,r8d
    2fd5:	c1 e8 10             	shr    eax,0x10
    2fd8:	a8 80                	test   al,0x80
    2fda:	0f 84 c0 28 00 00    	je     58a0 <luaV_execute+0x3bb0>
    2fe0:	83 e0 7f             	and    eax,0x7f
    2fe3:	48 8b 7c 24 10       	mov    rdi,QWORD PTR [rsp+0x10]
    2fe8:	48 c1 e0 04          	shl    rax,0x4
    2fec:	48 8d 14 07          	lea    rdx,[rdi+rax*1]
        Protect(
    2ff0:	4c 8b 7c 24 18       	mov    r15,QWORD PTR [rsp+0x18]
    2ff5:	48 8b 6c 24 08       	mov    rbp,QWORD PTR [rsp+0x8]
    2ffa:	44 89 44 24 28       	mov    DWORD PTR [rsp+0x28],r8d
    2fff:	49 89 5f 28          	mov    QWORD PTR [r15+0x28],rbx
    3003:	48 89 ef             	mov    rdi,rbp
    3006:	e8 00 00 00 00       	call   300b <luaV_execute+0x131b>
        if (res != GETARG_A(i))
    300b:	44 8b 44 24 28       	mov    r8d,DWORD PTR [rsp+0x28]
        Protect(
    3010:	4d 8b 67 20          	mov    r12,QWORD PTR [r15+0x20]
    3014:	44 0f b6 ad c8 00 00 	movzx  r13d,BYTE PTR [rbp+0xc8]
    301b:	00 
        if (res != GETARG_A(i))
    301c:	41 c1 e8 08          	shr    r8d,0x8
    3020:	41 83 e0 7f          	and    r8d,0x7f
        Protect(
    3024:	41 83 e5 0c          	and    r13d,0xc
        if (res != GETARG_A(i))
    3028:	41 39 c0             	cmp    r8d,eax
    302b:	0f 84 7f 3f 00 00    	je     6fb0 <luaV_execute+0x52c0>
          pc++;
    3031:	48 8d 43 04          	lea    rax,[rbx+0x4]
        vmbreak;
    3035:	48 8d 58 04          	lea    rbx,[rax+0x4]
    3039:	44 8b 00             	mov    r8d,DWORD PTR [rax]
    303c:	45 85 ed             	test   r13d,r13d
    303f:	0f 85 0e 53 00 00    	jne    8353 <luaV_execute+0x6663>
    3045:	44 89 c5             	mov    ebp,r8d
    3048:	41 0f b6 c0          	movzx  eax,r8b
    304c:	c1 ed 08             	shr    ebp,0x8
    304f:	48 89 c2             	mov    rdx,rax
    3052:	83 e5 7f             	and    ebp,0x7f
    3055:	48 c1 e5 04          	shl    rbp,0x4
    3059:	4c 01 e5             	add    rbp,r12
    305c:	41 ff 24 c6          	jmp    QWORD PTR [r14+rax*8]
        dojump(ci, i, 0);
    3060:	44 89 c0             	mov    eax,r8d
    3063:	c1 e8 08             	shr    eax,0x8
    3066:	83 e0 7f             	and    eax,0x7f
    3069:	0f 85 d0 3a 00 00    	jne    6b3f <luaV_execute+0x4e4f>
    306f:	41 c1 e8 10          	shr    r8d,0x10
    3073:	45 31 ed             	xor    r13d,r13d
    3076:	41 8d 80 00 80 ff ff 	lea    eax,[r8-0x8000]
    307d:	48 98                	cdqe   
    307f:	48 8d 04 83          	lea    rax,[rbx+rax*4]
        vmbreak;
    3083:	48 8d 58 04          	lea    rbx,[rax+0x4]
    3087:	44 8b 00             	mov    r8d,DWORD PTR [rax]
    308a:	48 8b 44 24 08       	mov    rax,QWORD PTR [rsp+0x8]
    308f:	f6 80 c8 00 00 00 0c 	test   BYTE PTR [rax+0xc8],0xc
    3096:	0f 85 80 5c 00 00    	jne    8d1c <luaV_execute+0x702c>
    309c:	44 89 c5             	mov    ebp,r8d
    309f:	41 0f b6 c0          	movzx  eax,r8b
    30a3:	c1 ed 08             	shr    ebp,0x8
    30a6:	48 89 c2             	mov    rdx,rax
    30a9:	83 e5 7f             	and    ebp,0x7f
    30ac:	48 c1 e5 04          	shl    rbp,0x4
    30b0:	4c 01 e5             	add    rbp,r12
    30b3:	41 ff 24 c6          	jmp    QWORD PTR [r14+rax*8]
        int c = GETARG_C(i);
    30b7:	44 89 c0             	mov    eax,r8d
        L->top = base + c + 1;  /* mark the end of concat operands */
    30ba:	4c 8b 7c 24 08       	mov    r15,QWORD PTR [rsp+0x8]
        int b = GETARG_B(i);
    30bf:	44 89 c5             	mov    ebp,r8d
        int c = GETARG_C(i);
    30c2:	44 89 44 24 28       	mov    DWORD PTR [rsp+0x28],r8d
    30c7:	c1 e8 10             	shr    eax,0x10
        int b = GETARG_B(i);
    30ca:	c1 ed 18             	shr    ebp,0x18
        int c = GETARG_C(i);
    30cd:	0f b6 d0             	movzx  edx,al
        L->top = base + c + 1;  /* mark the end of concat operands */
    30d0:	4c 89 ff             	mov    rdi,r15
        int c = GETARG_C(i);
    30d3:	48 89 d0             	mov    rax,rdx
        L->top = base + c + 1;  /* mark the end of concat operands */
    30d6:	48 83 c2 01          	add    rdx,0x1
    30da:	48 c1 e2 04          	shl    rdx,0x4
        Protect(luaV_concat(L, c - b + 1));
    30de:	29 e8                	sub    eax,ebp
        L->top = base + c + 1;  /* mark the end of concat operands */
    30e0:	49 01 d4             	add    r12,rdx
        Protect(luaV_concat(L, c - b + 1));
    30e3:	8d 70 01             	lea    esi,[rax+0x1]
        L->top = base + c + 1;  /* mark the end of concat operands */
    30e6:	4d 89 67 10          	mov    QWORD PTR [r15+0x10],r12
        Protect(luaV_concat(L, c - b + 1));
    30ea:	4c 8b 64 24 18       	mov    r12,QWORD PTR [rsp+0x18]
    30ef:	49 89 5c 24 28       	mov    QWORD PTR [r12+0x28],rbx
    30f4:	e8 00 00 00 00       	call   30f9 <luaV_execute+0x1409>
        ra = RA(i);  /* 'luaV_concat' may invoke TMs and move the stack */
    30f9:	44 8b 44 24 28       	mov    r8d,DWORD PTR [rsp+0x28]
        rb = base + b;
    30fe:	89 e8                	mov    eax,ebp
        Protect(luaV_concat(L, c - b + 1));
    3100:	4d 8b 64 24 20       	mov    r12,QWORD PTR [r12+0x20]
        rb = base + b;
    3105:	48 c1 e0 04          	shl    rax,0x4
        Protect(luaV_concat(L, c - b + 1));
    3109:	45 0f b6 af c8 00 00 	movzx  r13d,BYTE PTR [r15+0xc8]
    3110:	00 
        ra = RA(i);  /* 'luaV_concat' may invoke TMs and move the stack */
    3111:	44 89 c2             	mov    edx,r8d
        rb = base + b;
    3114:	4c 01 e0             	add    rax,r12
        ra = RA(i);  /* 'luaV_concat' may invoke TMs and move the stack */
    3117:	c1 ea 08             	shr    edx,0x8
        setobjs2s(L, ra, rb);
    311a:	48 8b 08             	mov    rcx,QWORD PTR [rax]
        Protect(luaV_concat(L, c - b + 1));
    311d:	41 83 e5 0c          	and    r13d,0xc
        ra = RA(i);  /* 'luaV_concat' may invoke TMs and move the stack */
    3121:	83 e2 7f             	and    edx,0x7f
    3124:	48 c1 e2 04          	shl    rdx,0x4
    3128:	4c 01 e2             	add    rdx,r12
        setobjs2s(L, ra, rb);
    312b:	48 89 0a             	mov    QWORD PTR [rdx],rcx
    312e:	0f b7 48 08          	movzx  ecx,WORD PTR [rax+0x8]
    3132:	66 89 4a 08          	mov    WORD PTR [rdx+0x8],cx
        checkGC(L, (ra >= rb ? ra + 1 : rb));
    3136:	49 8b 4f 18          	mov    rcx,QWORD PTR [r15+0x18]
    313a:	48 83 79 18 00       	cmp    QWORD PTR [rcx+0x18],0x0
    313f:	7e 35                	jle    3176 <luaV_execute+0x1486>
    3141:	48 39 c2             	cmp    rdx,rax
    3144:	48 8d 4a 10          	lea    rcx,[rdx+0x10]
    3148:	4c 8b 7c 24 08       	mov    r15,QWORD PTR [rsp+0x8]
    314d:	48 0f 43 c1          	cmovae rax,rcx
    3151:	4c 89 ff             	mov    rdi,r15
    3154:	49 89 47 10          	mov    QWORD PTR [r15+0x10],rax
    3158:	e8 00 00 00 00       	call   315d <luaV_execute+0x146d>
    315d:	48 8b 44 24 18       	mov    rax,QWORD PTR [rsp+0x18]
    3162:	48 89 58 28          	mov    QWORD PTR [rax+0x28],rbx
    3166:	45 0f b6 af c8 00 00 	movzx  r13d,BYTE PTR [r15+0xc8]
    316d:	00 
    316e:	4c 8b 60 20          	mov    r12,QWORD PTR [rax+0x20]
    3172:	41 83 e5 0c          	and    r13d,0xc
        L->top = ci->top;  /* restore top */
    3176:	48 8b 44 24 18       	mov    rax,QWORD PTR [rsp+0x18]
    317b:	48 8b 4c 24 08       	mov    rcx,QWORD PTR [rsp+0x8]
    3180:	48 8b 40 08          	mov    rax,QWORD PTR [rax+0x8]
    3184:	48 89 41 10          	mov    QWORD PTR [rcx+0x10],rax
        vmbreak;
    3188:	48 89 d8             	mov    rax,rbx
    318b:	48 83 c3 04          	add    rbx,0x4
    318f:	44 8b 00             	mov    r8d,DWORD PTR [rax]
    3192:	45 85 ed             	test   r13d,r13d
    3195:	0f 85 78 57 00 00    	jne    8913 <luaV_execute+0x6c23>
    319b:	44 89 c5             	mov    ebp,r8d
    319e:	41 0f b6 c0          	movzx  eax,r8b
    31a2:	c1 ed 08             	shr    ebp,0x8
    31a5:	48 89 c2             	mov    rdx,rax
    31a8:	83 e5 7f             	and    ebp,0x7f
    31ab:	48 c1 e5 04          	shl    rbp,0x4
    31af:	4c 01 e5             	add    rbp,r12
    31b2:	41 ff 24 c6          	jmp    QWORD PTR [r14+rax*8]
        Protect(luaV_objlen(L, ra, RB(i)));
    31b6:	4c 8b 7c 24 18       	mov    r15,QWORD PTR [rsp+0x18]
    31bb:	41 c1 e8 18          	shr    r8d,0x18
    31bf:	48 89 ee             	mov    rsi,rbp
    31c2:	45 31 ed             	xor    r13d,r13d
    31c5:	44 89 c2             	mov    edx,r8d
    31c8:	48 8b 6c 24 08       	mov    rbp,QWORD PTR [rsp+0x8]
    31cd:	49 89 5f 28          	mov    QWORD PTR [r15+0x28],rbx
    31d1:	48 c1 e2 04          	shl    rdx,0x4
    31d5:	4c 01 e2             	add    rdx,r12
    31d8:	48 89 ef             	mov    rdi,rbp
    31db:	e8 00 00 00 00       	call   31e0 <luaV_execute+0x14f0>
        vmbreak;
    31e0:	48 89 d8             	mov    rax,rbx
        Protect(luaV_objlen(L, ra, RB(i)));
    31e3:	4d 8b 67 20          	mov    r12,QWORD PTR [r15+0x20]
        vmbreak;
    31e7:	48 83 c3 04          	add    rbx,0x4
    31eb:	44 8b 00             	mov    r8d,DWORD PTR [rax]
    31ee:	f6 85 c8 00 00 00 0c 	test   BYTE PTR [rbp+0xc8],0xc
    31f5:	0f 85 89 5b 00 00    	jne    8d84 <luaV_execute+0x7094>
    31fb:	44 89 c5             	mov    ebp,r8d
    31fe:	41 0f b6 c0          	movzx  eax,r8b
    3202:	c1 ed 08             	shr    ebp,0x8
    3205:	48 89 c2             	mov    rdx,rax
    3208:	83 e5 7f             	and    ebp,0x7f
    320b:	48 c1 e5 04          	shl    rbp,0x4
    320f:	4c 01 e5             	add    rbp,r12
    3212:	41 ff 24 c6          	jmp    QWORD PTR [r14+rax*8]
        TValue *rb = RB(i);
    3216:	41 c1 e8 18          	shr    r8d,0x18
        int res = l_isfalse(rb);  /* next assignment may change this value */
    321a:	ba 01 00 00 00       	mov    edx,0x1
        TValue *rb = RB(i);
    321f:	44 89 c0             	mov    eax,r8d
    3222:	48 c1 e0 04          	shl    rax,0x4
    3226:	4c 01 e0             	add    rax,r12
        int res = l_isfalse(rb);  /* next assignment may change this value */
    3229:	0f b7 48 08          	movzx  ecx,WORD PTR [rax+0x8]
    322d:	66 85 c9             	test   cx,cx
    3230:	0f 85 f7 27 00 00    	jne    5a2d <luaV_execute+0x3d3d>
        vmbreak;
    3236:	48 89 d8             	mov    rax,rbx
        setbvalue(ra, res);
    3239:	41 bf 01 00 00 00    	mov    r15d,0x1
    323f:	89 55 00             	mov    DWORD PTR [rbp+0x0],edx
        vmbreak;
    3242:	48 83 c3 04          	add    rbx,0x4
        setbvalue(ra, res);
    3246:	66 44 89 7d 08       	mov    WORD PTR [rbp+0x8],r15w
        vmbreak;
    324b:	44 8b 00             	mov    r8d,DWORD PTR [rax]
    324e:	45 85 ed             	test   r13d,r13d
    3251:	0f 85 f8 5a 00 00    	jne    8d4f <luaV_execute+0x705f>
    3257:	44 89 c5             	mov    ebp,r8d
    325a:	41 0f b6 c0          	movzx  eax,r8b
    325e:	c1 ed 08             	shr    ebp,0x8
    3261:	48 89 c2             	mov    rdx,rax
    3264:	83 e5 7f             	and    ebp,0x7f
    3267:	48 c1 e5 04          	shl    rbp,0x4
    326b:	4c 01 e5             	add    rbp,r12
    326e:	41 ff 24 c6          	jmp    QWORD PTR [r14+rax*8]
        TValue *rb = RB(i);
    3272:	41 c1 e8 18          	shr    r8d,0x18
    3276:	45 89 c1             	mov    r9d,r8d
    3279:	49 c1 e1 04          	shl    r9,0x4
    327d:	4d 01 e1             	add    r9,r12
        if (tointegerns(rb, &ib)) {
    3280:	41 0f b7 41 08       	movzx  eax,WORD PTR [r9+0x8]
    3285:	66 83 f8 13          	cmp    ax,0x13
    3289:	0f 84 a0 38 00 00    	je     6b2f <luaV_execute+0x4e3f>
  if (!ttisfloat(obj))
    328f:	66 83 f8 03          	cmp    ax,0x3
    3293:	0f 85 06 3c 00 00    	jne    6e9f <luaV_execute+0x51af>
    3299:	31 d2                	xor    edx,edx
    329b:	48 8d b4 24 b0 00 00 	lea    rsi,[rsp+0xb0]
    32a2:	00 
    32a3:	4c 89 cf             	mov    rdi,r9
    32a6:	e8 e5 cf ff ff       	call   290 <luaV_flttointeger.part.7>
        if (tointegerns(rb, &ib)) {
    32ab:	85 c0                	test   eax,eax
    32ad:	0f 84 ec 3b 00 00    	je     6e9f <luaV_execute+0x51af>
    32b3:	48 8b 84 24 b0 00 00 	mov    rax,QWORD PTR [rsp+0xb0]
    32ba:	00 
          setivalue(ra, intop(^, ~l_castS2U(0), ib));
    32bb:	48 f7 d0             	not    rax
    32be:	48 89 45 00          	mov    QWORD PTR [rbp+0x0],rax
    32c2:	b8 13 00 00 00       	mov    eax,0x13
    32c7:	66 89 45 08          	mov    WORD PTR [rbp+0x8],ax
        vmbreak;
    32cb:	48 89 d8             	mov    rax,rbx
    32ce:	48 83 c3 04          	add    rbx,0x4
    32d2:	44 8b 00             	mov    r8d,DWORD PTR [rax]
    32d5:	45 85 ed             	test   r13d,r13d
    32d8:	0f 85 e1 53 00 00    	jne    86bf <luaV_execute+0x69cf>
    32de:	44 89 c5             	mov    ebp,r8d
    32e1:	41 0f b6 c0          	movzx  eax,r8b
    32e5:	c1 ed 08             	shr    ebp,0x8
    32e8:	48 89 c2             	mov    rdx,rax
    32eb:	83 e5 7f             	and    ebp,0x7f
    32ee:	48 c1 e5 04          	shl    rbp,0x4
    32f2:	4c 01 e5             	add    rbp,r12
    32f5:	41 ff 24 c6          	jmp    QWORD PTR [r14+rax*8]
        TValue *rb = RB(i);
    32f9:	41 c1 e8 18          	shr    r8d,0x18
    32fd:	44 89 c6             	mov    esi,r8d
    3300:	48 c1 e6 04          	shl    rsi,0x4
    3304:	4c 01 e6             	add    rsi,r12
        if (ttisinteger(rb)) {
    3307:	0f b7 46 08          	movzx  eax,WORD PTR [rsi+0x8]
    330b:	66 83 f8 13          	cmp    ax,0x13
    330f:	0f 84 02 38 00 00    	je     6b17 <luaV_execute+0x4e27>
        else if (tonumberns(rb, nb)) {
    3315:	66 83 f8 03          	cmp    ax,0x3
    3319:	0f 85 5c 3d 00 00    	jne    707b <luaV_execute+0x538b>
          setfltvalue(ra, luai_numunm(L, nb));
    331f:	b8 03 00 00 00       	mov    eax,0x3
    3324:	f2 0f 10 06          	movsd  xmm0,QWORD PTR [rsi]
    3328:	66 0f 57 05 00 00 00 	xorpd  xmm0,XMMWORD PTR [rip+0x0]        # 3330 <luaV_execute+0x1640>
    332f:	00 
    3330:	66 89 45 08          	mov    WORD PTR [rbp+0x8],ax
    3334:	f2 0f 11 45 00       	movsd  QWORD PTR [rbp+0x0],xmm0
        vmbreak;
    3339:	48 89 d8             	mov    rax,rbx
    333c:	48 83 c3 04          	add    rbx,0x4
    3340:	44 8b 00             	mov    r8d,DWORD PTR [rax]
    3343:	45 85 ed             	test   r13d,r13d
    3346:	0f 85 a8 53 00 00    	jne    86f4 <luaV_execute+0x6a04>
    334c:	44 89 c5             	mov    ebp,r8d
    334f:	41 0f b6 c0          	movzx  eax,r8b
    3353:	c1 ed 08             	shr    ebp,0x8
    3356:	48 89 c2             	mov    rdx,rax
    3359:	83 e5 7f             	and    ebp,0x7f
    335c:	48 c1 e5 04          	shl    rbp,0x4
    3360:	4c 01 e5             	add    rbp,r12
    3363:	41 ff 24 c6          	jmp    QWORD PTR [r14+rax*8]
        TValue *rb = RKB(i);
    3367:	44 89 c0             	mov    eax,r8d
    336a:	c1 e8 18             	shr    eax,0x18
    336d:	a8 80                	test   al,0x80
    336f:	0f 85 d2 29 00 00    	jne    5d47 <luaV_execute+0x4057>
    3375:	48 c1 e0 04          	shl    rax,0x4
        TValue *rc = RKC(i);
    3379:	41 c1 e8 10          	shr    r8d,0x10
        TValue *rb = RKB(i);
    337d:	49 8d 34 04          	lea    rsi,[r12+rax*1]
        TValue *rc = RKC(i);
    3381:	41 f6 c0 80          	test   r8b,0x80
    3385:	0f 84 d9 29 00 00    	je     5d64 <luaV_execute+0x4074>
    338b:	48 8b 44 24 10       	mov    rax,QWORD PTR [rsp+0x10]
    3390:	41 83 e0 7f          	and    r8d,0x7f
    3394:	49 c1 e0 04          	shl    r8,0x4
    3398:	4a 8d 14 00          	lea    rdx,[rax+r8*1]
        if (tonumberns(rb, nb) && tonumberns(rc, nc)) {
    339c:	0f b7 46 08          	movzx  eax,WORD PTR [rsi+0x8]
    33a0:	66 83 f8 03          	cmp    ax,0x3
    33a4:	0f 84 d4 29 00 00    	je     5d7e <luaV_execute+0x408e>
    33aa:	66 83 f8 13          	cmp    ax,0x13
    33ae:	0f 84 f4 41 00 00    	je     75a8 <luaV_execute+0x58b8>
        else { Protect(luaT_trybinTM(L, rb, rc, ra, TM_POW)); }
    33b4:	4c 8b 7c 24 18       	mov    r15,QWORD PTR [rsp+0x18]
    33b9:	48 89 e9             	mov    rcx,rbp
    33bc:	48 8b 6c 24 08       	mov    rbp,QWORD PTR [rsp+0x8]
    33c1:	41 b8 0a 00 00 00    	mov    r8d,0xa
    33c7:	49 89 5f 28          	mov    QWORD PTR [r15+0x28],rbx
    33cb:	48 89 ef             	mov    rdi,rbp
    33ce:	e8 00 00 00 00       	call   33d3 <luaV_execute+0x16e3>
    33d3:	44 0f b6 ad c8 00 00 	movzx  r13d,BYTE PTR [rbp+0xc8]
    33da:	00 
    33db:	4d 8b 67 20          	mov    r12,QWORD PTR [r15+0x20]
    33df:	41 83 e5 0c          	and    r13d,0xc
        vmbreak;
    33e3:	48 89 d8             	mov    rax,rbx
    33e6:	48 83 c3 04          	add    rbx,0x4
    33ea:	44 8b 00             	mov    r8d,DWORD PTR [rax]
    33ed:	45 85 ed             	test   r13d,r13d
    33f0:	0f 85 98 43 00 00    	jne    778e <luaV_execute+0x5a9e>
    33f6:	44 89 c5             	mov    ebp,r8d
    33f9:	41 0f b6 c0          	movzx  eax,r8b
    33fd:	c1 ed 08             	shr    ebp,0x8
    3400:	48 89 c2             	mov    rdx,rax
    3403:	83 e5 7f             	and    ebp,0x7f
    3406:	48 c1 e5 04          	shl    rbp,0x4
    340a:	4c 01 e5             	add    rbp,r12
    340d:	41 ff 24 c6          	jmp    QWORD PTR [r14+rax*8]
        TValue *rb = RKB(i);
    3411:	44 89 c0             	mov    eax,r8d
    3414:	c1 e8 18             	shr    eax,0x18
    3417:	a8 80                	test   al,0x80
    3419:	0f 85 3e 25 00 00    	jne    595d <luaV_execute+0x3c6d>
    341f:	48 c1 e0 04          	shl    rax,0x4
        TValue *rc = RKC(i);
    3423:	41 c1 e8 10          	shr    r8d,0x10
        TValue *rb = RKB(i);
    3427:	49 8d 34 04          	lea    rsi,[r12+rax*1]
        TValue *rc = RKC(i);
    342b:	41 f6 c0 80          	test   r8b,0x80
    342f:	0f 84 46 25 00 00    	je     597b <luaV_execute+0x3c8b>
    3435:	48 8b 44 24 10       	mov    rax,QWORD PTR [rsp+0x10]
    343a:	41 83 e0 7f          	and    r8d,0x7f
    343e:	49 c1 e0 04          	shl    r8,0x4
    3442:	4a 8d 14 00          	lea    rdx,[rax+r8*1]
        if (ttisinteger(rb) && ttisinteger(rc)) {
    3446:	0f b7 46 08          	movzx  eax,WORD PTR [rsi+0x8]
    344a:	66 83 f8 13          	cmp    ax,0x13
    344e:	0f 84 41 25 00 00    	je     5995 <luaV_execute+0x3ca5>
        else if (tonumberns(rb, nb) && tonumberns(rc, nc)) {
    3454:	66 83 f8 03          	cmp    ax,0x3
    3458:	0f 85 cb 38 00 00    	jne    6d29 <luaV_execute+0x5039>
    345e:	0f b7 42 08          	movzx  eax,WORD PTR [rdx+0x8]
    3462:	f2 0f 10 06          	movsd  xmm0,QWORD PTR [rsi]
    3466:	66 83 f8 03          	cmp    ax,0x3
    346a:	0f 84 49 25 00 00    	je     59b9 <luaV_execute+0x3cc9>
    3470:	66 83 f8 13          	cmp    ax,0x13
    3474:	0f 85 af 38 00 00    	jne    6d29 <luaV_execute+0x5039>
    347a:	66 0f ef c9          	pxor   xmm1,xmm1
    347e:	f2 48 0f 2a 0a       	cvtsi2sd xmm1,QWORD PTR [rdx]
    3483:	e9 35 25 00 00       	jmp    59bd <luaV_execute+0x3ccd>
        TValue *rb = RKB(i);
    3488:	44 89 c0             	mov    eax,r8d
    348b:	c1 e8 18             	shr    eax,0x18
    348e:	a8 80                	test   al,0x80
    3490:	0f 84 18 27 00 00    	je     5bae <luaV_execute+0x3ebe>
    3496:	83 e0 7f             	and    eax,0x7f
    3499:	48 8b 4c 24 10       	mov    rcx,QWORD PTR [rsp+0x10]
        TValue *rc = RKC(i);
    349e:	41 c1 e8 10          	shr    r8d,0x10
        TValue *rb = RKB(i);
    34a2:	48 c1 e0 04          	shl    rax,0x4
    34a6:	48 8d 34 01          	lea    rsi,[rcx+rax*1]
        TValue *rc = RKC(i);
    34aa:	41 f6 c0 80          	test   r8b,0x80
    34ae:	0f 84 10 27 00 00    	je     5bc4 <luaV_execute+0x3ed4>
    34b4:	48 8b 44 24 10       	mov    rax,QWORD PTR [rsp+0x10]
    34b9:	41 83 e0 7f          	and    r8d,0x7f
    34bd:	49 c1 e0 04          	shl    r8,0x4
    34c1:	4a 8d 14 00          	lea    rdx,[rax+r8*1]
        if (ttisinteger(rb) && ttisinteger(rc)) {
    34c5:	0f b7 46 08          	movzx  eax,WORD PTR [rsi+0x8]
    34c9:	66 83 f8 13          	cmp    ax,0x13
    34cd:	0f 84 0b 27 00 00    	je     5bde <luaV_execute+0x3eee>
        else if (tonumberns(rb, nb) && tonumberns(rc, nc)) {
    34d3:	66 83 f8 03          	cmp    ax,0x3
    34d7:	0f 85 ef 37 00 00    	jne    6ccc <luaV_execute+0x4fdc>
    34dd:	0f b7 42 08          	movzx  eax,WORD PTR [rdx+0x8]
    34e1:	f2 0f 10 06          	movsd  xmm0,QWORD PTR [rsi]
    34e5:	66 83 f8 03          	cmp    ax,0x3
    34e9:	0f 84 13 27 00 00    	je     5c02 <luaV_execute+0x3f12>
    34ef:	66 83 f8 13          	cmp    ax,0x13
    34f3:	0f 85 d3 37 00 00    	jne    6ccc <luaV_execute+0x4fdc>
    34f9:	66 0f ef d2          	pxor   xmm2,xmm2
    34fd:	f2 48 0f 2a 12       	cvtsi2sd xmm2,QWORD PTR [rdx]
    3502:	e9 ff 26 00 00       	jmp    5c06 <luaV_execute+0x3f16>
        TValue *rb = RKB(i);
    3507:	44 89 c0             	mov    eax,r8d
    350a:	c1 e8 18             	shr    eax,0x18
    350d:	a8 80                	test   al,0x80
    350f:	0f 85 e6 25 00 00    	jne    5afb <luaV_execute+0x3e0b>
    3515:	48 c1 e0 04          	shl    rax,0x4
        TValue *rc = RKC(i);
    3519:	41 c1 e8 10          	shr    r8d,0x10
        TValue *rb = RKB(i);
    351d:	4d 8d 0c 04          	lea    r9,[r12+rax*1]
        TValue *rc = RKC(i);
    3521:	41 f6 c0 80          	test   r8b,0x80
    3525:	0f 84 ee 25 00 00    	je     5b19 <luaV_execute+0x3e29>
    352b:	48 8b 44 24 10       	mov    rax,QWORD PTR [rsp+0x10]
    3530:	41 83 e0 7f          	and    r8d,0x7f
    3534:	49 c1 e0 04          	shl    r8,0x4
    3538:	4e 8d 14 00          	lea    r10,[rax+r8*1]
        if (tointegerns(rb, &ib) && tointegerns(rc, &ic)) {
    353c:	41 0f b7 41 08       	movzx  eax,WORD PTR [r9+0x8]
    3541:	66 83 f8 13          	cmp    ax,0x13
    3545:	0f 84 e9 25 00 00    	je     5b34 <luaV_execute+0x3e44>
  if (!ttisfloat(obj))
    354b:	66 83 f8 03          	cmp    ax,0x3
    354f:	75 1a                	jne    356b <luaV_execute+0x187b>
    3551:	31 d2                	xor    edx,edx
    3553:	48 8d b4 24 a0 00 00 	lea    rsi,[rsp+0xa0]
    355a:	00 
    355b:	4c 89 cf             	mov    rdi,r9
    355e:	e8 2d cd ff ff       	call   290 <luaV_flttointeger.part.7>
        if (tointegerns(rb, &ib) && tointegerns(rc, &ic)) {
    3563:	85 c0                	test   eax,eax
    3565:	0f 85 d4 25 00 00    	jne    5b3f <luaV_execute+0x3e4f>
        else { Protect(luaT_trybinTM(L, rb, rc, ra, TM_SHR)); }
    356b:	4c 8b 7c 24 18       	mov    r15,QWORD PTR [rsp+0x18]
    3570:	48 89 e9             	mov    rcx,rbp
    3573:	48 8b 6c 24 08       	mov    rbp,QWORD PTR [rsp+0x8]
    3578:	4c 89 d2             	mov    rdx,r10
    357b:	41 b8 11 00 00 00    	mov    r8d,0x11
    3581:	4c 89 ce             	mov    rsi,r9
    3584:	49 89 5f 28          	mov    QWORD PTR [r15+0x28],rbx
    3588:	48 89 ef             	mov    rdi,rbp
    358b:	e8 00 00 00 00       	call   3590 <luaV_execute+0x18a0>
    3590:	44 0f b6 ad c8 00 00 	movzx  r13d,BYTE PTR [rbp+0xc8]
    3597:	00 
    3598:	4d 8b 67 20          	mov    r12,QWORD PTR [r15+0x20]
    359c:	41 83 e5 0c          	and    r13d,0xc
        vmbreak;
    35a0:	48 89 d8             	mov    rax,rbx
    35a3:	48 83 c3 04          	add    rbx,0x4
    35a7:	44 8b 00             	mov    r8d,DWORD PTR [rax]
    35aa:	45 85 ed             	test   r13d,r13d
    35ad:	0f 85 e4 42 00 00    	jne    7897 <luaV_execute+0x5ba7>
    35b3:	44 89 c5             	mov    ebp,r8d
    35b6:	41 0f b6 c0          	movzx  eax,r8b
    35ba:	c1 ed 08             	shr    ebp,0x8
    35bd:	48 89 c2             	mov    rdx,rax
    35c0:	83 e5 7f             	and    ebp,0x7f
    35c3:	48 c1 e5 04          	shl    rbp,0x4
    35c7:	4c 01 e5             	add    rbp,r12
    35ca:	41 ff 24 c6          	jmp    QWORD PTR [r14+rax*8]
        TValue *rb = RKB(i);
    35ce:	44 89 c0             	mov    eax,r8d
    35d1:	c1 e8 18             	shr    eax,0x18
    35d4:	a8 80                	test   al,0x80
    35d6:	0f 85 6b 24 00 00    	jne    5a47 <luaV_execute+0x3d57>
    35dc:	48 c1 e0 04          	shl    rax,0x4
        TValue *rc = RKC(i);
    35e0:	41 c1 e8 10          	shr    r8d,0x10
        TValue *rb = RKB(i);
    35e4:	4d 8d 0c 04          	lea    r9,[r12+rax*1]
        TValue *rc = RKC(i);
    35e8:	41 f6 c0 80          	test   r8b,0x80
    35ec:	0f 84 73 24 00 00    	je     5a65 <luaV_execute+0x3d75>
    35f2:	48 8b 44 24 10       	mov    rax,QWORD PTR [rsp+0x10]
    35f7:	41 83 e0 7f          	and    r8d,0x7f
    35fb:	49 c1 e0 04          	shl    r8,0x4
    35ff:	4e 8d 14 00          	lea    r10,[rax+r8*1]
        if (tointegerns(rb, &ib) && tointegerns(rc, &ic)) {
    3603:	41 0f b7 41 08       	movzx  eax,WORD PTR [r9+0x8]
    3608:	66 83 f8 13          	cmp    ax,0x13
    360c:	0f 84 6e 24 00 00    	je     5a80 <luaV_execute+0x3d90>
  if (!ttisfloat(obj))
    3612:	66 83 f8 03          	cmp    ax,0x3
    3616:	75 1a                	jne    3632 <luaV_execute+0x1942>
    3618:	31 d2                	xor    edx,edx
    361a:	48 8d b4 24 90 00 00 	lea    rsi,[rsp+0x90]
    3621:	00 
    3622:	4c 89 cf             	mov    rdi,r9
    3625:	e8 66 cc ff ff       	call   290 <luaV_flttointeger.part.7>
        if (tointegerns(rb, &ib) && tointegerns(rc, &ic)) {
    362a:	85 c0                	test   eax,eax
    362c:	0f 85 59 24 00 00    	jne    5a8b <luaV_execute+0x3d9b>
        else { Protect(luaT_trybinTM(L, rb, rc, ra, TM_SHL)); }
    3632:	4c 8b 7c 24 18       	mov    r15,QWORD PTR [rsp+0x18]
    3637:	48 89 e9             	mov    rcx,rbp
    363a:	48 8b 6c 24 08       	mov    rbp,QWORD PTR [rsp+0x8]
    363f:	4c 89 d2             	mov    rdx,r10
    3642:	41 b8 10 00 00 00    	mov    r8d,0x10
    3648:	4c 89 ce             	mov    rsi,r9
    364b:	49 89 5f 28          	mov    QWORD PTR [r15+0x28],rbx
    364f:	48 89 ef             	mov    rdi,rbp
    3652:	e8 00 00 00 00       	call   3657 <luaV_execute+0x1967>
    3657:	44 0f b6 ad c8 00 00 	movzx  r13d,BYTE PTR [rbp+0xc8]
    365e:	00 
    365f:	4d 8b 67 20          	mov    r12,QWORD PTR [r15+0x20]
    3663:	41 83 e5 0c          	and    r13d,0xc
        vmbreak;
    3667:	48 89 d8             	mov    rax,rbx
    366a:	48 83 c3 04          	add    rbx,0x4
    366e:	44 8b 00             	mov    r8d,DWORD PTR [rax]
    3671:	45 85 ed             	test   r13d,r13d
    3674:	0f 85 e8 41 00 00    	jne    7862 <luaV_execute+0x5b72>
    367a:	44 89 c5             	mov    ebp,r8d
    367d:	41 0f b6 c0          	movzx  eax,r8b
    3681:	c1 ed 08             	shr    ebp,0x8
    3684:	48 89 c2             	mov    rdx,rax
    3687:	83 e5 7f             	and    ebp,0x7f
    368a:	48 c1 e5 04          	shl    rbp,0x4
    368e:	4c 01 e5             	add    rbp,r12
    3691:	41 ff 24 c6          	jmp    QWORD PTR [r14+rax*8]
        TValue *rb = RKB(i);
    3695:	44 89 c0             	mov    eax,r8d
    3698:	c1 e8 18             	shr    eax,0x18
    369b:	a8 80                	test   al,0x80
    369d:	0f 85 44 21 00 00    	jne    57e7 <luaV_execute+0x3af7>
    36a3:	48 c1 e0 04          	shl    rax,0x4
        TValue *rc = RKC(i);
    36a7:	41 c1 e8 10          	shr    r8d,0x10
        TValue *rb = RKB(i);
    36ab:	4d 8d 0c 04          	lea    r9,[r12+rax*1]
        TValue *rc = RKC(i);
    36af:	41 f6 c0 80          	test   r8b,0x80
    36b3:	0f 84 4c 21 00 00    	je     5805 <luaV_execute+0x3b15>
    36b9:	48 8b 44 24 10       	mov    rax,QWORD PTR [rsp+0x10]
    36be:	41 83 e0 7f          	and    r8d,0x7f
    36c2:	49 c1 e0 04          	shl    r8,0x4
    36c6:	4e 8d 14 00          	lea    r10,[rax+r8*1]
        if (tointegerns(rb, &ib) && tointegerns(rc, &ic)) {
    36ca:	41 0f b7 41 08       	movzx  eax,WORD PTR [r9+0x8]
    36cf:	66 83 f8 13          	cmp    ax,0x13
    36d3:	0f 84 47 21 00 00    	je     5820 <luaV_execute+0x3b30>
  if (!ttisfloat(obj))
    36d9:	66 83 f8 03          	cmp    ax,0x3
    36dd:	75 1a                	jne    36f9 <luaV_execute+0x1a09>
    36df:	31 d2                	xor    edx,edx
    36e1:	48 8d b4 24 80 00 00 	lea    rsi,[rsp+0x80]
    36e8:	00 
    36e9:	4c 89 cf             	mov    rdi,r9
    36ec:	e8 9f cb ff ff       	call   290 <luaV_flttointeger.part.7>
        if (tointegerns(rb, &ib) && tointegerns(rc, &ic)) {
    36f1:	85 c0                	test   eax,eax
    36f3:	0f 85 32 21 00 00    	jne    582b <luaV_execute+0x3b3b>
        else { Protect(luaT_trybinTM(L, rb, rc, ra, TM_BXOR)); }
    36f9:	4c 8b 7c 24 18       	mov    r15,QWORD PTR [rsp+0x18]
    36fe:	48 89 e9             	mov    rcx,rbp
    3701:	48 8b 6c 24 08       	mov    rbp,QWORD PTR [rsp+0x8]
    3706:	4c 89 d2             	mov    rdx,r10
    3709:	41 b8 0f 00 00 00    	mov    r8d,0xf
    370f:	4c 89 ce             	mov    rsi,r9
    3712:	49 89 5f 28          	mov    QWORD PTR [r15+0x28],rbx
    3716:	48 89 ef             	mov    rdi,rbp
    3719:	e8 00 00 00 00       	call   371e <luaV_execute+0x1a2e>
    371e:	44 0f b6 ad c8 00 00 	movzx  r13d,BYTE PTR [rbp+0xc8]
    3725:	00 
    3726:	4d 8b 67 20          	mov    r12,QWORD PTR [r15+0x20]
    372a:	41 83 e5 0c          	and    r13d,0xc
        vmbreak;
    372e:	48 89 d8             	mov    rax,rbx
    3731:	48 83 c3 04          	add    rbx,0x4
    3735:	44 8b 00             	mov    r8d,DWORD PTR [rax]
    3738:	45 85 ed             	test   r13d,r13d
    373b:	0f 85 82 40 00 00    	jne    77c3 <luaV_execute+0x5ad3>
    3741:	44 89 c5             	mov    ebp,r8d
    3744:	41 0f b6 c0          	movzx  eax,r8b
    3748:	c1 ed 08             	shr    ebp,0x8
    374b:	48 89 c2             	mov    rdx,rax
    374e:	83 e5 7f             	and    ebp,0x7f
    3751:	48 c1 e5 04          	shl    rbp,0x4
    3755:	4c 01 e5             	add    rbp,r12
    3758:	41 ff 24 c6          	jmp    QWORD PTR [r14+rax*8]
        TValue *rb = RKB(i);
    375c:	44 89 c0             	mov    eax,r8d
    375f:	c1 e8 18             	shr    eax,0x18
    3762:	a8 80                	test   al,0x80
    3764:	0f 85 ee 1f 00 00    	jne    5758 <luaV_execute+0x3a68>
    376a:	48 c1 e0 04          	shl    rax,0x4
        TValue *rc = RKC(i);
    376e:	41 c1 e8 10          	shr    r8d,0x10
        TValue *rb = RKB(i);
    3772:	4d 8d 0c 04          	lea    r9,[r12+rax*1]
        TValue *rc = RKC(i);
    3776:	41 f6 c0 80          	test   r8b,0x80
    377a:	0f 84 f6 1f 00 00    	je     5776 <luaV_execute+0x3a86>
    3780:	48 8b 44 24 10       	mov    rax,QWORD PTR [rsp+0x10]
    3785:	41 83 e0 7f          	and    r8d,0x7f
    3789:	49 c1 e0 04          	shl    r8,0x4
    378d:	4e 8d 14 00          	lea    r10,[rax+r8*1]
        if (tointegerns(rb, &ib) && tointegerns(rc, &ic)) {
